
float:     file format elf32-littleriscv


Disassembly of section .text:

00010074 <sulp>:
   10074:	fe010113          	addi	sp,sp,-32
   10078:	00812c23          	sw	s0,24(sp)
   1007c:	00050713          	mv	a4,a0
   10080:	00058413          	mv	s0,a1
   10084:	00070513          	mv	a0,a4
   10088:	00040593          	mv	a1,s0
   1008c:	00c12623          	sw	a2,12(sp)
   10090:	00112e23          	sw	ra,28(sp)
   10094:	700090ef          	jal	ra,19794 <__ulp>
   10098:	00c12603          	lw	a2,12(sp)
   1009c:	00050813          	mv	a6,a0
   100a0:	00058893          	mv	a7,a1
   100a4:	02060e63          	beqz	a2,100e0 <sulp+0x6c>
   100a8:	01445413          	srli	s0,s0,0x14
   100ac:	7ff47413          	andi	s0,s0,2047
   100b0:	06b00793          	li	a5,107
   100b4:	408787b3          	sub	a5,a5,s0
   100b8:	02f05463          	blez	a5,100e0 <sulp+0x6c>
   100bc:	01479793          	slli	a5,a5,0x14
   100c0:	3ff00737          	lui	a4,0x3ff00
   100c4:	00000813          	li	a6,0
   100c8:	00e78733          	add	a4,a5,a4
   100cc:	00080613          	mv	a2,a6
   100d0:	00070693          	mv	a3,a4
   100d4:	411150ef          	jal	ra,25ce4 <__muldf3>
   100d8:	00050813          	mv	a6,a0
   100dc:	00058893          	mv	a7,a1
   100e0:	01c12083          	lw	ra,28(sp)
   100e4:	01812403          	lw	s0,24(sp)
   100e8:	00080513          	mv	a0,a6
   100ec:	00088593          	mv	a1,a7
   100f0:	02010113          	addi	sp,sp,32
   100f4:	00008067          	ret

000100f8 <main>:
   100f8:	0002a537          	lui	a0,0x2a
   100fc:	fe010113          	addi	sp,sp,-32
   10100:	72050513          	addi	a0,a0,1824 # 2a720 <__muldi3+0x8c>
   10104:	00112e23          	sw	ra,28(sp)
   10108:	7b0010ef          	jal	ra,118b8 <puts>
   1010c:	0002a537          	lui	a0,0x2a
   10110:	00c10613          	addi	a2,sp,12
   10114:	00810593          	addi	a1,sp,8
   10118:	75850513          	addi	a0,a0,1880 # 2a758 <__muldi3+0xc4>
   1011c:	7a8010ef          	jal	ra,118c4 <scanf>
   10120:	00812503          	lw	a0,8(sp)
   10124:	1e0010ef          	jal	ra,11304 <__extendsfdf2>
   10128:	00050613          	mv	a2,a0
   1012c:	0002a537          	lui	a0,0x2a
   10130:	00058693          	mv	a3,a1
   10134:	78850513          	addi	a0,a0,1928 # 2a788 <__muldi3+0xf4>
   10138:	66c010ef          	jal	ra,117a4 <printf>
   1013c:	00c12503          	lw	a0,12(sp)
   10140:	1c4010ef          	jal	ra,11304 <__extendsfdf2>
   10144:	00050613          	mv	a2,a0
   10148:	0002a537          	lui	a0,0x2a
   1014c:	00058693          	mv	a3,a1
   10150:	77c50513          	addi	a0,a0,1916 # 2a77c <__muldi3+0xe8>
   10154:	650010ef          	jal	ra,117a4 <printf>
   10158:	00c12583          	lw	a1,12(sp)
   1015c:	00812503          	lw	a0,8(sp)
   10160:	1d8000ef          	jal	ra,10338 <__addsf3>
   10164:	1a0010ef          	jal	ra,11304 <__extendsfdf2>
   10168:	00050613          	mv	a2,a0
   1016c:	0002a537          	lui	a0,0x2a
   10170:	00058693          	mv	a3,a1
   10174:	76050513          	addi	a0,a0,1888 # 2a760 <__muldi3+0xcc>
   10178:	62c010ef          	jal	ra,117a4 <printf>
   1017c:	00c12583          	lw	a1,12(sp)
   10180:	00812503          	lw	a0,8(sp)
   10184:	509000ef          	jal	ra,10e8c <__subsf3>
   10188:	17c010ef          	jal	ra,11304 <__extendsfdf2>
   1018c:	00050613          	mv	a2,a0
   10190:	0002a537          	lui	a0,0x2a
   10194:	00058693          	mv	a3,a1
   10198:	76c50513          	addi	a0,a0,1900 # 2a76c <__muldi3+0xd8>
   1019c:	608010ef          	jal	ra,117a4 <printf>
   101a0:	00c12583          	lw	a1,12(sp)
   101a4:	00812503          	lw	a0,8(sp)
   101a8:	179000ef          	jal	ra,10b20 <__mulsf3>
   101ac:	158010ef          	jal	ra,11304 <__extendsfdf2>
   101b0:	00050613          	mv	a2,a0
   101b4:	0002a537          	lui	a0,0x2a
   101b8:	00058693          	mv	a3,a1
   101bc:	77850513          	addi	a0,a0,1912 # 2a778 <__muldi3+0xe4>
   101c0:	5e4010ef          	jal	ra,117a4 <printf>
   101c4:	00c12583          	lw	a1,12(sp)
   101c8:	00812503          	lw	a0,8(sp)
   101cc:	5c0000ef          	jal	ra,1078c <__divsf3>
   101d0:	134010ef          	jal	ra,11304 <__extendsfdf2>
   101d4:	00050613          	mv	a2,a0
   101d8:	0002a537          	lui	a0,0x2a
   101dc:	00058693          	mv	a3,a1
   101e0:	78450513          	addi	a0,a0,1924 # 2a784 <__muldi3+0xf0>
   101e4:	5c0010ef          	jal	ra,117a4 <printf>
   101e8:	01c12083          	lw	ra,28(sp)
   101ec:	00000513          	li	a0,0
   101f0:	02010113          	addi	sp,sp,32
   101f4:	00008067          	ret

000101f8 <_start>:
   101f8:	0001d197          	auipc	gp,0x1d
   101fc:	fc018193          	addi	gp,gp,-64 # 2d1b8 <__global_pointer$>
   10200:	0001d517          	auipc	a0,0x1d
   10204:	82c50513          	addi	a0,a0,-2004 # 2ca2c <_edata>
   10208:	0001d617          	auipc	a2,0x1d
   1020c:	88860613          	addi	a2,a2,-1912 # 2ca90 <_end>
   10210:	40a60633          	sub	a2,a2,a0
   10214:	00000593          	li	a1,0
   10218:	470010ef          	jal	ra,11688 <memset>
   1021c:	00001517          	auipc	a0,0x1
   10220:	35c50513          	addi	a0,a0,860 # 11578 <__libc_fini_array>
   10224:	310010ef          	jal	ra,11534 <atexit>
   10228:	3c0010ef          	jal	ra,115e8 <__libc_init_array>
   1022c:	00012503          	lw	a0,0(sp)
   10230:	00410593          	addi	a1,sp,4
   10234:	00000613          	li	a2,0
   10238:	ec1ff0ef          	jal	ra,100f8 <main>
   1023c:	30c0106f          	j	11548 <exit>

00010240 <_fini>:
   10240:	00008067          	ret

00010244 <deregister_tm_clones>:
   10244:	0002d537          	lui	a0,0x2d
   10248:	0002d7b7          	lui	a5,0x2d
   1024c:	9b850713          	addi	a4,a0,-1608 # 2c9b8 <__TMC_END__>
   10250:	9b878793          	addi	a5,a5,-1608 # 2c9b8 <__TMC_END__>
   10254:	00e78c63          	beq	a5,a4,1026c <deregister_tm_clones+0x28>
   10258:	00000337          	lui	t1,0x0
   1025c:	00030313          	mv	t1,t1
   10260:	00030663          	beqz	t1,1026c <deregister_tm_clones+0x28>
   10264:	9b850513          	addi	a0,a0,-1608
   10268:	00030067          	jr	t1
   1026c:	00008067          	ret

00010270 <register_tm_clones>:
   10270:	0002d7b7          	lui	a5,0x2d
   10274:	0002d537          	lui	a0,0x2d
   10278:	9b878593          	addi	a1,a5,-1608 # 2c9b8 <__TMC_END__>
   1027c:	9b850793          	addi	a5,a0,-1608 # 2c9b8 <__TMC_END__>
   10280:	40f585b3          	sub	a1,a1,a5
   10284:	4025d593          	srai	a1,a1,0x2
   10288:	01f5d793          	srli	a5,a1,0x1f
   1028c:	00b785b3          	add	a1,a5,a1
   10290:	4015d593          	srai	a1,a1,0x1
   10294:	00058c63          	beqz	a1,102ac <register_tm_clones+0x3c>
   10298:	00000337          	lui	t1,0x0
   1029c:	00030313          	mv	t1,t1
   102a0:	00030663          	beqz	t1,102ac <register_tm_clones+0x3c>
   102a4:	9b850513          	addi	a0,a0,-1608
   102a8:	00030067          	jr	t1
   102ac:	00008067          	ret

000102b0 <__do_global_dtors_aux>:
   102b0:	8901c703          	lbu	a4,-1904(gp) # 2ca48 <completed.5148>
   102b4:	04071663          	bnez	a4,10300 <__do_global_dtors_aux+0x50>
   102b8:	ff010113          	addi	sp,sp,-16
   102bc:	00812423          	sw	s0,8(sp)
   102c0:	00112623          	sw	ra,12(sp)
   102c4:	00078413          	mv	s0,a5
   102c8:	f7dff0ef          	jal	ra,10244 <deregister_tm_clones>
   102cc:	000007b7          	lui	a5,0x0
   102d0:	00078793          	mv	a5,a5
   102d4:	00078a63          	beqz	a5,102e8 <__do_global_dtors_aux+0x38>
   102d8:	0002b537          	lui	a0,0x2b
   102dc:	63c50513          	addi	a0,a0,1596 # 2b63c <__EH_FRAME_BEGIN__>
   102e0:	ffff0097          	auipc	ra,0xffff0
   102e4:	d20080e7          	jalr	-736(ra) # 0 <sulp-0x10074>
   102e8:	00100793          	li	a5,1
   102ec:	88f18823          	sb	a5,-1904(gp) # 2ca48 <completed.5148>
   102f0:	00c12083          	lw	ra,12(sp)
   102f4:	00812403          	lw	s0,8(sp)
   102f8:	01010113          	addi	sp,sp,16
   102fc:	00008067          	ret
   10300:	00008067          	ret

00010304 <frame_dummy>:
   10304:	000007b7          	lui	a5,0x0
   10308:	00078793          	mv	a5,a5
   1030c:	02078463          	beqz	a5,10334 <frame_dummy+0x30>
   10310:	0002b537          	lui	a0,0x2b
   10314:	ff010113          	addi	sp,sp,-16
   10318:	89418593          	addi	a1,gp,-1900 # 2ca4c <object.5153>
   1031c:	63c50513          	addi	a0,a0,1596 # 2b63c <__EH_FRAME_BEGIN__>
   10320:	00112623          	sw	ra,12(sp)
   10324:	ffff0097          	auipc	ra,0xffff0
   10328:	cdc080e7          	jalr	-804(ra) # 0 <sulp-0x10074>
   1032c:	00c12083          	lw	ra,12(sp)
   10330:	01010113          	addi	sp,sp,16
   10334:	f3dff06f          	j	10270 <register_tm_clones>

00010338 <__addsf3>:
   10338:	008007b7          	lui	a5,0x800
   1033c:	ff010113          	addi	sp,sp,-16
   10340:	fff78793          	addi	a5,a5,-1 # 7fffff <__global_pointer$+0x7d2e47>
   10344:	00a7f733          	and	a4,a5,a0
   10348:	00812423          	sw	s0,8(sp)
   1034c:	01212023          	sw	s2,0(sp)
   10350:	01755413          	srli	s0,a0,0x17
   10354:	01f55913          	srli	s2,a0,0x1f
   10358:	0175d513          	srli	a0,a1,0x17
   1035c:	00b7f7b3          	and	a5,a5,a1
   10360:	0ff47413          	andi	s0,s0,255
   10364:	0ff57513          	andi	a0,a0,255
   10368:	00112623          	sw	ra,12(sp)
   1036c:	00912223          	sw	s1,4(sp)
   10370:	01f5d593          	srli	a1,a1,0x1f
   10374:	00371613          	slli	a2,a4,0x3
   10378:	00379793          	slli	a5,a5,0x3
   1037c:	40a40733          	sub	a4,s0,a0
   10380:	18b91e63          	bne	s2,a1,1051c <__addsf3+0x1e4>
   10384:	0ae05863          	blez	a4,10434 <__addsf3+0xfc>
   10388:	06051863          	bnez	a0,103f8 <__addsf3+0xc0>
   1038c:	00079c63          	bnez	a5,103a4 <__addsf3+0x6c>
   10390:	0ff00793          	li	a5,255
   10394:	04f40c63          	beq	s0,a5,103ec <__addsf3+0xb4>
   10398:	00060793          	mv	a5,a2
   1039c:	00040513          	mv	a0,s0
   103a0:	0bc0006f          	j	1045c <__addsf3+0x124>
   103a4:	fff70713          	addi	a4,a4,-1 # 3fefffff <__global_pointer$+0x3fed2e47>
   103a8:	02071e63          	bnez	a4,103e4 <__addsf3+0xac>
   103ac:	00c787b3          	add	a5,a5,a2
   103b0:	00040513          	mv	a0,s0
   103b4:	00579713          	slli	a4,a5,0x5
   103b8:	0a075263          	bgez	a4,1045c <__addsf3+0x124>
   103bc:	00150513          	addi	a0,a0,1
   103c0:	0ff00713          	li	a4,255
   103c4:	32e50463          	beq	a0,a4,106ec <__addsf3+0x3b4>
   103c8:	7e000737          	lui	a4,0x7e000
   103cc:	0017f693          	andi	a3,a5,1
   103d0:	fff70713          	addi	a4,a4,-1 # 7dffffff <__global_pointer$+0x7dfd2e47>
   103d4:	0017d793          	srli	a5,a5,0x1
   103d8:	00e7f7b3          	and	a5,a5,a4
   103dc:	00d7e7b3          	or	a5,a5,a3
   103e0:	07c0006f          	j	1045c <__addsf3+0x124>
   103e4:	0ff00693          	li	a3,255
   103e8:	02d41063          	bne	s0,a3,10408 <__addsf3+0xd0>
   103ec:	00060793          	mv	a5,a2
   103f0:	0ff00513          	li	a0,255
   103f4:	0680006f          	j	1045c <__addsf3+0x124>
   103f8:	0ff00693          	li	a3,255
   103fc:	fed408e3          	beq	s0,a3,103ec <__addsf3+0xb4>
   10400:	040006b7          	lui	a3,0x4000
   10404:	00d7e7b3          	or	a5,a5,a3
   10408:	01b00693          	li	a3,27
   1040c:	00e6d663          	ble	a4,a3,10418 <__addsf3+0xe0>
   10410:	00100793          	li	a5,1
   10414:	f99ff06f          	j	103ac <__addsf3+0x74>
   10418:	02000693          	li	a3,32
   1041c:	40e686b3          	sub	a3,a3,a4
   10420:	00e7d5b3          	srl	a1,a5,a4
   10424:	00d797b3          	sll	a5,a5,a3
   10428:	00f037b3          	snez	a5,a5
   1042c:	00f5e7b3          	or	a5,a1,a5
   10430:	f7dff06f          	j	103ac <__addsf3+0x74>
   10434:	08070463          	beqz	a4,104bc <__addsf3+0x184>
   10438:	04041063          	bnez	s0,10478 <__addsf3+0x140>
   1043c:	02060063          	beqz	a2,1045c <__addsf3+0x124>
   10440:	fff00693          	li	a3,-1
   10444:	00d71663          	bne	a4,a3,10450 <__addsf3+0x118>
   10448:	00c787b3          	add	a5,a5,a2
   1044c:	f69ff06f          	j	103b4 <__addsf3+0x7c>
   10450:	0ff00693          	li	a3,255
   10454:	fff74713          	not	a4,a4
   10458:	02d51a63          	bne	a0,a3,1048c <__addsf3+0x154>
   1045c:	0077f713          	andi	a4,a5,7
   10460:	28070863          	beqz	a4,106f0 <__addsf3+0x3b8>
   10464:	00f7f713          	andi	a4,a5,15
   10468:	00400693          	li	a3,4
   1046c:	28d70263          	beq	a4,a3,106f0 <__addsf3+0x3b8>
   10470:	00478793          	addi	a5,a5,4
   10474:	27c0006f          	j	106f0 <__addsf3+0x3b8>
   10478:	0ff00693          	li	a3,255
   1047c:	fed500e3          	beq	a0,a3,1045c <__addsf3+0x124>
   10480:	040006b7          	lui	a3,0x4000
   10484:	40e00733          	neg	a4,a4
   10488:	00d66633          	or	a2,a2,a3
   1048c:	01b00693          	li	a3,27
   10490:	00e6d663          	ble	a4,a3,1049c <__addsf3+0x164>
   10494:	00100713          	li	a4,1
   10498:	01c0006f          	j	104b4 <__addsf3+0x17c>
   1049c:	02000693          	li	a3,32
   104a0:	00e655b3          	srl	a1,a2,a4
   104a4:	40e68733          	sub	a4,a3,a4
   104a8:	00e61733          	sll	a4,a2,a4
   104ac:	00e03733          	snez	a4,a4
   104b0:	00e5e733          	or	a4,a1,a4
   104b4:	00e787b3          	add	a5,a5,a4
   104b8:	efdff06f          	j	103b4 <__addsf3+0x7c>
   104bc:	00140513          	addi	a0,s0,1
   104c0:	0ff57693          	andi	a3,a0,255
   104c4:	00100713          	li	a4,1
   104c8:	04d74063          	blt	a4,a3,10508 <__addsf3+0x1d0>
   104cc:	02041863          	bnez	s0,104fc <__addsf3+0x1c4>
   104d0:	00000513          	li	a0,0
   104d4:	f80604e3          	beqz	a2,1045c <__addsf3+0x124>
   104d8:	20078663          	beqz	a5,106e4 <__addsf3+0x3ac>
   104dc:	00c787b3          	add	a5,a5,a2
   104e0:	00579713          	slli	a4,a5,0x5
   104e4:	f6075ce3          	bgez	a4,1045c <__addsf3+0x124>
   104e8:	fc000737          	lui	a4,0xfc000
   104ec:	fff70713          	addi	a4,a4,-1 # fbffffff <__global_pointer$+0xfbfd2e47>
   104f0:	00e7f7b3          	and	a5,a5,a4
   104f4:	00100513          	li	a0,1
   104f8:	f65ff06f          	j	1045c <__addsf3+0x124>
   104fc:	ee060ae3          	beqz	a2,103f0 <__addsf3+0xb8>
   10500:	16079463          	bnez	a5,10668 <__addsf3+0x330>
   10504:	ee9ff06f          	j	103ec <__addsf3+0xb4>
   10508:	0ff00713          	li	a4,255
   1050c:	1ee50063          	beq	a0,a4,106ec <__addsf3+0x3b4>
   10510:	00f60733          	add	a4,a2,a5
   10514:	00175793          	srli	a5,a4,0x1
   10518:	f45ff06f          	j	1045c <__addsf3+0x124>
   1051c:	08e05063          	blez	a4,1059c <__addsf3+0x264>
   10520:	04051663          	bnez	a0,1056c <__addsf3+0x234>
   10524:	e60786e3          	beqz	a5,10390 <__addsf3+0x58>
   10528:	fff70713          	addi	a4,a4,-1
   1052c:	02071463          	bnez	a4,10554 <__addsf3+0x21c>
   10530:	40f607b3          	sub	a5,a2,a5
   10534:	00040513          	mv	a0,s0
   10538:	00579713          	slli	a4,a5,0x5
   1053c:	f20750e3          	bgez	a4,1045c <__addsf3+0x124>
   10540:	040004b7          	lui	s1,0x4000
   10544:	fff48493          	addi	s1,s1,-1 # 3ffffff <__global_pointer$+0x3fd2e47>
   10548:	0097f4b3          	and	s1,a5,s1
   1054c:	00050413          	mv	s0,a0
   10550:	13c0006f          	j	1068c <__addsf3+0x354>
   10554:	0ff00693          	li	a3,255
   10558:	e8d40ae3          	beq	s0,a3,103ec <__addsf3+0xb4>
   1055c:	01b00693          	li	a3,27
   10560:	02e6d063          	ble	a4,a3,10580 <__addsf3+0x248>
   10564:	00100793          	li	a5,1
   10568:	fc9ff06f          	j	10530 <__addsf3+0x1f8>
   1056c:	0ff00693          	li	a3,255
   10570:	e6d40ee3          	beq	s0,a3,103ec <__addsf3+0xb4>
   10574:	040006b7          	lui	a3,0x4000
   10578:	00d7e7b3          	or	a5,a5,a3
   1057c:	fe1ff06f          	j	1055c <__addsf3+0x224>
   10580:	02000693          	li	a3,32
   10584:	00e7d5b3          	srl	a1,a5,a4
   10588:	40e68733          	sub	a4,a3,a4
   1058c:	00e797b3          	sll	a5,a5,a4
   10590:	00f037b3          	snez	a5,a5
   10594:	00f5e7b3          	or	a5,a1,a5
   10598:	f99ff06f          	j	10530 <__addsf3+0x1f8>
   1059c:	06070e63          	beqz	a4,10618 <__addsf3+0x2e0>
   105a0:	02041e63          	bnez	s0,105dc <__addsf3+0x2a4>
   105a4:	00058913          	mv	s2,a1
   105a8:	ea060ae3          	beqz	a2,1045c <__addsf3+0x124>
   105ac:	fff00693          	li	a3,-1
   105b0:	00d71863          	bne	a4,a3,105c0 <__addsf3+0x288>
   105b4:	40c787b3          	sub	a5,a5,a2
   105b8:	00058913          	mv	s2,a1
   105bc:	f7dff06f          	j	10538 <__addsf3+0x200>
   105c0:	0ff00693          	li	a3,255
   105c4:	fff74713          	not	a4,a4
   105c8:	e8d50ae3          	beq	a0,a3,1045c <__addsf3+0x124>
   105cc:	01b00693          	li	a3,27
   105d0:	02e6d463          	ble	a4,a3,105f8 <__addsf3+0x2c0>
   105d4:	00100713          	li	a4,1
   105d8:	0380006f          	j	10610 <__addsf3+0x2d8>
   105dc:	0ff00693          	li	a3,255
   105e0:	00058913          	mv	s2,a1
   105e4:	e6d50ce3          	beq	a0,a3,1045c <__addsf3+0x124>
   105e8:	040006b7          	lui	a3,0x4000
   105ec:	40e00733          	neg	a4,a4
   105f0:	00d66633          	or	a2,a2,a3
   105f4:	fd9ff06f          	j	105cc <__addsf3+0x294>
   105f8:	02000693          	li	a3,32
   105fc:	00e65833          	srl	a6,a2,a4
   10600:	40e68733          	sub	a4,a3,a4
   10604:	00e61733          	sll	a4,a2,a4
   10608:	00e03733          	snez	a4,a4
   1060c:	00e86733          	or	a4,a6,a4
   10610:	40e787b3          	sub	a5,a5,a4
   10614:	fa5ff06f          	j	105b8 <__addsf3+0x280>
   10618:	00140713          	addi	a4,s0,1
   1061c:	0ff77713          	andi	a4,a4,255
   10620:	00100693          	li	a3,1
   10624:	04e6ca63          	blt	a3,a4,10678 <__addsf3+0x340>
   10628:	02041c63          	bnez	s0,10660 <__addsf3+0x328>
   1062c:	00061863          	bnez	a2,1063c <__addsf3+0x304>
   10630:	12079e63          	bnez	a5,1076c <__addsf3+0x434>
   10634:	00000513          	li	a0,0
   10638:	0380006f          	j	10670 <__addsf3+0x338>
   1063c:	12078c63          	beqz	a5,10774 <__addsf3+0x43c>
   10640:	40f60733          	sub	a4,a2,a5
   10644:	00571693          	slli	a3,a4,0x5
   10648:	40c787b3          	sub	a5,a5,a2
   1064c:	1206c063          	bltz	a3,1076c <__addsf3+0x434>
   10650:	00070793          	mv	a5,a4
   10654:	06071663          	bnez	a4,106c0 <__addsf3+0x388>
   10658:	00000793          	li	a5,0
   1065c:	fd9ff06f          	j	10634 <__addsf3+0x2fc>
   10660:	ea0610e3          	bnez	a2,10500 <__addsf3+0x1c8>
   10664:	10079c63          	bnez	a5,1077c <__addsf3+0x444>
   10668:	020007b7          	lui	a5,0x2000
   1066c:	0ff00513          	li	a0,255
   10670:	00000913          	li	s2,0
   10674:	07c0006f          	j	106f0 <__addsf3+0x3b8>
   10678:	40f604b3          	sub	s1,a2,a5
   1067c:	00549713          	slli	a4,s1,0x5
   10680:	04075463          	bgez	a4,106c8 <__addsf3+0x390>
   10684:	40c784b3          	sub	s1,a5,a2
   10688:	00058913          	mv	s2,a1
   1068c:	00048513          	mv	a0,s1
   10690:	659000ef          	jal	ra,114e8 <__clzsi2>
   10694:	ffb50513          	addi	a0,a0,-5
   10698:	00a494b3          	sll	s1,s1,a0
   1069c:	02854a63          	blt	a0,s0,106d0 <__addsf3+0x398>
   106a0:	40850533          	sub	a0,a0,s0
   106a4:	00150513          	addi	a0,a0,1
   106a8:	02000413          	li	s0,32
   106ac:	00a4d7b3          	srl	a5,s1,a0
   106b0:	40a40533          	sub	a0,s0,a0
   106b4:	00a494b3          	sll	s1,s1,a0
   106b8:	009034b3          	snez	s1,s1
   106bc:	0097e7b3          	or	a5,a5,s1
   106c0:	00000513          	li	a0,0
   106c4:	d99ff06f          	j	1045c <__addsf3+0x124>
   106c8:	f80488e3          	beqz	s1,10658 <__addsf3+0x320>
   106cc:	fc1ff06f          	j	1068c <__addsf3+0x354>
   106d0:	fc0007b7          	lui	a5,0xfc000
   106d4:	fff78793          	addi	a5,a5,-1 # fbffffff <__global_pointer$+0xfbfd2e47>
   106d8:	40a40533          	sub	a0,s0,a0
   106dc:	00f4f7b3          	and	a5,s1,a5
   106e0:	d7dff06f          	j	1045c <__addsf3+0x124>
   106e4:	00060793          	mv	a5,a2
   106e8:	d75ff06f          	j	1045c <__addsf3+0x124>
   106ec:	00000793          	li	a5,0
   106f0:	00579713          	slli	a4,a5,0x5
   106f4:	00075e63          	bgez	a4,10710 <__addsf3+0x3d8>
   106f8:	00150513          	addi	a0,a0,1
   106fc:	0ff00713          	li	a4,255
   10700:	08e50263          	beq	a0,a4,10784 <__addsf3+0x44c>
   10704:	fc000737          	lui	a4,0xfc000
   10708:	fff70713          	addi	a4,a4,-1 # fbffffff <__global_pointer$+0xfbfd2e47>
   1070c:	00e7f7b3          	and	a5,a5,a4
   10710:	0ff00713          	li	a4,255
   10714:	0037d793          	srli	a5,a5,0x3
   10718:	00e51863          	bne	a0,a4,10728 <__addsf3+0x3f0>
   1071c:	00078663          	beqz	a5,10728 <__addsf3+0x3f0>
   10720:	004007b7          	lui	a5,0x400
   10724:	00000913          	li	s2,0
   10728:	00800737          	lui	a4,0x800
   1072c:	fff70713          	addi	a4,a4,-1 # 7fffff <__global_pointer$+0x7d2e47>
   10730:	0ff57513          	andi	a0,a0,255
   10734:	00e7f7b3          	and	a5,a5,a4
   10738:	01751713          	slli	a4,a0,0x17
   1073c:	80800537          	lui	a0,0x80800
   10740:	00c12083          	lw	ra,12(sp)
   10744:	00812403          	lw	s0,8(sp)
   10748:	fff50513          	addi	a0,a0,-1 # 807fffff <__global_pointer$+0x807d2e47>
   1074c:	00a7f533          	and	a0,a5,a0
   10750:	01f91913          	slli	s2,s2,0x1f
   10754:	00e56533          	or	a0,a0,a4
   10758:	01256533          	or	a0,a0,s2
   1075c:	00412483          	lw	s1,4(sp)
   10760:	00012903          	lw	s2,0(sp)
   10764:	01010113          	addi	sp,sp,16
   10768:	00008067          	ret
   1076c:	00058913          	mv	s2,a1
   10770:	f51ff06f          	j	106c0 <__addsf3+0x388>
   10774:	00060793          	mv	a5,a2
   10778:	f49ff06f          	j	106c0 <__addsf3+0x388>
   1077c:	00058913          	mv	s2,a1
   10780:	c71ff06f          	j	103f0 <__addsf3+0xb8>
   10784:	00000793          	li	a5,0
   10788:	f89ff06f          	j	10710 <__addsf3+0x3d8>

0001078c <__divsf3>:
   1078c:	fd010113          	addi	sp,sp,-48
   10790:	02912223          	sw	s1,36(sp)
   10794:	01512a23          	sw	s5,20(sp)
   10798:	01755493          	srli	s1,a0,0x17
   1079c:	00800ab7          	lui	s5,0x800
   107a0:	03212023          	sw	s2,32(sp)
   107a4:	01612823          	sw	s6,16(sp)
   107a8:	fffa8a93          	addi	s5,s5,-1 # 7fffff <__global_pointer$+0x7d2e47>
   107ac:	02112623          	sw	ra,44(sp)
   107b0:	02812423          	sw	s0,40(sp)
   107b4:	01312e23          	sw	s3,28(sp)
   107b8:	01412c23          	sw	s4,24(sp)
   107bc:	01712623          	sw	s7,12(sp)
   107c0:	01812423          	sw	s8,8(sp)
   107c4:	0ff4f493          	andi	s1,s1,255
   107c8:	00058b13          	mv	s6,a1
   107cc:	00aafab3          	and	s5,s5,a0
   107d0:	01f55913          	srli	s2,a0,0x1f
   107d4:	08048663          	beqz	s1,10860 <__divsf3+0xd4>
   107d8:	0ff00793          	li	a5,255
   107dc:	0af48263          	beq	s1,a5,10880 <__divsf3+0xf4>
   107e0:	003a9a93          	slli	s5,s5,0x3
   107e4:	040007b7          	lui	a5,0x4000
   107e8:	00faeab3          	or	s5,s5,a5
   107ec:	f8148493          	addi	s1,s1,-127
   107f0:	00000b93          	li	s7,0
   107f4:	017b5513          	srli	a0,s6,0x17
   107f8:	00800437          	lui	s0,0x800
   107fc:	fff40413          	addi	s0,s0,-1 # 7fffff <__global_pointer$+0x7d2e47>
   10800:	0ff57513          	andi	a0,a0,255
   10804:	01647433          	and	s0,s0,s6
   10808:	01fb5b13          	srli	s6,s6,0x1f
   1080c:	08050a63          	beqz	a0,108a0 <__divsf3+0x114>
   10810:	0ff00793          	li	a5,255
   10814:	0af50663          	beq	a0,a5,108c0 <__divsf3+0x134>
   10818:	00341413          	slli	s0,s0,0x3
   1081c:	040007b7          	lui	a5,0x4000
   10820:	00f46433          	or	s0,s0,a5
   10824:	f8150513          	addi	a0,a0,-127
   10828:	00000793          	li	a5,0
   1082c:	002b9713          	slli	a4,s7,0x2
   10830:	00f76733          	or	a4,a4,a5
   10834:	fff70713          	addi	a4,a4,-1
   10838:	00e00693          	li	a3,14
   1083c:	016949b3          	xor	s3,s2,s6
   10840:	40a48a33          	sub	s4,s1,a0
   10844:	08e6ee63          	bltu	a3,a4,108e0 <__divsf3+0x154>
   10848:	0002a6b7          	lui	a3,0x2a
   1084c:	00271713          	slli	a4,a4,0x2
   10850:	79068693          	addi	a3,a3,1936 # 2a790 <__muldi3+0xfc>
   10854:	00d70733          	add	a4,a4,a3
   10858:	00072703          	lw	a4,0(a4)
   1085c:	00070067          	jr	a4
   10860:	020a8a63          	beqz	s5,10894 <__divsf3+0x108>
   10864:	000a8513          	mv	a0,s5
   10868:	481000ef          	jal	ra,114e8 <__clzsi2>
   1086c:	ffb50793          	addi	a5,a0,-5
   10870:	f8a00493          	li	s1,-118
   10874:	00fa9ab3          	sll	s5,s5,a5
   10878:	40a484b3          	sub	s1,s1,a0
   1087c:	f75ff06f          	j	107f0 <__divsf3+0x64>
   10880:	0ff00493          	li	s1,255
   10884:	00200b93          	li	s7,2
   10888:	f60a86e3          	beqz	s5,107f4 <__divsf3+0x68>
   1088c:	00300b93          	li	s7,3
   10890:	f65ff06f          	j	107f4 <__divsf3+0x68>
   10894:	00000493          	li	s1,0
   10898:	00100b93          	li	s7,1
   1089c:	f59ff06f          	j	107f4 <__divsf3+0x68>
   108a0:	02040a63          	beqz	s0,108d4 <__divsf3+0x148>
   108a4:	00040513          	mv	a0,s0
   108a8:	441000ef          	jal	ra,114e8 <__clzsi2>
   108ac:	ffb50793          	addi	a5,a0,-5
   108b0:	00f41433          	sll	s0,s0,a5
   108b4:	f8a00793          	li	a5,-118
   108b8:	40a78533          	sub	a0,a5,a0
   108bc:	f6dff06f          	j	10828 <__divsf3+0x9c>
   108c0:	0ff00513          	li	a0,255
   108c4:	00200793          	li	a5,2
   108c8:	f60402e3          	beqz	s0,1082c <__divsf3+0xa0>
   108cc:	00300793          	li	a5,3
   108d0:	f5dff06f          	j	1082c <__divsf3+0xa0>
   108d4:	00000513          	li	a0,0
   108d8:	00100793          	li	a5,1
   108dc:	f51ff06f          	j	1082c <__divsf3+0xa0>
   108e0:	00541b13          	slli	s6,s0,0x5
   108e4:	128af663          	bleu	s0,s5,10a10 <__divsf3+0x284>
   108e8:	fffa0a13          	addi	s4,s4,-1
   108ec:	00000913          	li	s2,0
   108f0:	010b5b93          	srli	s7,s6,0x10
   108f4:	00010437          	lui	s0,0x10
   108f8:	000b8593          	mv	a1,s7
   108fc:	fff40413          	addi	s0,s0,-1 # ffff <sulp-0x75>
   10900:	000a8513          	mv	a0,s5
   10904:	339000ef          	jal	ra,1143c <__udivsi3>
   10908:	008b7433          	and	s0,s6,s0
   1090c:	00050593          	mv	a1,a0
   10910:	00050c13          	mv	s8,a0
   10914:	00040513          	mv	a0,s0
   10918:	2f9000ef          	jal	ra,11410 <__mulsi3>
   1091c:	00050493          	mv	s1,a0
   10920:	000b8593          	mv	a1,s7
   10924:	000a8513          	mv	a0,s5
   10928:	35d000ef          	jal	ra,11484 <__umodsi3>
   1092c:	01095913          	srli	s2,s2,0x10
   10930:	01051513          	slli	a0,a0,0x10
   10934:	00a96533          	or	a0,s2,a0
   10938:	000c0913          	mv	s2,s8
   1093c:	00957e63          	bleu	s1,a0,10958 <__divsf3+0x1cc>
   10940:	01650533          	add	a0,a0,s6
   10944:	fffc0913          	addi	s2,s8,-1
   10948:	01656863          	bltu	a0,s6,10958 <__divsf3+0x1cc>
   1094c:	00957663          	bleu	s1,a0,10958 <__divsf3+0x1cc>
   10950:	ffec0913          	addi	s2,s8,-2
   10954:	01650533          	add	a0,a0,s6
   10958:	409504b3          	sub	s1,a0,s1
   1095c:	000b8593          	mv	a1,s7
   10960:	00048513          	mv	a0,s1
   10964:	2d9000ef          	jal	ra,1143c <__udivsi3>
   10968:	00050593          	mv	a1,a0
   1096c:	00050c13          	mv	s8,a0
   10970:	00040513          	mv	a0,s0
   10974:	29d000ef          	jal	ra,11410 <__mulsi3>
   10978:	00050a93          	mv	s5,a0
   1097c:	000b8593          	mv	a1,s7
   10980:	00048513          	mv	a0,s1
   10984:	301000ef          	jal	ra,11484 <__umodsi3>
   10988:	01051513          	slli	a0,a0,0x10
   1098c:	000c0413          	mv	s0,s8
   10990:	01557e63          	bleu	s5,a0,109ac <__divsf3+0x220>
   10994:	01650533          	add	a0,a0,s6
   10998:	fffc0413          	addi	s0,s8,-1
   1099c:	01656863          	bltu	a0,s6,109ac <__divsf3+0x220>
   109a0:	01557663          	bleu	s5,a0,109ac <__divsf3+0x220>
   109a4:	ffec0413          	addi	s0,s8,-2
   109a8:	01650533          	add	a0,a0,s6
   109ac:	01091913          	slli	s2,s2,0x10
   109b0:	41550533          	sub	a0,a0,s5
   109b4:	00896933          	or	s2,s2,s0
   109b8:	00a03533          	snez	a0,a0
   109bc:	00a96433          	or	s0,s2,a0
   109c0:	07fa0713          	addi	a4,s4,127
   109c4:	0ae05063          	blez	a4,10a64 <__divsf3+0x2d8>
   109c8:	00747793          	andi	a5,s0,7
   109cc:	00078a63          	beqz	a5,109e0 <__divsf3+0x254>
   109d0:	00f47793          	andi	a5,s0,15
   109d4:	00400693          	li	a3,4
   109d8:	00d78463          	beq	a5,a3,109e0 <__divsf3+0x254>
   109dc:	00440413          	addi	s0,s0,4
   109e0:	00441793          	slli	a5,s0,0x4
   109e4:	0007da63          	bgez	a5,109f8 <__divsf3+0x26c>
   109e8:	f80007b7          	lui	a5,0xf8000
   109ec:	fff78793          	addi	a5,a5,-1 # f7ffffff <__global_pointer$+0xf7fd2e47>
   109f0:	00f47433          	and	s0,s0,a5
   109f4:	080a0713          	addi	a4,s4,128
   109f8:	0fe00793          	li	a5,254
   109fc:	00345413          	srli	s0,s0,0x3
   10a00:	0ce7d263          	ble	a4,a5,10ac4 <__divsf3+0x338>
   10a04:	00000413          	li	s0,0
   10a08:	0ff00713          	li	a4,255
   10a0c:	0b80006f          	j	10ac4 <__divsf3+0x338>
   10a10:	01fa9913          	slli	s2,s5,0x1f
   10a14:	001ada93          	srli	s5,s5,0x1
   10a18:	ed9ff06f          	j	108f0 <__divsf3+0x164>
   10a1c:	00090993          	mv	s3,s2
   10a20:	000a8413          	mv	s0,s5
   10a24:	000b8793          	mv	a5,s7
   10a28:	00200713          	li	a4,2
   10a2c:	fce78ce3          	beq	a5,a4,10a04 <__divsf3+0x278>
   10a30:	00300713          	li	a4,3
   10a34:	08e78263          	beq	a5,a4,10ab8 <__divsf3+0x32c>
   10a38:	00100713          	li	a4,1
   10a3c:	f8e792e3          	bne	a5,a4,109c0 <__divsf3+0x234>
   10a40:	00000413          	li	s0,0
   10a44:	00000713          	li	a4,0
   10a48:	07c0006f          	j	10ac4 <__divsf3+0x338>
   10a4c:	000b0993          	mv	s3,s6
   10a50:	fd9ff06f          	j	10a28 <__divsf3+0x29c>
   10a54:	00400437          	lui	s0,0x400
   10a58:	00000993          	li	s3,0
   10a5c:	00300793          	li	a5,3
   10a60:	fc9ff06f          	j	10a28 <__divsf3+0x29c>
   10a64:	00100793          	li	a5,1
   10a68:	40e787b3          	sub	a5,a5,a4
   10a6c:	01b00713          	li	a4,27
   10a70:	fcf748e3          	blt	a4,a5,10a40 <__divsf3+0x2b4>
   10a74:	09ea0513          	addi	a0,s4,158
   10a78:	00f457b3          	srl	a5,s0,a5
   10a7c:	00a41433          	sll	s0,s0,a0
   10a80:	00803433          	snez	s0,s0
   10a84:	0087e433          	or	s0,a5,s0
   10a88:	00747793          	andi	a5,s0,7
   10a8c:	00078a63          	beqz	a5,10aa0 <__divsf3+0x314>
   10a90:	00f47793          	andi	a5,s0,15
   10a94:	00400713          	li	a4,4
   10a98:	00e78463          	beq	a5,a4,10aa0 <__divsf3+0x314>
   10a9c:	00440413          	addi	s0,s0,4 # 400004 <__global_pointer$+0x3d2e4c>
   10aa0:	00541793          	slli	a5,s0,0x5
   10aa4:	00345413          	srli	s0,s0,0x3
   10aa8:	f807dee3          	bgez	a5,10a44 <__divsf3+0x2b8>
   10aac:	00000413          	li	s0,0
   10ab0:	00100713          	li	a4,1
   10ab4:	0100006f          	j	10ac4 <__divsf3+0x338>
   10ab8:	00400437          	lui	s0,0x400
   10abc:	0ff00713          	li	a4,255
   10ac0:	00000993          	li	s3,0
   10ac4:	00800537          	lui	a0,0x800
   10ac8:	fff50513          	addi	a0,a0,-1 # 7fffff <__global_pointer$+0x7d2e47>
   10acc:	00a47433          	and	s0,s0,a0
   10ad0:	80800537          	lui	a0,0x80800
   10ad4:	fff50513          	addi	a0,a0,-1 # 807fffff <__global_pointer$+0x807d2e47>
   10ad8:	0ff77713          	andi	a4,a4,255
   10adc:	00a47433          	and	s0,s0,a0
   10ae0:	01771713          	slli	a4,a4,0x17
   10ae4:	01f99513          	slli	a0,s3,0x1f
   10ae8:	00e46433          	or	s0,s0,a4
   10aec:	00a46533          	or	a0,s0,a0
   10af0:	02c12083          	lw	ra,44(sp)
   10af4:	02812403          	lw	s0,40(sp)
   10af8:	02412483          	lw	s1,36(sp)
   10afc:	02012903          	lw	s2,32(sp)
   10b00:	01c12983          	lw	s3,28(sp)
   10b04:	01812a03          	lw	s4,24(sp)
   10b08:	01412a83          	lw	s5,20(sp)
   10b0c:	01012b03          	lw	s6,16(sp)
   10b10:	00c12b83          	lw	s7,12(sp)
   10b14:	00812c03          	lw	s8,8(sp)
   10b18:	03010113          	addi	sp,sp,48
   10b1c:	00008067          	ret

00010b20 <__mulsf3>:
   10b20:	fd010113          	addi	sp,sp,-48
   10b24:	02912223          	sw	s1,36(sp)
   10b28:	03212023          	sw	s2,32(sp)
   10b2c:	008004b7          	lui	s1,0x800
   10b30:	01755913          	srli	s2,a0,0x17
   10b34:	01312e23          	sw	s3,28(sp)
   10b38:	01712623          	sw	s7,12(sp)
   10b3c:	fff48493          	addi	s1,s1,-1 # 7fffff <__global_pointer$+0x7d2e47>
   10b40:	02112623          	sw	ra,44(sp)
   10b44:	02812423          	sw	s0,40(sp)
   10b48:	01412c23          	sw	s4,24(sp)
   10b4c:	01512a23          	sw	s5,20(sp)
   10b50:	01612823          	sw	s6,16(sp)
   10b54:	01812423          	sw	s8,8(sp)
   10b58:	01912223          	sw	s9,4(sp)
   10b5c:	0ff97913          	andi	s2,s2,255
   10b60:	00058b93          	mv	s7,a1
   10b64:	00a4f4b3          	and	s1,s1,a0
   10b68:	01f55993          	srli	s3,a0,0x1f
   10b6c:	08090863          	beqz	s2,10bfc <__mulsf3+0xdc>
   10b70:	0ff00793          	li	a5,255
   10b74:	0af90463          	beq	s2,a5,10c1c <__mulsf3+0xfc>
   10b78:	00349493          	slli	s1,s1,0x3
   10b7c:	040007b7          	lui	a5,0x4000
   10b80:	00f4e4b3          	or	s1,s1,a5
   10b84:	f8190913          	addi	s2,s2,-127
   10b88:	00000b13          	li	s6,0
   10b8c:	017bd513          	srli	a0,s7,0x17
   10b90:	00800437          	lui	s0,0x800
   10b94:	fff40413          	addi	s0,s0,-1 # 7fffff <__global_pointer$+0x7d2e47>
   10b98:	0ff57513          	andi	a0,a0,255
   10b9c:	01747433          	and	s0,s0,s7
   10ba0:	01fbdb93          	srli	s7,s7,0x1f
   10ba4:	08050c63          	beqz	a0,10c3c <__mulsf3+0x11c>
   10ba8:	0ff00793          	li	a5,255
   10bac:	0af50863          	beq	a0,a5,10c5c <__mulsf3+0x13c>
   10bb0:	00341413          	slli	s0,s0,0x3
   10bb4:	040007b7          	lui	a5,0x4000
   10bb8:	00f46433          	or	s0,s0,a5
   10bbc:	f8150513          	addi	a0,a0,-127
   10bc0:	00000693          	li	a3,0
   10bc4:	002b1793          	slli	a5,s6,0x2
   10bc8:	00d7e7b3          	or	a5,a5,a3
   10bcc:	00a90933          	add	s2,s2,a0
   10bd0:	fff78793          	addi	a5,a5,-1 # 3ffffff <__global_pointer$+0x3fd2e47>
   10bd4:	00e00713          	li	a4,14
   10bd8:	0179ca33          	xor	s4,s3,s7
   10bdc:	00190a93          	addi	s5,s2,1
   10be0:	08f76e63          	bltu	a4,a5,10c7c <__mulsf3+0x15c>
   10be4:	0002a737          	lui	a4,0x2a
   10be8:	00279793          	slli	a5,a5,0x2
   10bec:	7cc70713          	addi	a4,a4,1996 # 2a7cc <__muldi3+0x138>
   10bf0:	00e787b3          	add	a5,a5,a4
   10bf4:	0007a783          	lw	a5,0(a5)
   10bf8:	00078067          	jr	a5
   10bfc:	02048a63          	beqz	s1,10c30 <__mulsf3+0x110>
   10c00:	00048513          	mv	a0,s1
   10c04:	0e5000ef          	jal	ra,114e8 <__clzsi2>
   10c08:	ffb50793          	addi	a5,a0,-5
   10c0c:	f8a00913          	li	s2,-118
   10c10:	00f494b3          	sll	s1,s1,a5
   10c14:	40a90933          	sub	s2,s2,a0
   10c18:	f71ff06f          	j	10b88 <__mulsf3+0x68>
   10c1c:	0ff00913          	li	s2,255
   10c20:	00200b13          	li	s6,2
   10c24:	f60484e3          	beqz	s1,10b8c <__mulsf3+0x6c>
   10c28:	00300b13          	li	s6,3
   10c2c:	f61ff06f          	j	10b8c <__mulsf3+0x6c>
   10c30:	00000913          	li	s2,0
   10c34:	00100b13          	li	s6,1
   10c38:	f55ff06f          	j	10b8c <__mulsf3+0x6c>
   10c3c:	02040a63          	beqz	s0,10c70 <__mulsf3+0x150>
   10c40:	00040513          	mv	a0,s0
   10c44:	0a5000ef          	jal	ra,114e8 <__clzsi2>
   10c48:	ffb50793          	addi	a5,a0,-5
   10c4c:	00f41433          	sll	s0,s0,a5
   10c50:	f8a00793          	li	a5,-118
   10c54:	40a78533          	sub	a0,a5,a0
   10c58:	f69ff06f          	j	10bc0 <__mulsf3+0xa0>
   10c5c:	0ff00513          	li	a0,255
   10c60:	00200693          	li	a3,2
   10c64:	f60400e3          	beqz	s0,10bc4 <__mulsf3+0xa4>
   10c68:	00300693          	li	a3,3
   10c6c:	f59ff06f          	j	10bc4 <__mulsf3+0xa4>
   10c70:	00000513          	li	a0,0
   10c74:	00100693          	li	a3,1
   10c78:	f4dff06f          	j	10bc4 <__mulsf3+0xa4>
   10c7c:	00010c37          	lui	s8,0x10
   10c80:	fffc0b13          	addi	s6,s8,-1 # ffff <sulp-0x75>
   10c84:	0104db93          	srli	s7,s1,0x10
   10c88:	01045c93          	srli	s9,s0,0x10
   10c8c:	0164f4b3          	and	s1,s1,s6
   10c90:	01647433          	and	s0,s0,s6
   10c94:	00040593          	mv	a1,s0
   10c98:	00048513          	mv	a0,s1
   10c9c:	774000ef          	jal	ra,11410 <__mulsi3>
   10ca0:	00040593          	mv	a1,s0
   10ca4:	00050993          	mv	s3,a0
   10ca8:	000b8513          	mv	a0,s7
   10cac:	764000ef          	jal	ra,11410 <__mulsi3>
   10cb0:	00050413          	mv	s0,a0
   10cb4:	000c8593          	mv	a1,s9
   10cb8:	000b8513          	mv	a0,s7
   10cbc:	754000ef          	jal	ra,11410 <__mulsi3>
   10cc0:	00050b93          	mv	s7,a0
   10cc4:	00048593          	mv	a1,s1
   10cc8:	000c8513          	mv	a0,s9
   10ccc:	744000ef          	jal	ra,11410 <__mulsi3>
   10cd0:	00850533          	add	a0,a0,s0
   10cd4:	0109d793          	srli	a5,s3,0x10
   10cd8:	00a78533          	add	a0,a5,a0
   10cdc:	00857463          	bleu	s0,a0,10ce4 <__mulsf3+0x1c4>
   10ce0:	018b8bb3          	add	s7,s7,s8
   10ce4:	016577b3          	and	a5,a0,s6
   10ce8:	01079793          	slli	a5,a5,0x10
   10cec:	0169f9b3          	and	s3,s3,s6
   10cf0:	013787b3          	add	a5,a5,s3
   10cf4:	00679413          	slli	s0,a5,0x6
   10cf8:	00803433          	snez	s0,s0
   10cfc:	01a7d793          	srli	a5,a5,0x1a
   10d00:	01055513          	srli	a0,a0,0x10
   10d04:	00f467b3          	or	a5,s0,a5
   10d08:	01750433          	add	s0,a0,s7
   10d0c:	00641413          	slli	s0,s0,0x6
   10d10:	00f46433          	or	s0,s0,a5
   10d14:	00441793          	slli	a5,s0,0x4
   10d18:	0e07d663          	bgez	a5,10e04 <__mulsf3+0x2e4>
   10d1c:	00145793          	srli	a5,s0,0x1
   10d20:	00147413          	andi	s0,s0,1
   10d24:	0087e433          	or	s0,a5,s0
   10d28:	07fa8713          	addi	a4,s5,127
   10d2c:	0ee05063          	blez	a4,10e0c <__mulsf3+0x2ec>
   10d30:	00747793          	andi	a5,s0,7
   10d34:	00078a63          	beqz	a5,10d48 <__mulsf3+0x228>
   10d38:	00f47793          	andi	a5,s0,15
   10d3c:	00400693          	li	a3,4
   10d40:	00d78463          	beq	a5,a3,10d48 <__mulsf3+0x228>
   10d44:	00440413          	addi	s0,s0,4
   10d48:	00441793          	slli	a5,s0,0x4
   10d4c:	0007da63          	bgez	a5,10d60 <__mulsf3+0x240>
   10d50:	f80007b7          	lui	a5,0xf8000
   10d54:	fff78793          	addi	a5,a5,-1 # f7ffffff <__global_pointer$+0xf7fd2e47>
   10d58:	00f47433          	and	s0,s0,a5
   10d5c:	080a8713          	addi	a4,s5,128
   10d60:	0fe00793          	li	a5,254
   10d64:	10e7c463          	blt	a5,a4,10e6c <__mulsf3+0x34c>
   10d68:	00345793          	srli	a5,s0,0x3
   10d6c:	0300006f          	j	10d9c <__mulsf3+0x27c>
   10d70:	00098a13          	mv	s4,s3
   10d74:	00048413          	mv	s0,s1
   10d78:	000b0693          	mv	a3,s6
   10d7c:	00200793          	li	a5,2
   10d80:	0ef68663          	beq	a3,a5,10e6c <__mulsf3+0x34c>
   10d84:	00300793          	li	a5,3
   10d88:	0cf68a63          	beq	a3,a5,10e5c <__mulsf3+0x33c>
   10d8c:	00100613          	li	a2,1
   10d90:	00000793          	li	a5,0
   10d94:	00000713          	li	a4,0
   10d98:	f8c698e3          	bne	a3,a2,10d28 <__mulsf3+0x208>
   10d9c:	00800437          	lui	s0,0x800
   10da0:	fff40413          	addi	s0,s0,-1 # 7fffff <__global_pointer$+0x7d2e47>
   10da4:	80800537          	lui	a0,0x80800
   10da8:	0087f7b3          	and	a5,a5,s0
   10dac:	fff50513          	addi	a0,a0,-1 # 807fffff <__global_pointer$+0x807d2e47>
   10db0:	02c12083          	lw	ra,44(sp)
   10db4:	02812403          	lw	s0,40(sp)
   10db8:	0ff77713          	andi	a4,a4,255
   10dbc:	00a7f7b3          	and	a5,a5,a0
   10dc0:	01771713          	slli	a4,a4,0x17
   10dc4:	01fa1513          	slli	a0,s4,0x1f
   10dc8:	00e7e7b3          	or	a5,a5,a4
   10dcc:	02412483          	lw	s1,36(sp)
   10dd0:	02012903          	lw	s2,32(sp)
   10dd4:	01c12983          	lw	s3,28(sp)
   10dd8:	01812a03          	lw	s4,24(sp)
   10ddc:	01412a83          	lw	s5,20(sp)
   10de0:	01012b03          	lw	s6,16(sp)
   10de4:	00c12b83          	lw	s7,12(sp)
   10de8:	00812c03          	lw	s8,8(sp)
   10dec:	00412c83          	lw	s9,4(sp)
   10df0:	00a7e533          	or	a0,a5,a0
   10df4:	03010113          	addi	sp,sp,48
   10df8:	00008067          	ret
   10dfc:	000b8a13          	mv	s4,s7
   10e00:	f7dff06f          	j	10d7c <__mulsf3+0x25c>
   10e04:	00090a93          	mv	s5,s2
   10e08:	f21ff06f          	j	10d28 <__mulsf3+0x208>
   10e0c:	00100793          	li	a5,1
   10e10:	40e787b3          	sub	a5,a5,a4
   10e14:	01b00713          	li	a4,27
   10e18:	06f74063          	blt	a4,a5,10e78 <__mulsf3+0x358>
   10e1c:	09ea8a93          	addi	s5,s5,158
   10e20:	00f457b3          	srl	a5,s0,a5
   10e24:	01541433          	sll	s0,s0,s5
   10e28:	00803433          	snez	s0,s0
   10e2c:	0087e433          	or	s0,a5,s0
   10e30:	00747793          	andi	a5,s0,7
   10e34:	00078a63          	beqz	a5,10e48 <__mulsf3+0x328>
   10e38:	00f47793          	andi	a5,s0,15
   10e3c:	00400713          	li	a4,4
   10e40:	00e78463          	beq	a5,a4,10e48 <__mulsf3+0x328>
   10e44:	00440413          	addi	s0,s0,4
   10e48:	00541793          	slli	a5,s0,0x5
   10e4c:	0207ca63          	bltz	a5,10e80 <__mulsf3+0x360>
   10e50:	00345793          	srli	a5,s0,0x3
   10e54:	00000713          	li	a4,0
   10e58:	f45ff06f          	j	10d9c <__mulsf3+0x27c>
   10e5c:	004007b7          	lui	a5,0x400
   10e60:	0ff00713          	li	a4,255
   10e64:	00000a13          	li	s4,0
   10e68:	f35ff06f          	j	10d9c <__mulsf3+0x27c>
   10e6c:	00000793          	li	a5,0
   10e70:	0ff00713          	li	a4,255
   10e74:	f29ff06f          	j	10d9c <__mulsf3+0x27c>
   10e78:	00000793          	li	a5,0
   10e7c:	fd9ff06f          	j	10e54 <__mulsf3+0x334>
   10e80:	00000793          	li	a5,0
   10e84:	00100713          	li	a4,1
   10e88:	f15ff06f          	j	10d9c <__mulsf3+0x27c>

00010e8c <__subsf3>:
   10e8c:	008007b7          	lui	a5,0x800
   10e90:	fff78793          	addi	a5,a5,-1 # 7fffff <__global_pointer$+0x7d2e47>
   10e94:	ff010113          	addi	sp,sp,-16
   10e98:	00a7f733          	and	a4,a5,a0
   10e9c:	01755693          	srli	a3,a0,0x17
   10ea0:	0175d613          	srli	a2,a1,0x17
   10ea4:	00b7f7b3          	and	a5,a5,a1
   10ea8:	00912223          	sw	s1,4(sp)
   10eac:	01212023          	sw	s2,0(sp)
   10eb0:	0ff6f693          	andi	a3,a3,255
   10eb4:	00371813          	slli	a6,a4,0x3
   10eb8:	0ff67613          	andi	a2,a2,255
   10ebc:	00112623          	sw	ra,12(sp)
   10ec0:	00812423          	sw	s0,8(sp)
   10ec4:	0ff00713          	li	a4,255
   10ec8:	01f55493          	srli	s1,a0,0x1f
   10ecc:	00068913          	mv	s2,a3
   10ed0:	00060513          	mv	a0,a2
   10ed4:	01f5d593          	srli	a1,a1,0x1f
   10ed8:	00379793          	slli	a5,a5,0x3
   10edc:	00e61463          	bne	a2,a4,10ee4 <__subsf3+0x58>
   10ee0:	00079463          	bnez	a5,10ee8 <__subsf3+0x5c>
   10ee4:	0015c593          	xori	a1,a1,1
   10ee8:	40c68733          	sub	a4,a3,a2
   10eec:	1a959a63          	bne	a1,s1,110a0 <__subsf3+0x214>
   10ef0:	0ae05663          	blez	a4,10f9c <__subsf3+0x110>
   10ef4:	06061663          	bnez	a2,10f60 <__subsf3+0xd4>
   10ef8:	00079c63          	bnez	a5,10f10 <__subsf3+0x84>
   10efc:	0ff00793          	li	a5,255
   10f00:	04f68c63          	beq	a3,a5,10f58 <__subsf3+0xcc>
   10f04:	00080793          	mv	a5,a6
   10f08:	00068513          	mv	a0,a3
   10f0c:	14c0006f          	j	11058 <__subsf3+0x1cc>
   10f10:	fff70713          	addi	a4,a4,-1
   10f14:	02071e63          	bnez	a4,10f50 <__subsf3+0xc4>
   10f18:	010787b3          	add	a5,a5,a6
   10f1c:	00068513          	mv	a0,a3
   10f20:	00579713          	slli	a4,a5,0x5
   10f24:	12075a63          	bgez	a4,11058 <__subsf3+0x1cc>
   10f28:	00150513          	addi	a0,a0,1
   10f2c:	0ff00713          	li	a4,255
   10f30:	32e50e63          	beq	a0,a4,1126c <__subsf3+0x3e0>
   10f34:	7e000737          	lui	a4,0x7e000
   10f38:	0017f693          	andi	a3,a5,1
   10f3c:	fff70713          	addi	a4,a4,-1 # 7dffffff <__global_pointer$+0x7dfd2e47>
   10f40:	0017d793          	srli	a5,a5,0x1
   10f44:	00e7f7b3          	and	a5,a5,a4
   10f48:	00d7e7b3          	or	a5,a5,a3
   10f4c:	10c0006f          	j	11058 <__subsf3+0x1cc>
   10f50:	0ff00613          	li	a2,255
   10f54:	00c69e63          	bne	a3,a2,10f70 <__subsf3+0xe4>
   10f58:	00080793          	mv	a5,a6
   10f5c:	0740006f          	j	10fd0 <__subsf3+0x144>
   10f60:	0ff00613          	li	a2,255
   10f64:	fec68ae3          	beq	a3,a2,10f58 <__subsf3+0xcc>
   10f68:	04000637          	lui	a2,0x4000
   10f6c:	00c7e7b3          	or	a5,a5,a2
   10f70:	01b00613          	li	a2,27
   10f74:	00e65663          	ble	a4,a2,10f80 <__subsf3+0xf4>
   10f78:	00100793          	li	a5,1
   10f7c:	f9dff06f          	j	10f18 <__subsf3+0x8c>
   10f80:	02000613          	li	a2,32
   10f84:	40e60633          	sub	a2,a2,a4
   10f88:	00e7d5b3          	srl	a1,a5,a4
   10f8c:	00c797b3          	sll	a5,a5,a2
   10f90:	00f037b3          	snez	a5,a5
   10f94:	00f5e7b3          	or	a5,a1,a5
   10f98:	f81ff06f          	j	10f18 <__subsf3+0x8c>
   10f9c:	08070063          	beqz	a4,1101c <__subsf3+0x190>
   10fa0:	02069c63          	bnez	a3,10fd8 <__subsf3+0x14c>
   10fa4:	00081863          	bnez	a6,10fb4 <__subsf3+0x128>
   10fa8:	0ff00713          	li	a4,255
   10fac:	0ae61663          	bne	a2,a4,11058 <__subsf3+0x1cc>
   10fb0:	0200006f          	j	10fd0 <__subsf3+0x144>
   10fb4:	fff00693          	li	a3,-1
   10fb8:	00d71663          	bne	a4,a3,10fc4 <__subsf3+0x138>
   10fbc:	010787b3          	add	a5,a5,a6
   10fc0:	f61ff06f          	j	10f20 <__subsf3+0x94>
   10fc4:	0ff00693          	li	a3,255
   10fc8:	fff74713          	not	a4,a4
   10fcc:	02d61063          	bne	a2,a3,10fec <__subsf3+0x160>
   10fd0:	0ff00513          	li	a0,255
   10fd4:	0840006f          	j	11058 <__subsf3+0x1cc>
   10fd8:	0ff00693          	li	a3,255
   10fdc:	fed60ae3          	beq	a2,a3,10fd0 <__subsf3+0x144>
   10fe0:	040006b7          	lui	a3,0x4000
   10fe4:	40e00733          	neg	a4,a4
   10fe8:	00d86833          	or	a6,a6,a3
   10fec:	01b00693          	li	a3,27
   10ff0:	00e6d663          	ble	a4,a3,10ffc <__subsf3+0x170>
   10ff4:	00100713          	li	a4,1
   10ff8:	01c0006f          	j	11014 <__subsf3+0x188>
   10ffc:	02000693          	li	a3,32
   11000:	00e85633          	srl	a2,a6,a4
   11004:	40e68733          	sub	a4,a3,a4
   11008:	00e81733          	sll	a4,a6,a4
   1100c:	00e03733          	snez	a4,a4
   11010:	00e66733          	or	a4,a2,a4
   11014:	00e787b3          	add	a5,a5,a4
   11018:	f09ff06f          	j	10f20 <__subsf3+0x94>
   1101c:	00168513          	addi	a0,a3,1 # 4000001 <__global_pointer$+0x3fd2e49>
   11020:	0ff57613          	andi	a2,a0,255
   11024:	00100713          	li	a4,1
   11028:	06c74263          	blt	a4,a2,1108c <__subsf3+0x200>
   1102c:	04069463          	bnez	a3,11074 <__subsf3+0x1e8>
   11030:	00000513          	li	a0,0
   11034:	02080263          	beqz	a6,11058 <__subsf3+0x1cc>
   11038:	22078663          	beqz	a5,11264 <__subsf3+0x3d8>
   1103c:	010787b3          	add	a5,a5,a6
   11040:	00579713          	slli	a4,a5,0x5
   11044:	00075a63          	bgez	a4,11058 <__subsf3+0x1cc>
   11048:	fc000737          	lui	a4,0xfc000
   1104c:	fff70713          	addi	a4,a4,-1 # fbffffff <__global_pointer$+0xfbfd2e47>
   11050:	00e7f7b3          	and	a5,a5,a4
   11054:	00100513          	li	a0,1
   11058:	0077f713          	andi	a4,a5,7
   1105c:	20070a63          	beqz	a4,11270 <__subsf3+0x3e4>
   11060:	00f7f713          	andi	a4,a5,15
   11064:	00400693          	li	a3,4
   11068:	20d70463          	beq	a4,a3,11270 <__subsf3+0x3e4>
   1106c:	00478793          	addi	a5,a5,4
   11070:	2000006f          	j	11270 <__subsf3+0x3e4>
   11074:	f4080ee3          	beqz	a6,10fd0 <__subsf3+0x144>
   11078:	ee0780e3          	beqz	a5,10f58 <__subsf3+0xcc>
   1107c:	020007b7          	lui	a5,0x2000
   11080:	0ff00513          	li	a0,255
   11084:	00000493          	li	s1,0
   11088:	1e80006f          	j	11270 <__subsf3+0x3e4>
   1108c:	0ff00713          	li	a4,255
   11090:	1ce50e63          	beq	a0,a4,1126c <__subsf3+0x3e0>
   11094:	00f80733          	add	a4,a6,a5
   11098:	00175793          	srli	a5,a4,0x1
   1109c:	fbdff06f          	j	11058 <__subsf3+0x1cc>
   110a0:	08e05063          	blez	a4,11120 <__subsf3+0x294>
   110a4:	04061663          	bnez	a2,110f0 <__subsf3+0x264>
   110a8:	e4078ae3          	beqz	a5,10efc <__subsf3+0x70>
   110ac:	fff70713          	addi	a4,a4,-1
   110b0:	02071463          	bnez	a4,110d8 <__subsf3+0x24c>
   110b4:	40f807b3          	sub	a5,a6,a5
   110b8:	00068513          	mv	a0,a3
   110bc:	00579713          	slli	a4,a5,0x5
   110c0:	f8075ce3          	bgez	a4,11058 <__subsf3+0x1cc>
   110c4:	04000437          	lui	s0,0x4000
   110c8:	fff40413          	addi	s0,s0,-1 # 3ffffff <__global_pointer$+0x3fd2e47>
   110cc:	0087f433          	and	s0,a5,s0
   110d0:	00050913          	mv	s2,a0
   110d4:	1380006f          	j	1120c <__subsf3+0x380>
   110d8:	0ff00613          	li	a2,255
   110dc:	e6c68ee3          	beq	a3,a2,10f58 <__subsf3+0xcc>
   110e0:	01b00613          	li	a2,27
   110e4:	02e65063          	ble	a4,a2,11104 <__subsf3+0x278>
   110e8:	00100793          	li	a5,1
   110ec:	fc9ff06f          	j	110b4 <__subsf3+0x228>
   110f0:	0ff00613          	li	a2,255
   110f4:	e6c682e3          	beq	a3,a2,10f58 <__subsf3+0xcc>
   110f8:	04000637          	lui	a2,0x4000
   110fc:	00c7e7b3          	or	a5,a5,a2
   11100:	fe1ff06f          	j	110e0 <__subsf3+0x254>
   11104:	02000613          	li	a2,32
   11108:	00e7d5b3          	srl	a1,a5,a4
   1110c:	40e60733          	sub	a4,a2,a4
   11110:	00e797b3          	sll	a5,a5,a4
   11114:	00f037b3          	snez	a5,a5
   11118:	00f5e7b3          	or	a5,a1,a5
   1111c:	f99ff06f          	j	110b4 <__subsf3+0x228>
   11120:	08070263          	beqz	a4,111a4 <__subsf3+0x318>
   11124:	02069e63          	bnez	a3,11160 <__subsf3+0x2d4>
   11128:	00081863          	bnez	a6,11138 <__subsf3+0x2ac>
   1112c:	0ff00713          	li	a4,255
   11130:	00058493          	mv	s1,a1
   11134:	e79ff06f          	j	10fac <__subsf3+0x120>
   11138:	fff00693          	li	a3,-1
   1113c:	00d71863          	bne	a4,a3,1114c <__subsf3+0x2c0>
   11140:	410787b3          	sub	a5,a5,a6
   11144:	00058493          	mv	s1,a1
   11148:	f75ff06f          	j	110bc <__subsf3+0x230>
   1114c:	0ff00693          	li	a3,255
   11150:	fff74713          	not	a4,a4
   11154:	02d61063          	bne	a2,a3,11174 <__subsf3+0x2e8>
   11158:	00058493          	mv	s1,a1
   1115c:	e75ff06f          	j	10fd0 <__subsf3+0x144>
   11160:	0ff00693          	li	a3,255
   11164:	fed60ae3          	beq	a2,a3,11158 <__subsf3+0x2cc>
   11168:	040006b7          	lui	a3,0x4000
   1116c:	40e00733          	neg	a4,a4
   11170:	00d86833          	or	a6,a6,a3
   11174:	01b00693          	li	a3,27
   11178:	00e6d663          	ble	a4,a3,11184 <__subsf3+0x2f8>
   1117c:	00100713          	li	a4,1
   11180:	01c0006f          	j	1119c <__subsf3+0x310>
   11184:	02000693          	li	a3,32
   11188:	00e85633          	srl	a2,a6,a4
   1118c:	40e68733          	sub	a4,a3,a4
   11190:	00e81733          	sll	a4,a6,a4
   11194:	00e03733          	snez	a4,a4
   11198:	00e66733          	or	a4,a2,a4
   1119c:	40e787b3          	sub	a5,a5,a4
   111a0:	fa5ff06f          	j	11144 <__subsf3+0x2b8>
   111a4:	00168713          	addi	a4,a3,1 # 4000001 <__global_pointer$+0x3fd2e49>
   111a8:	0ff77713          	andi	a4,a4,255
   111ac:	00100613          	li	a2,1
   111b0:	04e64463          	blt	a2,a4,111f8 <__subsf3+0x36c>
   111b4:	02069c63          	bnez	a3,111ec <__subsf3+0x360>
   111b8:	00081863          	bnez	a6,111c8 <__subsf3+0x33c>
   111bc:	12079863          	bnez	a5,112ec <__subsf3+0x460>
   111c0:	00000513          	li	a0,0
   111c4:	ec1ff06f          	j	11084 <__subsf3+0x1f8>
   111c8:	12078663          	beqz	a5,112f4 <__subsf3+0x468>
   111cc:	40f80733          	sub	a4,a6,a5
   111d0:	00571693          	slli	a3,a4,0x5
   111d4:	410787b3          	sub	a5,a5,a6
   111d8:	1006ca63          	bltz	a3,112ec <__subsf3+0x460>
   111dc:	00070793          	mv	a5,a4
   111e0:	06071063          	bnez	a4,11240 <__subsf3+0x3b4>
   111e4:	00000793          	li	a5,0
   111e8:	fd9ff06f          	j	111c0 <__subsf3+0x334>
   111ec:	e80816e3          	bnez	a6,11078 <__subsf3+0x1ec>
   111f0:	f60794e3          	bnez	a5,11158 <__subsf3+0x2cc>
   111f4:	e89ff06f          	j	1107c <__subsf3+0x1f0>
   111f8:	40f80433          	sub	s0,a6,a5
   111fc:	00541713          	slli	a4,s0,0x5
   11200:	04075463          	bgez	a4,11248 <__subsf3+0x3bc>
   11204:	41078433          	sub	s0,a5,a6
   11208:	00058493          	mv	s1,a1
   1120c:	00040513          	mv	a0,s0
   11210:	2d8000ef          	jal	ra,114e8 <__clzsi2>
   11214:	ffb50513          	addi	a0,a0,-5
   11218:	00a41433          	sll	s0,s0,a0
   1121c:	03254a63          	blt	a0,s2,11250 <__subsf3+0x3c4>
   11220:	41250533          	sub	a0,a0,s2
   11224:	00150513          	addi	a0,a0,1
   11228:	02000713          	li	a4,32
   1122c:	00a457b3          	srl	a5,s0,a0
   11230:	40a70533          	sub	a0,a4,a0
   11234:	00a41433          	sll	s0,s0,a0
   11238:	00803433          	snez	s0,s0
   1123c:	0087e7b3          	or	a5,a5,s0
   11240:	00000513          	li	a0,0
   11244:	e15ff06f          	j	11058 <__subsf3+0x1cc>
   11248:	f8040ee3          	beqz	s0,111e4 <__subsf3+0x358>
   1124c:	fc1ff06f          	j	1120c <__subsf3+0x380>
   11250:	fc0007b7          	lui	a5,0xfc000
   11254:	fff78793          	addi	a5,a5,-1 # fbffffff <__global_pointer$+0xfbfd2e47>
   11258:	40a90533          	sub	a0,s2,a0
   1125c:	00f477b3          	and	a5,s0,a5
   11260:	df9ff06f          	j	11058 <__subsf3+0x1cc>
   11264:	00080793          	mv	a5,a6
   11268:	df1ff06f          	j	11058 <__subsf3+0x1cc>
   1126c:	00000793          	li	a5,0
   11270:	00579713          	slli	a4,a5,0x5
   11274:	00075e63          	bgez	a4,11290 <__subsf3+0x404>
   11278:	00150513          	addi	a0,a0,1
   1127c:	0ff00713          	li	a4,255
   11280:	06e50e63          	beq	a0,a4,112fc <__subsf3+0x470>
   11284:	fc000737          	lui	a4,0xfc000
   11288:	fff70713          	addi	a4,a4,-1 # fbffffff <__global_pointer$+0xfbfd2e47>
   1128c:	00e7f7b3          	and	a5,a5,a4
   11290:	0ff00713          	li	a4,255
   11294:	0037d793          	srli	a5,a5,0x3
   11298:	00e51863          	bne	a0,a4,112a8 <__subsf3+0x41c>
   1129c:	00078663          	beqz	a5,112a8 <__subsf3+0x41c>
   112a0:	004007b7          	lui	a5,0x400
   112a4:	00000493          	li	s1,0
   112a8:	00800737          	lui	a4,0x800
   112ac:	fff70713          	addi	a4,a4,-1 # 7fffff <__global_pointer$+0x7d2e47>
   112b0:	0ff57513          	andi	a0,a0,255
   112b4:	00e7f7b3          	and	a5,a5,a4
   112b8:	01751713          	slli	a4,a0,0x17
   112bc:	80800537          	lui	a0,0x80800
   112c0:	00c12083          	lw	ra,12(sp)
   112c4:	00812403          	lw	s0,8(sp)
   112c8:	fff50513          	addi	a0,a0,-1 # 807fffff <__global_pointer$+0x807d2e47>
   112cc:	00a7f533          	and	a0,a5,a0
   112d0:	01f49493          	slli	s1,s1,0x1f
   112d4:	00e56533          	or	a0,a0,a4
   112d8:	00956533          	or	a0,a0,s1
   112dc:	00012903          	lw	s2,0(sp)
   112e0:	00412483          	lw	s1,4(sp)
   112e4:	01010113          	addi	sp,sp,16
   112e8:	00008067          	ret
   112ec:	00058493          	mv	s1,a1
   112f0:	f51ff06f          	j	11240 <__subsf3+0x3b4>
   112f4:	00080793          	mv	a5,a6
   112f8:	f49ff06f          	j	11240 <__subsf3+0x3b4>
   112fc:	00000793          	li	a5,0
   11300:	f91ff06f          	j	11290 <__subsf3+0x404>

00011304 <__extendsfdf2>:
   11304:	01755793          	srli	a5,a0,0x17
   11308:	ff010113          	addi	sp,sp,-16
   1130c:	0ff7f793          	andi	a5,a5,255
   11310:	00812423          	sw	s0,8(sp)
   11314:	00178713          	addi	a4,a5,1 # 400001 <__global_pointer$+0x3d2e49>
   11318:	00800437          	lui	s0,0x800
   1131c:	00912223          	sw	s1,4(sp)
   11320:	fff40413          	addi	s0,s0,-1 # 7fffff <__global_pointer$+0x7d2e47>
   11324:	00112623          	sw	ra,12(sp)
   11328:	0ff77713          	andi	a4,a4,255
   1132c:	00100693          	li	a3,1
   11330:	00a47433          	and	s0,s0,a0
   11334:	01f55493          	srli	s1,a0,0x1f
   11338:	06e6d263          	ble	a4,a3,1139c <__extendsfdf2+0x98>
   1133c:	38078513          	addi	a0,a5,896
   11340:	00345793          	srli	a5,s0,0x3
   11344:	01d41413          	slli	s0,s0,0x1d
   11348:	00100737          	lui	a4,0x100
   1134c:	fff70713          	addi	a4,a4,-1 # fffff <__global_pointer$+0xd2e47>
   11350:	00e7f7b3          	and	a5,a5,a4
   11354:	80100737          	lui	a4,0x80100
   11358:	fff70713          	addi	a4,a4,-1 # 800fffff <__global_pointer$+0x800d2e47>
   1135c:	7ff57513          	andi	a0,a0,2047
   11360:	01451513          	slli	a0,a0,0x14
   11364:	00e7f7b3          	and	a5,a5,a4
   11368:	80000737          	lui	a4,0x80000
   1136c:	00a7e7b3          	or	a5,a5,a0
   11370:	fff74713          	not	a4,a4
   11374:	01f49513          	slli	a0,s1,0x1f
   11378:	00e7f7b3          	and	a5,a5,a4
   1137c:	00a7e733          	or	a4,a5,a0
   11380:	00c12083          	lw	ra,12(sp)
   11384:	00040513          	mv	a0,s0
   11388:	00812403          	lw	s0,8(sp)
   1138c:	00412483          	lw	s1,4(sp)
   11390:	00070593          	mv	a1,a4
   11394:	01010113          	addi	sp,sp,16
   11398:	00008067          	ret
   1139c:	04079463          	bnez	a5,113e4 <__extendsfdf2+0xe0>
   113a0:	06040263          	beqz	s0,11404 <__extendsfdf2+0x100>
   113a4:	00040513          	mv	a0,s0
   113a8:	140000ef          	jal	ra,114e8 <__clzsi2>
   113ac:	00a00793          	li	a5,10
   113b0:	02a7c263          	blt	a5,a0,113d4 <__extendsfdf2+0xd0>
   113b4:	00b00793          	li	a5,11
   113b8:	40a787b3          	sub	a5,a5,a0
   113bc:	01550713          	addi	a4,a0,21
   113c0:	00f457b3          	srl	a5,s0,a5
   113c4:	00e41433          	sll	s0,s0,a4
   113c8:	38900713          	li	a4,905
   113cc:	40a70533          	sub	a0,a4,a0
   113d0:	f79ff06f          	j	11348 <__extendsfdf2+0x44>
   113d4:	ff550793          	addi	a5,a0,-11
   113d8:	00f417b3          	sll	a5,s0,a5
   113dc:	00000413          	li	s0,0
   113e0:	fe9ff06f          	j	113c8 <__extendsfdf2+0xc4>
   113e4:	00000793          	li	a5,0
   113e8:	00040a63          	beqz	s0,113fc <__extendsfdf2+0xf8>
   113ec:	00345793          	srli	a5,s0,0x3
   113f0:	00080737          	lui	a4,0x80
   113f4:	01d41413          	slli	s0,s0,0x1d
   113f8:	00e7e7b3          	or	a5,a5,a4
   113fc:	7ff00513          	li	a0,2047
   11400:	f49ff06f          	j	11348 <__extendsfdf2+0x44>
   11404:	00000793          	li	a5,0
   11408:	00000513          	li	a0,0
   1140c:	f3dff06f          	j	11348 <__extendsfdf2+0x44>

00011410 <__mulsi3>:
   11410:	00050613          	mv	a2,a0
   11414:	00000513          	li	a0,0
   11418:	0015f693          	andi	a3,a1,1
   1141c:	00068463          	beqz	a3,11424 <__mulsi3+0x14>
   11420:	00c50533          	add	a0,a0,a2
   11424:	0015d593          	srli	a1,a1,0x1
   11428:	00161613          	slli	a2,a2,0x1
   1142c:	fe0596e3          	bnez	a1,11418 <__mulsi3+0x8>
   11430:	00008067          	ret

00011434 <__divsi3>:
   11434:	06054063          	bltz	a0,11494 <__umodsi3+0x10>
   11438:	0605c663          	bltz	a1,114a4 <__umodsi3+0x20>

0001143c <__udivsi3>:
   1143c:	00058613          	mv	a2,a1
   11440:	00050593          	mv	a1,a0
   11444:	fff00513          	li	a0,-1
   11448:	02060c63          	beqz	a2,11480 <__udivsi3+0x44>
   1144c:	00100693          	li	a3,1
   11450:	00b67a63          	bleu	a1,a2,11464 <__udivsi3+0x28>
   11454:	00c05863          	blez	a2,11464 <__udivsi3+0x28>
   11458:	00161613          	slli	a2,a2,0x1
   1145c:	00169693          	slli	a3,a3,0x1
   11460:	feb66ae3          	bltu	a2,a1,11454 <__udivsi3+0x18>
   11464:	00000513          	li	a0,0
   11468:	00c5e663          	bltu	a1,a2,11474 <__udivsi3+0x38>
   1146c:	40c585b3          	sub	a1,a1,a2
   11470:	00d56533          	or	a0,a0,a3
   11474:	0016d693          	srli	a3,a3,0x1
   11478:	00165613          	srli	a2,a2,0x1
   1147c:	fe0696e3          	bnez	a3,11468 <__udivsi3+0x2c>
   11480:	00008067          	ret

00011484 <__umodsi3>:
   11484:	00008293          	mv	t0,ra
   11488:	fb5ff0ef          	jal	ra,1143c <__udivsi3>
   1148c:	00058513          	mv	a0,a1
   11490:	00028067          	jr	t0
   11494:	40a00533          	neg	a0,a0
   11498:	0005d863          	bgez	a1,114a8 <__umodsi3+0x24>
   1149c:	40b005b3          	neg	a1,a1
   114a0:	f9dff06f          	j	1143c <__udivsi3>
   114a4:	40b005b3          	neg	a1,a1
   114a8:	00008293          	mv	t0,ra
   114ac:	f91ff0ef          	jal	ra,1143c <__udivsi3>
   114b0:	40a00533          	neg	a0,a0
   114b4:	00028067          	jr	t0

000114b8 <__modsi3>:
   114b8:	00008293          	mv	t0,ra
   114bc:	0005ca63          	bltz	a1,114d0 <__modsi3+0x18>
   114c0:	00054c63          	bltz	a0,114d8 <__modsi3+0x20>
   114c4:	f79ff0ef          	jal	ra,1143c <__udivsi3>
   114c8:	00058513          	mv	a0,a1
   114cc:	00028067          	jr	t0
   114d0:	40b005b3          	neg	a1,a1
   114d4:	fe0558e3          	bgez	a0,114c4 <__modsi3+0xc>
   114d8:	40a00533          	neg	a0,a0
   114dc:	f61ff0ef          	jal	ra,1143c <__udivsi3>
   114e0:	40b00533          	neg	a0,a1
   114e4:	00028067          	jr	t0

000114e8 <__clzsi2>:
   114e8:	000107b7          	lui	a5,0x10
   114ec:	02f57a63          	bleu	a5,a0,11520 <__clzsi2+0x38>
   114f0:	0ff00793          	li	a5,255
   114f4:	00a7b7b3          	sltu	a5,a5,a0
   114f8:	00379793          	slli	a5,a5,0x3
   114fc:	02000713          	li	a4,32
   11500:	40f70733          	sub	a4,a4,a5
   11504:	00f557b3          	srl	a5,a0,a5
   11508:	0002b537          	lui	a0,0x2b
   1150c:	80850513          	addi	a0,a0,-2040 # 2a808 <__clz_tab>
   11510:	00a787b3          	add	a5,a5,a0
   11514:	0007c503          	lbu	a0,0(a5) # 10000 <sulp-0x74>
   11518:	40a70533          	sub	a0,a4,a0
   1151c:	00008067          	ret
   11520:	01000737          	lui	a4,0x1000
   11524:	01000793          	li	a5,16
   11528:	fce56ae3          	bltu	a0,a4,114fc <__clzsi2+0x14>
   1152c:	01800793          	li	a5,24
   11530:	fcdff06f          	j	114fc <__clzsi2+0x14>

00011534 <atexit>:
   11534:	00050593          	mv	a1,a0
   11538:	00000693          	li	a3,0
   1153c:	00000613          	li	a2,0
   11540:	00000513          	li	a0,0
   11544:	2550306f          	j	14f98 <__register_exitproc>

00011548 <exit>:
   11548:	ff010113          	addi	sp,sp,-16
   1154c:	00000593          	li	a1,0
   11550:	00812423          	sw	s0,8(sp)
   11554:	00112623          	sw	ra,12(sp)
   11558:	00050413          	mv	s0,a0
   1155c:	2b9030ef          	jal	ra,15014 <__call_exitprocs>
   11560:	8641a503          	lw	a0,-1948(gp) # 2ca1c <_global_impure_ptr>
   11564:	03c52783          	lw	a5,60(a0)
   11568:	00078463          	beqz	a5,11570 <exit+0x28>
   1156c:	000780e7          	jalr	a5
   11570:	00040513          	mv	a0,s0
   11574:	1d9120ef          	jal	ra,23f4c <_exit>

00011578 <__libc_fini_array>:
   11578:	ff010113          	addi	sp,sp,-16
   1157c:	0002c7b7          	lui	a5,0x2c
   11580:	0002c737          	lui	a4,0x2c
   11584:	00812423          	sw	s0,8(sp)
   11588:	00470713          	addi	a4,a4,4 # 2c004 <__init_array_end>
   1158c:	00878413          	addi	s0,a5,8 # 2c008 <__fini_array_end>
   11590:	40e40433          	sub	s0,s0,a4
   11594:	00912223          	sw	s1,4(sp)
   11598:	01212023          	sw	s2,0(sp)
   1159c:	00112623          	sw	ra,12(sp)
   115a0:	40245413          	srai	s0,s0,0x2
   115a4:	00000493          	li	s1,0
   115a8:	00878913          	addi	s2,a5,8
   115ac:	00941e63          	bne	s0,s1,115c8 <__libc_fini_array+0x50>
   115b0:	00812403          	lw	s0,8(sp)
   115b4:	00c12083          	lw	ra,12(sp)
   115b8:	00412483          	lw	s1,4(sp)
   115bc:	00012903          	lw	s2,0(sp)
   115c0:	01010113          	addi	sp,sp,16
   115c4:	c7dfe06f          	j	10240 <_fini>
   115c8:	ffc00593          	li	a1,-4
   115cc:	00048513          	mv	a0,s1
   115d0:	e41ff0ef          	jal	ra,11410 <__mulsi3>
   115d4:	00a90533          	add	a0,s2,a0
   115d8:	ffc52783          	lw	a5,-4(a0)
   115dc:	00148493          	addi	s1,s1,1
   115e0:	000780e7          	jalr	a5
   115e4:	fc9ff06f          	j	115ac <__libc_fini_array+0x34>

000115e8 <__libc_init_array>:
   115e8:	ff010113          	addi	sp,sp,-16
   115ec:	00812423          	sw	s0,8(sp)
   115f0:	00912223          	sw	s1,4(sp)
   115f4:	0002c437          	lui	s0,0x2c
   115f8:	0002c4b7          	lui	s1,0x2c
   115fc:	00048793          	mv	a5,s1
   11600:	00040413          	mv	s0,s0
   11604:	40f40433          	sub	s0,s0,a5
   11608:	01212023          	sw	s2,0(sp)
   1160c:	00112623          	sw	ra,12(sp)
   11610:	40245413          	srai	s0,s0,0x2
   11614:	00048493          	mv	s1,s1
   11618:	00000913          	li	s2,0
   1161c:	04891263          	bne	s2,s0,11660 <__libc_init_array+0x78>
   11620:	0002c4b7          	lui	s1,0x2c
   11624:	c1dfe0ef          	jal	ra,10240 <_fini>
   11628:	0002c437          	lui	s0,0x2c
   1162c:	00048793          	mv	a5,s1
   11630:	00440413          	addi	s0,s0,4 # 2c004 <__init_array_end>
   11634:	40f40433          	sub	s0,s0,a5
   11638:	40245413          	srai	s0,s0,0x2
   1163c:	00048493          	mv	s1,s1
   11640:	00000913          	li	s2,0
   11644:	02891863          	bne	s2,s0,11674 <__libc_init_array+0x8c>
   11648:	00c12083          	lw	ra,12(sp)
   1164c:	00812403          	lw	s0,8(sp)
   11650:	00412483          	lw	s1,4(sp)
   11654:	00012903          	lw	s2,0(sp)
   11658:	01010113          	addi	sp,sp,16
   1165c:	00008067          	ret
   11660:	0004a783          	lw	a5,0(s1) # 2c000 <__frame_dummy_init_array_entry>
   11664:	00190913          	addi	s2,s2,1
   11668:	00448493          	addi	s1,s1,4
   1166c:	000780e7          	jalr	a5
   11670:	fadff06f          	j	1161c <__libc_init_array+0x34>
   11674:	0004a783          	lw	a5,0(s1)
   11678:	00190913          	addi	s2,s2,1
   1167c:	00448493          	addi	s1,s1,4
   11680:	000780e7          	jalr	a5
   11684:	fc1ff06f          	j	11644 <__libc_init_array+0x5c>

00011688 <memset>:
   11688:	00f00813          	li	a6,15
   1168c:	00050713          	mv	a4,a0
   11690:	02c87e63          	bleu	a2,a6,116cc <memset+0x44>
   11694:	00f77793          	andi	a5,a4,15
   11698:	0a079063          	bnez	a5,11738 <memset+0xb0>
   1169c:	08059263          	bnez	a1,11720 <memset+0x98>
   116a0:	ff067693          	andi	a3,a2,-16
   116a4:	00f67613          	andi	a2,a2,15
   116a8:	00e686b3          	add	a3,a3,a4
   116ac:	00b72023          	sw	a1,0(a4)
   116b0:	00b72223          	sw	a1,4(a4)
   116b4:	00b72423          	sw	a1,8(a4)
   116b8:	00b72623          	sw	a1,12(a4)
   116bc:	01070713          	addi	a4,a4,16
   116c0:	fed766e3          	bltu	a4,a3,116ac <memset+0x24>
   116c4:	00061463          	bnez	a2,116cc <memset+0x44>
   116c8:	00008067          	ret
   116cc:	40c806b3          	sub	a3,a6,a2
   116d0:	00269693          	slli	a3,a3,0x2
   116d4:	00000297          	auipc	t0,0x0
   116d8:	005686b3          	add	a3,a3,t0
   116dc:	00c68067          	jr	12(a3)
   116e0:	00b70723          	sb	a1,14(a4)
   116e4:	00b706a3          	sb	a1,13(a4)
   116e8:	00b70623          	sb	a1,12(a4)
   116ec:	00b705a3          	sb	a1,11(a4)
   116f0:	00b70523          	sb	a1,10(a4)
   116f4:	00b704a3          	sb	a1,9(a4)
   116f8:	00b70423          	sb	a1,8(a4)
   116fc:	00b703a3          	sb	a1,7(a4)
   11700:	00b70323          	sb	a1,6(a4)
   11704:	00b702a3          	sb	a1,5(a4)
   11708:	00b70223          	sb	a1,4(a4)
   1170c:	00b701a3          	sb	a1,3(a4)
   11710:	00b70123          	sb	a1,2(a4)
   11714:	00b700a3          	sb	a1,1(a4)
   11718:	00b70023          	sb	a1,0(a4)
   1171c:	00008067          	ret
   11720:	0ff5f593          	andi	a1,a1,255
   11724:	00859693          	slli	a3,a1,0x8
   11728:	00d5e5b3          	or	a1,a1,a3
   1172c:	01059693          	slli	a3,a1,0x10
   11730:	00d5e5b3          	or	a1,a1,a3
   11734:	f6dff06f          	j	116a0 <memset+0x18>
   11738:	00279693          	slli	a3,a5,0x2
   1173c:	00000297          	auipc	t0,0x0
   11740:	005686b3          	add	a3,a3,t0
   11744:	00008293          	mv	t0,ra
   11748:	fa0680e7          	jalr	-96(a3)
   1174c:	00028093          	mv	ra,t0
   11750:	ff078793          	addi	a5,a5,-16
   11754:	40f70733          	sub	a4,a4,a5
   11758:	00f60633          	add	a2,a2,a5
   1175c:	f6c878e3          	bleu	a2,a6,116cc <memset+0x44>
   11760:	f3dff06f          	j	1169c <memset+0x14>

00011764 <_printf_r>:
   11764:	fc010113          	addi	sp,sp,-64
   11768:	02c12423          	sw	a2,40(sp)
   1176c:	02d12623          	sw	a3,44(sp)
   11770:	02e12823          	sw	a4,48(sp)
   11774:	02f12a23          	sw	a5,52(sp)
   11778:	03012c23          	sw	a6,56(sp)
   1177c:	03112e23          	sw	a7,60(sp)
   11780:	00058613          	mv	a2,a1
   11784:	00852583          	lw	a1,8(a0)
   11788:	02810693          	addi	a3,sp,40
   1178c:	00112e23          	sw	ra,28(sp)
   11790:	00d12623          	sw	a3,12(sp)
   11794:	1d8000ef          	jal	ra,1196c <_vfprintf_r>
   11798:	01c12083          	lw	ra,28(sp)
   1179c:	04010113          	addi	sp,sp,64
   117a0:	00008067          	ret

000117a4 <printf>:
   117a4:	fc010113          	addi	sp,sp,-64
   117a8:	02f12a23          	sw	a5,52(sp)
   117ac:	8681a783          	lw	a5,-1944(gp) # 2ca20 <_impure_ptr>
   117b0:	02c12423          	sw	a2,40(sp)
   117b4:	02d12623          	sw	a3,44(sp)
   117b8:	02b12223          	sw	a1,36(sp)
   117bc:	02e12823          	sw	a4,48(sp)
   117c0:	03012c23          	sw	a6,56(sp)
   117c4:	03112e23          	sw	a7,60(sp)
   117c8:	0087a583          	lw	a1,8(a5)
   117cc:	02410693          	addi	a3,sp,36
   117d0:	00050613          	mv	a2,a0
   117d4:	00078513          	mv	a0,a5
   117d8:	00112e23          	sw	ra,28(sp)
   117dc:	00d12623          	sw	a3,12(sp)
   117e0:	18c000ef          	jal	ra,1196c <_vfprintf_r>
   117e4:	01c12083          	lw	ra,28(sp)
   117e8:	04010113          	addi	sp,sp,64
   117ec:	00008067          	ret

000117f0 <_puts_r>:
   117f0:	fc010113          	addi	sp,sp,-64
   117f4:	02812c23          	sw	s0,56(sp)
   117f8:	00050413          	mv	s0,a0
   117fc:	00058513          	mv	a0,a1
   11800:	00b12623          	sw	a1,12(sp)
   11804:	02112e23          	sw	ra,60(sp)
   11808:	148000ef          	jal	ra,11950 <strlen>
   1180c:	0002b7b7          	lui	a5,0x2b
   11810:	90878793          	addi	a5,a5,-1784 # 2a908 <__clz_tab+0x100>
   11814:	02f12423          	sw	a5,40(sp)
   11818:	00100793          	li	a5,1
   1181c:	02f12623          	sw	a5,44(sp)
   11820:	02010793          	addi	a5,sp,32
   11824:	00c12583          	lw	a1,12(sp)
   11828:	00f12a23          	sw	a5,20(sp)
   1182c:	00200793          	li	a5,2
   11830:	00f12c23          	sw	a5,24(sp)
   11834:	03842783          	lw	a5,56(s0)
   11838:	02a12223          	sw	a0,36(sp)
   1183c:	00150513          	addi	a0,a0,1
   11840:	02b12023          	sw	a1,32(sp)
   11844:	00a12e23          	sw	a0,28(sp)
   11848:	00842583          	lw	a1,8(s0)
   1184c:	00079a63          	bnez	a5,11860 <_puts_r+0x70>
   11850:	00040513          	mv	a0,s0
   11854:	00b12623          	sw	a1,12(sp)
   11858:	46d030ef          	jal	ra,154c4 <__sinit>
   1185c:	00c12583          	lw	a1,12(sp)
   11860:	00c59783          	lh	a5,12(a1)
   11864:	01279713          	slli	a4,a5,0x12
   11868:	02074263          	bltz	a4,1188c <_puts_r+0x9c>
   1186c:	000026b7          	lui	a3,0x2
   11870:	0645a703          	lw	a4,100(a1)
   11874:	00d7e7b3          	or	a5,a5,a3
   11878:	00f59623          	sh	a5,12(a1)
   1187c:	ffffe7b7          	lui	a5,0xffffe
   11880:	fff78793          	addi	a5,a5,-1 # ffffdfff <__global_pointer$+0xfffd0e47>
   11884:	00f777b3          	and	a5,a4,a5
   11888:	06f5a223          	sw	a5,100(a1)
   1188c:	01410613          	addi	a2,sp,20
   11890:	00040513          	mv	a0,s0
   11894:	298040ef          	jal	ra,15b2c <__sfvwrite_r>
   11898:	fff00793          	li	a5,-1
   1189c:	00051463          	bnez	a0,118a4 <_puts_r+0xb4>
   118a0:	00a00793          	li	a5,10
   118a4:	03c12083          	lw	ra,60(sp)
   118a8:	03812403          	lw	s0,56(sp)
   118ac:	00078513          	mv	a0,a5
   118b0:	04010113          	addi	sp,sp,64
   118b4:	00008067          	ret

000118b8 <puts>:
   118b8:	00050593          	mv	a1,a0
   118bc:	8681a503          	lw	a0,-1944(gp) # 2ca20 <_impure_ptr>
   118c0:	f31ff06f          	j	117f0 <_puts_r>

000118c4 <scanf>:
   118c4:	fc010113          	addi	sp,sp,-64
   118c8:	02f12a23          	sw	a5,52(sp)
   118cc:	8681a783          	lw	a5,-1944(gp) # 2ca20 <_impure_ptr>
   118d0:	02c12423          	sw	a2,40(sp)
   118d4:	02d12623          	sw	a3,44(sp)
   118d8:	02b12223          	sw	a1,36(sp)
   118dc:	02e12823          	sw	a4,48(sp)
   118e0:	03012c23          	sw	a6,56(sp)
   118e4:	03112e23          	sw	a7,60(sp)
   118e8:	0047a583          	lw	a1,4(a5)
   118ec:	02410693          	addi	a3,sp,36
   118f0:	00050613          	mv	a2,a0
   118f4:	00078513          	mv	a0,a5
   118f8:	00112e23          	sw	ra,28(sp)
   118fc:	00d12623          	sw	a3,12(sp)
   11900:	518030ef          	jal	ra,14e18 <_vfscanf_r>
   11904:	01c12083          	lw	ra,28(sp)
   11908:	04010113          	addi	sp,sp,64
   1190c:	00008067          	ret

00011910 <_scanf_r>:
   11910:	fc010113          	addi	sp,sp,-64
   11914:	02c12423          	sw	a2,40(sp)
   11918:	02d12623          	sw	a3,44(sp)
   1191c:	02e12823          	sw	a4,48(sp)
   11920:	02f12a23          	sw	a5,52(sp)
   11924:	03012c23          	sw	a6,56(sp)
   11928:	03112e23          	sw	a7,60(sp)
   1192c:	00058613          	mv	a2,a1
   11930:	00452583          	lw	a1,4(a0)
   11934:	02810693          	addi	a3,sp,40
   11938:	00112e23          	sw	ra,28(sp)
   1193c:	00d12623          	sw	a3,12(sp)
   11940:	4d8030ef          	jal	ra,14e18 <_vfscanf_r>
   11944:	01c12083          	lw	ra,28(sp)
   11948:	04010113          	addi	sp,sp,64
   1194c:	00008067          	ret

00011950 <strlen>:
   11950:	00050793          	mv	a5,a0
   11954:	00178793          	addi	a5,a5,1
   11958:	fff7c703          	lbu	a4,-1(a5)
   1195c:	fe071ce3          	bnez	a4,11954 <strlen+0x4>
   11960:	40a78533          	sub	a0,a5,a0
   11964:	fff50513          	addi	a0,a0,-1
   11968:	00008067          	ret

0001196c <_vfprintf_r>:
   1196c:	e1010113          	addi	sp,sp,-496
   11970:	1e112623          	sw	ra,492(sp)
   11974:	1e912223          	sw	s1,484(sp)
   11978:	1f212023          	sw	s2,480(sp)
   1197c:	1d312e23          	sw	s3,476(sp)
   11980:	1d812423          	sw	s8,456(sp)
   11984:	00058913          	mv	s2,a1
   11988:	00060493          	mv	s1,a2
   1198c:	00068c13          	mv	s8,a3
   11990:	1e812423          	sw	s0,488(sp)
   11994:	1d412c23          	sw	s4,472(sp)
   11998:	1d512a23          	sw	s5,468(sp)
   1199c:	1d612823          	sw	s6,464(sp)
   119a0:	1d712623          	sw	s7,460(sp)
   119a4:	1d912223          	sw	s9,452(sp)
   119a8:	1da12023          	sw	s10,448(sp)
   119ac:	1bb12e23          	sw	s11,444(sp)
   119b0:	00050993          	mv	s3,a0
   119b4:	7f0060ef          	jal	ra,181a4 <_localeconv_r>
   119b8:	00052783          	lw	a5,0(a0)
   119bc:	00078513          	mv	a0,a5
   119c0:	02f12c23          	sw	a5,56(sp)
   119c4:	f8dff0ef          	jal	ra,11950 <strlen>
   119c8:	02a12223          	sw	a0,36(sp)
   119cc:	0e012823          	sw	zero,240(sp)
   119d0:	0e012a23          	sw	zero,244(sp)
   119d4:	0e012c23          	sw	zero,248(sp)
   119d8:	0e012e23          	sw	zero,252(sp)
   119dc:	00098a63          	beqz	s3,119f0 <_vfprintf_r+0x84>
   119e0:	0389a783          	lw	a5,56(s3)
   119e4:	00079663          	bnez	a5,119f0 <_vfprintf_r+0x84>
   119e8:	00098513          	mv	a0,s3
   119ec:	2d9030ef          	jal	ra,154c4 <__sinit>
   119f0:	00c91783          	lh	a5,12(s2)
   119f4:	01279713          	slli	a4,a5,0x12
   119f8:	02074263          	bltz	a4,11a1c <_vfprintf_r+0xb0>
   119fc:	000026b7          	lui	a3,0x2
   11a00:	06492703          	lw	a4,100(s2)
   11a04:	00d7e7b3          	or	a5,a5,a3
   11a08:	00f91623          	sh	a5,12(s2)
   11a0c:	ffffe7b7          	lui	a5,0xffffe
   11a10:	fff78793          	addi	a5,a5,-1 # ffffdfff <__global_pointer$+0xfffd0e47>
   11a14:	00f777b3          	and	a5,a4,a5
   11a18:	06f92223          	sw	a5,100(s2)
   11a1c:	00c95783          	lhu	a5,12(s2)
   11a20:	0087f793          	andi	a5,a5,8
   11a24:	06078e63          	beqz	a5,11aa0 <_vfprintf_r+0x134>
   11a28:	01092783          	lw	a5,16(s2)
   11a2c:	06078a63          	beqz	a5,11aa0 <_vfprintf_r+0x134>
   11a30:	00c95783          	lhu	a5,12(s2)
   11a34:	00a00713          	li	a4,10
   11a38:	01a7f793          	andi	a5,a5,26
   11a3c:	08e79063          	bne	a5,a4,11abc <_vfprintf_r+0x150>
   11a40:	00e91783          	lh	a5,14(s2)
   11a44:	0607cc63          	bltz	a5,11abc <_vfprintf_r+0x150>
   11a48:	000c0693          	mv	a3,s8
   11a4c:	00048613          	mv	a2,s1
   11a50:	00090593          	mv	a1,s2
   11a54:	00098513          	mv	a0,s3
   11a58:	745010ef          	jal	ra,1399c <__sbprintf>
   11a5c:	02a12423          	sw	a0,40(sp)
   11a60:	1ec12083          	lw	ra,492(sp)
   11a64:	1e812403          	lw	s0,488(sp)
   11a68:	02812503          	lw	a0,40(sp)
   11a6c:	1e412483          	lw	s1,484(sp)
   11a70:	1e012903          	lw	s2,480(sp)
   11a74:	1dc12983          	lw	s3,476(sp)
   11a78:	1d812a03          	lw	s4,472(sp)
   11a7c:	1d412a83          	lw	s5,468(sp)
   11a80:	1d012b03          	lw	s6,464(sp)
   11a84:	1cc12b83          	lw	s7,460(sp)
   11a88:	1c812c03          	lw	s8,456(sp)
   11a8c:	1c412c83          	lw	s9,452(sp)
   11a90:	1c012d03          	lw	s10,448(sp)
   11a94:	1bc12d83          	lw	s11,444(sp)
   11a98:	1f010113          	addi	sp,sp,496
   11a9c:	00008067          	ret
   11aa0:	00090593          	mv	a1,s2
   11aa4:	00098513          	mv	a0,s3
   11aa8:	3bc030ef          	jal	ra,14e64 <__swsetup_r>
   11aac:	f80502e3          	beqz	a0,11a30 <_vfprintf_r+0xc4>
   11ab0:	fff00793          	li	a5,-1
   11ab4:	02f12423          	sw	a5,40(sp)
   11ab8:	fa9ff06f          	j	11a60 <_vfprintf_r+0xf4>
   11abc:	0002b7b7          	lui	a5,0x2b
   11ac0:	90c78793          	addi	a5,a5,-1780 # 2a90c <__clz_tab+0x104>
   11ac4:	06f12023          	sw	a5,96(sp)
   11ac8:	0002b7b7          	lui	a5,0x2b
   11acc:	10c10893          	addi	a7,sp,268
   11ad0:	a8878793          	addi	a5,a5,-1400 # 2aa88 <zeroes.4377>
   11ad4:	0f112223          	sw	a7,228(sp)
   11ad8:	0e012623          	sw	zero,236(sp)
   11adc:	0e012423          	sw	zero,232(sp)
   11ae0:	00000a13          	li	s4,0
   11ae4:	00088d13          	mv	s10,a7
   11ae8:	04012223          	sw	zero,68(sp)
   11aec:	04012023          	sw	zero,64(sp)
   11af0:	00012a23          	sw	zero,20(sp)
   11af4:	02012a23          	sw	zero,52(sp)
   11af8:	02012e23          	sw	zero,60(sp)
   11afc:	02012423          	sw	zero,40(sp)
   11b00:	00f12c23          	sw	a5,24(sp)
   11b04:	00048413          	mv	s0,s1
   11b08:	02500713          	li	a4,37
   11b0c:	00044783          	lbu	a5,0(s0)
   11b10:	00078463          	beqz	a5,11b18 <_vfprintf_r+0x1ac>
   11b14:	0ce79263          	bne	a5,a4,11bd8 <_vfprintf_r+0x26c>
   11b18:	40940ab3          	sub	s5,s0,s1
   11b1c:	040a8a63          	beqz	s5,11b70 <_vfprintf_r+0x204>
   11b20:	0ec12783          	lw	a5,236(sp)
   11b24:	009d2023          	sw	s1,0(s10)
   11b28:	015d2223          	sw	s5,4(s10)
   11b2c:	015787b3          	add	a5,a5,s5
   11b30:	0ef12623          	sw	a5,236(sp)
   11b34:	0e812783          	lw	a5,232(sp)
   11b38:	00700713          	li	a4,7
   11b3c:	008d0d13          	addi	s10,s10,8
   11b40:	00178793          	addi	a5,a5,1
   11b44:	0ef12423          	sw	a5,232(sp)
   11b48:	00f75e63          	ble	a5,a4,11b64 <_vfprintf_r+0x1f8>
   11b4c:	0e410613          	addi	a2,sp,228
   11b50:	00090593          	mv	a1,s2
   11b54:	00098513          	mv	a0,s3
   11b58:	1ec0d0ef          	jal	ra,1ed44 <__sprint_r>
   11b5c:	78051063          	bnez	a0,122dc <_vfprintf_r+0x970>
   11b60:	10c10d13          	addi	s10,sp,268
   11b64:	02812783          	lw	a5,40(sp)
   11b68:	015787b3          	add	a5,a5,s5
   11b6c:	02f12423          	sw	a5,40(sp)
   11b70:	00044783          	lbu	a5,0(s0)
   11b74:	00079463          	bnez	a5,11b7c <_vfprintf_r+0x210>
   11b78:	5f10106f          	j	13968 <_vfprintf_r+0x1ffc>
   11b7c:	00140793          	addi	a5,s0,1
   11b80:	02f12023          	sw	a5,32(sp)
   11b84:	0c0103a3          	sb	zero,199(sp)
   11b88:	fff00b13          	li	s6,-1
   11b8c:	02012623          	sw	zero,44(sp)
   11b90:	00000413          	li	s0,0
   11b94:	00900a93          	li	s5,9
   11b98:	05a00b93          	li	s7,90
   11b9c:	02012783          	lw	a5,32(sp)
   11ba0:	0007c783          	lbu	a5,0(a5)
   11ba4:	00f12623          	sw	a5,12(sp)
   11ba8:	02012783          	lw	a5,32(sp)
   11bac:	00178793          	addi	a5,a5,1
   11bb0:	02f12023          	sw	a5,32(sp)
   11bb4:	00c12783          	lw	a5,12(sp)
   11bb8:	fe078793          	addi	a5,a5,-32
   11bbc:	00fbf463          	bleu	a5,s7,11bc4 <_vfprintf_r+0x258>
   11bc0:	2ac0106f          	j	12e6c <_vfprintf_r+0x1500>
   11bc4:	06012703          	lw	a4,96(sp)
   11bc8:	00279793          	slli	a5,a5,0x2
   11bcc:	00e787b3          	add	a5,a5,a4
   11bd0:	0007a783          	lw	a5,0(a5)
   11bd4:	00078067          	jr	a5
   11bd8:	00140413          	addi	s0,s0,1
   11bdc:	f31ff06f          	j	11b0c <_vfprintf_r+0x1a0>
   11be0:	0002b7b7          	lui	a5,0x2b
   11be4:	af478793          	addi	a5,a5,-1292 # 2aaf4 <zeroes.4377+0x6c>
   11be8:	04f12223          	sw	a5,68(sp)
   11bec:	02047793          	andi	a5,s0,32
   11bf0:	00079463          	bnez	a5,11bf8 <_vfprintf_r+0x28c>
   11bf4:	0ac0106f          	j	12ca0 <_vfprintf_r+0x1334>
   11bf8:	007c0c13          	addi	s8,s8,7
   11bfc:	ff8c7c13          	andi	s8,s8,-8
   11c00:	008c0793          	addi	a5,s8,8
   11c04:	000c2c83          	lw	s9,0(s8)
   11c08:	004c2c03          	lw	s8,4(s8)
   11c0c:	00f12e23          	sw	a5,28(sp)
   11c10:	00147793          	andi	a5,s0,1
   11c14:	02078063          	beqz	a5,11c34 <_vfprintf_r+0x2c8>
   11c18:	018ce7b3          	or	a5,s9,s8
   11c1c:	00078c63          	beqz	a5,11c34 <_vfprintf_r+0x2c8>
   11c20:	03000793          	li	a5,48
   11c24:	0cf10423          	sb	a5,200(sp)
   11c28:	00c14783          	lbu	a5,12(sp)
   11c2c:	00246413          	ori	s0,s0,2
   11c30:	0cf104a3          	sb	a5,201(sp)
   11c34:	bff47413          	andi	s0,s0,-1025
   11c38:	00200793          	li	a5,2
   11c3c:	7010006f          	j	12b3c <_vfprintf_r+0x11d0>
   11c40:	00098513          	mv	a0,s3
   11c44:	560060ef          	jal	ra,181a4 <_localeconv_r>
   11c48:	00452783          	lw	a5,4(a0)
   11c4c:	00078513          	mv	a0,a5
   11c50:	02f12e23          	sw	a5,60(sp)
   11c54:	cfdff0ef          	jal	ra,11950 <strlen>
   11c58:	02a12a23          	sw	a0,52(sp)
   11c5c:	00098513          	mv	a0,s3
   11c60:	544060ef          	jal	ra,181a4 <_localeconv_r>
   11c64:	00852783          	lw	a5,8(a0)
   11c68:	00f12a23          	sw	a5,20(sp)
   11c6c:	03412783          	lw	a5,52(sp)
   11c70:	f20784e3          	beqz	a5,11b98 <_vfprintf_r+0x22c>
   11c74:	01412783          	lw	a5,20(sp)
   11c78:	f20780e3          	beqz	a5,11b98 <_vfprintf_r+0x22c>
   11c7c:	0007c783          	lbu	a5,0(a5)
   11c80:	f0078ce3          	beqz	a5,11b98 <_vfprintf_r+0x22c>
   11c84:	40046413          	ori	s0,s0,1024
   11c88:	f11ff06f          	j	11b98 <_vfprintf_r+0x22c>
   11c8c:	0c714783          	lbu	a5,199(sp)
   11c90:	f00794e3          	bnez	a5,11b98 <_vfprintf_r+0x22c>
   11c94:	02000793          	li	a5,32
   11c98:	0cf103a3          	sb	a5,199(sp)
   11c9c:	efdff06f          	j	11b98 <_vfprintf_r+0x22c>
   11ca0:	00146413          	ori	s0,s0,1
   11ca4:	ef5ff06f          	j	11b98 <_vfprintf_r+0x22c>
   11ca8:	000c2783          	lw	a5,0(s8)
   11cac:	004c0c13          	addi	s8,s8,4
   11cb0:	02f12623          	sw	a5,44(sp)
   11cb4:	ee07d2e3          	bgez	a5,11b98 <_vfprintf_r+0x22c>
   11cb8:	40f007b3          	neg	a5,a5
   11cbc:	02f12623          	sw	a5,44(sp)
   11cc0:	00446413          	ori	s0,s0,4
   11cc4:	ed5ff06f          	j	11b98 <_vfprintf_r+0x22c>
   11cc8:	02b00793          	li	a5,43
   11ccc:	fcdff06f          	j	11c98 <_vfprintf_r+0x32c>
   11cd0:	02012783          	lw	a5,32(sp)
   11cd4:	02a00713          	li	a4,42
   11cd8:	00178c93          	addi	s9,a5,1
   11cdc:	0007c783          	lbu	a5,0(a5)
   11ce0:	00f12623          	sw	a5,12(sp)
   11ce4:	04e79863          	bne	a5,a4,11d34 <_vfprintf_r+0x3c8>
   11ce8:	000c2b03          	lw	s6,0(s8)
   11cec:	004c0793          	addi	a5,s8,4
   11cf0:	000b5463          	bgez	s6,11cf8 <_vfprintf_r+0x38c>
   11cf4:	fff00b13          	li	s6,-1
   11cf8:	00078c13          	mv	s8,a5
   11cfc:	03912023          	sw	s9,32(sp)
   11d00:	e99ff06f          	j	11b98 <_vfprintf_r+0x22c>
   11d04:	000b0513          	mv	a0,s6
   11d08:	00a00593          	li	a1,10
   11d0c:	f04ff0ef          	jal	ra,11410 <__mulsi3>
   11d10:	001c8c93          	addi	s9,s9,1
   11d14:	fffcc783          	lbu	a5,-1(s9)
   11d18:	01b50b33          	add	s6,a0,s11
   11d1c:	00f12623          	sw	a5,12(sp)
   11d20:	00c12783          	lw	a5,12(sp)
   11d24:	fd078d93          	addi	s11,a5,-48
   11d28:	fdbafee3          	bleu	s11,s5,11d04 <_vfprintf_r+0x398>
   11d2c:	03912023          	sw	s9,32(sp)
   11d30:	e85ff06f          	j	11bb4 <_vfprintf_r+0x248>
   11d34:	00000b13          	li	s6,0
   11d38:	fe9ff06f          	j	11d20 <_vfprintf_r+0x3b4>
   11d3c:	08046413          	ori	s0,s0,128
   11d40:	e59ff06f          	j	11b98 <_vfprintf_r+0x22c>
   11d44:	02012c83          	lw	s9,32(sp)
   11d48:	02012623          	sw	zero,44(sp)
   11d4c:	02c12503          	lw	a0,44(sp)
   11d50:	00a00593          	li	a1,10
   11d54:	001c8c93          	addi	s9,s9,1
   11d58:	eb8ff0ef          	jal	ra,11410 <__mulsi3>
   11d5c:	00c12783          	lw	a5,12(sp)
   11d60:	fd078793          	addi	a5,a5,-48
   11d64:	00a787b3          	add	a5,a5,a0
   11d68:	02f12623          	sw	a5,44(sp)
   11d6c:	fffcc783          	lbu	a5,-1(s9)
   11d70:	00f12623          	sw	a5,12(sp)
   11d74:	fd078793          	addi	a5,a5,-48
   11d78:	fcfafae3          	bleu	a5,s5,11d4c <_vfprintf_r+0x3e0>
   11d7c:	fb1ff06f          	j	11d2c <_vfprintf_r+0x3c0>
   11d80:	00846413          	ori	s0,s0,8
   11d84:	e15ff06f          	j	11b98 <_vfprintf_r+0x22c>
   11d88:	02012783          	lw	a5,32(sp)
   11d8c:	0007c703          	lbu	a4,0(a5)
   11d90:	06800793          	li	a5,104
   11d94:	00f71c63          	bne	a4,a5,11dac <_vfprintf_r+0x440>
   11d98:	02012783          	lw	a5,32(sp)
   11d9c:	20046413          	ori	s0,s0,512
   11da0:	00178793          	addi	a5,a5,1
   11da4:	02f12023          	sw	a5,32(sp)
   11da8:	df1ff06f          	j	11b98 <_vfprintf_r+0x22c>
   11dac:	04046413          	ori	s0,s0,64
   11db0:	de9ff06f          	j	11b98 <_vfprintf_r+0x22c>
   11db4:	02012783          	lw	a5,32(sp)
   11db8:	0007c703          	lbu	a4,0(a5)
   11dbc:	06c00793          	li	a5,108
   11dc0:	00f71c63          	bne	a4,a5,11dd8 <_vfprintf_r+0x46c>
   11dc4:	02012783          	lw	a5,32(sp)
   11dc8:	00178793          	addi	a5,a5,1
   11dcc:	02f12023          	sw	a5,32(sp)
   11dd0:	02046413          	ori	s0,s0,32
   11dd4:	dc5ff06f          	j	11b98 <_vfprintf_r+0x22c>
   11dd8:	01046413          	ori	s0,s0,16
   11ddc:	dbdff06f          	j	11b98 <_vfprintf_r+0x22c>
   11de0:	004c0793          	addi	a5,s8,4
   11de4:	00f12e23          	sw	a5,28(sp)
   11de8:	000c2783          	lw	a5,0(s8)
   11dec:	0c0103a3          	sb	zero,199(sp)
   11df0:	14f10623          	sb	a5,332(sp)
   11df4:	00012823          	sw	zero,16(sp)
   11df8:	00100b13          	li	s6,1
   11dfc:	00000a93          	li	s5,0
   11e00:	00000c13          	li	s8,0
   11e04:	00000b93          	li	s7,0
   11e08:	00000c93          	li	s9,0
   11e0c:	14c10493          	addi	s1,sp,332
   11e10:	03512823          	sw	s5,48(sp)
   11e14:	016ad463          	ble	s6,s5,11e1c <_vfprintf_r+0x4b0>
   11e18:	03612823          	sw	s6,48(sp)
   11e1c:	0c714703          	lbu	a4,199(sp)
   11e20:	00070863          	beqz	a4,11e30 <_vfprintf_r+0x4c4>
   11e24:	03012783          	lw	a5,48(sp)
   11e28:	00178793          	addi	a5,a5,1
   11e2c:	02f12823          	sw	a5,48(sp)
   11e30:	00247d93          	andi	s11,s0,2
   11e34:	000d8863          	beqz	s11,11e44 <_vfprintf_r+0x4d8>
   11e38:	03012783          	lw	a5,48(sp)
   11e3c:	00278793          	addi	a5,a5,2
   11e40:	02f12823          	sw	a5,48(sp)
   11e44:	08447793          	andi	a5,s0,132
   11e48:	04f12423          	sw	a5,72(sp)
   11e4c:	06079c63          	bnez	a5,11ec4 <_vfprintf_r+0x558>
   11e50:	02c12783          	lw	a5,44(sp)
   11e54:	03012703          	lw	a4,48(sp)
   11e58:	40e78733          	sub	a4,a5,a4
   11e5c:	06e05463          	blez	a4,11ec4 <_vfprintf_r+0x558>
   11e60:	0002be37          	lui	t3,0x2b
   11e64:	01000e93          	li	t4,16
   11e68:	a78e0e13          	addi	t3,t3,-1416 # 2aa78 <blanks.4376>
   11e6c:	00700f13          	li	t5,7
   11e70:	0e812683          	lw	a3,232(sp)
   11e74:	01cd2023          	sw	t3,0(s10)
   11e78:	0ec12603          	lw	a2,236(sp)
   11e7c:	00168693          	addi	a3,a3,1 # 2001 <sulp-0xe073>
   11e80:	008d0593          	addi	a1,s10,8
   11e84:	00eed463          	ble	a4,t4,11e8c <_vfprintf_r+0x520>
   11e88:	0000106f          	j	12e88 <_vfprintf_r+0x151c>
   11e8c:	00ed2223          	sw	a4,4(s10)
   11e90:	00c70733          	add	a4,a4,a2
   11e94:	0ee12623          	sw	a4,236(sp)
   11e98:	0ed12423          	sw	a3,232(sp)
   11e9c:	00700713          	li	a4,7
   11ea0:	00058d13          	mv	s10,a1
   11ea4:	02d75063          	ble	a3,a4,11ec4 <_vfprintf_r+0x558>
   11ea8:	0e410613          	addi	a2,sp,228
   11eac:	00090593          	mv	a1,s2
   11eb0:	00098513          	mv	a0,s3
   11eb4:	6910c0ef          	jal	ra,1ed44 <__sprint_r>
   11eb8:	00050463          	beqz	a0,11ec0 <_vfprintf_r+0x554>
   11ebc:	2490106f          	j	13904 <_vfprintf_r+0x1f98>
   11ec0:	10c10d13          	addi	s10,sp,268
   11ec4:	0c714703          	lbu	a4,199(sp)
   11ec8:	04070a63          	beqz	a4,11f1c <_vfprintf_r+0x5b0>
   11ecc:	0c710713          	addi	a4,sp,199
   11ed0:	00ed2023          	sw	a4,0(s10)
   11ed4:	00100713          	li	a4,1
   11ed8:	00ed2223          	sw	a4,4(s10)
   11edc:	0ec12703          	lw	a4,236(sp)
   11ee0:	00700693          	li	a3,7
   11ee4:	008d0d13          	addi	s10,s10,8
   11ee8:	00170713          	addi	a4,a4,1
   11eec:	0ee12623          	sw	a4,236(sp)
   11ef0:	0e812703          	lw	a4,232(sp)
   11ef4:	00170713          	addi	a4,a4,1
   11ef8:	0ee12423          	sw	a4,232(sp)
   11efc:	02e6d063          	ble	a4,a3,11f1c <_vfprintf_r+0x5b0>
   11f00:	0e410613          	addi	a2,sp,228
   11f04:	00090593          	mv	a1,s2
   11f08:	00098513          	mv	a0,s3
   11f0c:	6390c0ef          	jal	ra,1ed44 <__sprint_r>
   11f10:	00050463          	beqz	a0,11f18 <_vfprintf_r+0x5ac>
   11f14:	1f10106f          	j	13904 <_vfprintf_r+0x1f98>
   11f18:	10c10d13          	addi	s10,sp,268
   11f1c:	040d8a63          	beqz	s11,11f70 <_vfprintf_r+0x604>
   11f20:	0c810713          	addi	a4,sp,200
   11f24:	00ed2023          	sw	a4,0(s10)
   11f28:	00200713          	li	a4,2
   11f2c:	00ed2223          	sw	a4,4(s10)
   11f30:	0ec12703          	lw	a4,236(sp)
   11f34:	00700693          	li	a3,7
   11f38:	008d0d13          	addi	s10,s10,8
   11f3c:	00270713          	addi	a4,a4,2
   11f40:	0ee12623          	sw	a4,236(sp)
   11f44:	0e812703          	lw	a4,232(sp)
   11f48:	00170713          	addi	a4,a4,1
   11f4c:	0ee12423          	sw	a4,232(sp)
   11f50:	02e6d063          	ble	a4,a3,11f70 <_vfprintf_r+0x604>
   11f54:	0e410613          	addi	a2,sp,228
   11f58:	00090593          	mv	a1,s2
   11f5c:	00098513          	mv	a0,s3
   11f60:	5e50c0ef          	jal	ra,1ed44 <__sprint_r>
   11f64:	00050463          	beqz	a0,11f6c <_vfprintf_r+0x600>
   11f68:	19d0106f          	j	13904 <_vfprintf_r+0x1f98>
   11f6c:	10c10d13          	addi	s10,sp,268
   11f70:	04812783          	lw	a5,72(sp)
   11f74:	08000713          	li	a4,128
   11f78:	06e79863          	bne	a5,a4,11fe8 <_vfprintf_r+0x67c>
   11f7c:	02c12783          	lw	a5,44(sp)
   11f80:	03012703          	lw	a4,48(sp)
   11f84:	40e78db3          	sub	s11,a5,a4
   11f88:	07b05063          	blez	s11,11fe8 <_vfprintf_r+0x67c>
   11f8c:	01000793          	li	a5,16
   11f90:	00700e13          	li	t3,7
   11f94:	0e812703          	lw	a4,232(sp)
   11f98:	0ec12683          	lw	a3,236(sp)
   11f9c:	008d0613          	addi	a2,s10,8
   11fa0:	00170713          	addi	a4,a4,1
   11fa4:	73b7cee3          	blt	a5,s11,12ee0 <_vfprintf_r+0x1574>
   11fa8:	01812783          	lw	a5,24(sp)
   11fac:	01bd2223          	sw	s11,4(s10)
   11fb0:	00dd8db3          	add	s11,s11,a3
   11fb4:	00fd2023          	sw	a5,0(s10)
   11fb8:	0fb12623          	sw	s11,236(sp)
   11fbc:	0ee12423          	sw	a4,232(sp)
   11fc0:	00700693          	li	a3,7
   11fc4:	00060d13          	mv	s10,a2
   11fc8:	02e6d063          	ble	a4,a3,11fe8 <_vfprintf_r+0x67c>
   11fcc:	0e410613          	addi	a2,sp,228
   11fd0:	00090593          	mv	a1,s2
   11fd4:	00098513          	mv	a0,s3
   11fd8:	56d0c0ef          	jal	ra,1ed44 <__sprint_r>
   11fdc:	00050463          	beqz	a0,11fe4 <_vfprintf_r+0x678>
   11fe0:	1250106f          	j	13904 <_vfprintf_r+0x1f98>
   11fe4:	10c10d13          	addi	s10,sp,268
   11fe8:	416a8ab3          	sub	s5,s5,s6
   11fec:	07505063          	blez	s5,1204c <_vfprintf_r+0x6e0>
   11ff0:	01000d93          	li	s11,16
   11ff4:	00700813          	li	a6,7
   11ff8:	01812783          	lw	a5,24(sp)
   11ffc:	0e812703          	lw	a4,232(sp)
   12000:	0ec12683          	lw	a3,236(sp)
   12004:	00fd2023          	sw	a5,0(s10)
   12008:	00170713          	addi	a4,a4,1
   1200c:	008d0613          	addi	a2,s10,8
   12010:	735dc0e3          	blt	s11,s5,12f30 <_vfprintf_r+0x15c4>
   12014:	015d2223          	sw	s5,4(s10)
   12018:	00da8ab3          	add	s5,s5,a3
   1201c:	0f512623          	sw	s5,236(sp)
   12020:	0ee12423          	sw	a4,232(sp)
   12024:	00700693          	li	a3,7
   12028:	00060d13          	mv	s10,a2
   1202c:	02e6d063          	ble	a4,a3,1204c <_vfprintf_r+0x6e0>
   12030:	0e410613          	addi	a2,sp,228
   12034:	00090593          	mv	a1,s2
   12038:	00098513          	mv	a0,s3
   1203c:	5090c0ef          	jal	ra,1ed44 <__sprint_r>
   12040:	00050463          	beqz	a0,12048 <_vfprintf_r+0x6dc>
   12044:	0c10106f          	j	13904 <_vfprintf_r+0x1f98>
   12048:	10c10d13          	addi	s10,sp,268
   1204c:	10047713          	andi	a4,s0,256
   12050:	0ec12d83          	lw	s11,236(sp)
   12054:	70071ee3          	bnez	a4,12f70 <_vfprintf_r+0x1604>
   12058:	0e812783          	lw	a5,232(sp)
   1205c:	01bb0333          	add	t1,s6,s11
   12060:	009d2023          	sw	s1,0(s10)
   12064:	00178793          	addi	a5,a5,1
   12068:	016d2223          	sw	s6,4(s10)
   1206c:	0e612623          	sw	t1,236(sp)
   12070:	0ef12423          	sw	a5,232(sp)
   12074:	00700713          	li	a4,7
   12078:	008d0d13          	addi	s10,s10,8
   1207c:	00f74463          	blt	a4,a5,12084 <_vfprintf_r+0x718>
   12080:	1b80106f          	j	13238 <_vfprintf_r+0x18cc>
   12084:	0e410613          	addi	a2,sp,228
   12088:	00090593          	mv	a1,s2
   1208c:	00098513          	mv	a0,s3
   12090:	4b50c0ef          	jal	ra,1ed44 <__sprint_r>
   12094:	00050463          	beqz	a0,1209c <_vfprintf_r+0x730>
   12098:	06d0106f          	j	13904 <_vfprintf_r+0x1f98>
   1209c:	10c10d13          	addi	s10,sp,268
   120a0:	1980106f          	j	13238 <_vfprintf_r+0x18cc>
   120a4:	01046413          	ori	s0,s0,16
   120a8:	02047793          	andi	a5,s0,32
   120ac:	04078e63          	beqz	a5,12108 <_vfprintf_r+0x79c>
   120b0:	007c0c13          	addi	s8,s8,7
   120b4:	ff8c7c13          	andi	s8,s8,-8
   120b8:	008c0793          	addi	a5,s8,8
   120bc:	000c2c83          	lw	s9,0(s8)
   120c0:	004c2c03          	lw	s8,4(s8)
   120c4:	00f12e23          	sw	a5,28(sp)
   120c8:	000c5e63          	bgez	s8,120e4 <_vfprintf_r+0x778>
   120cc:	41900cb3          	neg	s9,s9
   120d0:	019037b3          	snez	a5,s9
   120d4:	41800c33          	neg	s8,s8
   120d8:	40fc0c33          	sub	s8,s8,a5
   120dc:	02d00793          	li	a5,45
   120e0:	0cf103a3          	sb	a5,199(sp)
   120e4:	fff00793          	li	a5,-1
   120e8:	3efb1ae3          	bne	s6,a5,12cdc <_vfprintf_r+0x1370>
   120ec:	460c1ce3          	bnez	s8,12d64 <_vfprintf_r+0x13f8>
   120f0:	00900793          	li	a5,9
   120f4:	4797e8e3          	bltu	a5,s9,12d64 <_vfprintf_r+0x13f8>
   120f8:	030c8c93          	addi	s9,s9,48
   120fc:	1b9107a3          	sb	s9,431(sp)
   12100:	1af10493          	addi	s1,sp,431
   12104:	4390006f          	j	12d3c <_vfprintf_r+0x13d0>
   12108:	004c0793          	addi	a5,s8,4
   1210c:	00f12e23          	sw	a5,28(sp)
   12110:	01047793          	andi	a5,s0,16
   12114:	00078863          	beqz	a5,12124 <_vfprintf_r+0x7b8>
   12118:	000c2c83          	lw	s9,0(s8)
   1211c:	41fcdc13          	srai	s8,s9,0x1f
   12120:	fa9ff06f          	j	120c8 <_vfprintf_r+0x75c>
   12124:	04047793          	andi	a5,s0,64
   12128:	000c2c83          	lw	s9,0(s8)
   1212c:	00078863          	beqz	a5,1213c <_vfprintf_r+0x7d0>
   12130:	010c9c93          	slli	s9,s9,0x10
   12134:	410cdc93          	srai	s9,s9,0x10
   12138:	fe5ff06f          	j	1211c <_vfprintf_r+0x7b0>
   1213c:	20047793          	andi	a5,s0,512
   12140:	fc078ee3          	beqz	a5,1211c <_vfprintf_r+0x7b0>
   12144:	018c9c93          	slli	s9,s9,0x18
   12148:	418cdc93          	srai	s9,s9,0x18
   1214c:	fd1ff06f          	j	1211c <_vfprintf_r+0x7b0>
   12150:	00847793          	andi	a5,s0,8
   12154:	0a078a63          	beqz	a5,12208 <_vfprintf_r+0x89c>
   12158:	004c0793          	addi	a5,s8,4
   1215c:	00f12e23          	sw	a5,28(sp)
   12160:	000c2783          	lw	a5,0(s8)
   12164:	0007a603          	lw	a2,0(a5)
   12168:	0047a683          	lw	a3,4(a5)
   1216c:	0087a703          	lw	a4,8(a5)
   12170:	00c7a783          	lw	a5,12(a5)
   12174:	0ec12823          	sw	a2,240(sp)
   12178:	0ed12a23          	sw	a3,244(sp)
   1217c:	0ee12c23          	sw	a4,248(sp)
   12180:	0f010513          	addi	a0,sp,240
   12184:	0ef12e23          	sw	a5,252(sp)
   12188:	7b1050ef          	jal	ra,18138 <_ldcheck>
   1218c:	0ca12623          	sw	a0,204(sp)
   12190:	00200793          	li	a5,2
   12194:	0cf51063          	bne	a0,a5,12254 <_vfprintf_r+0x8e8>
   12198:	0f012783          	lw	a5,240(sp)
   1219c:	0a010593          	addi	a1,sp,160
   121a0:	0b010513          	addi	a0,sp,176
   121a4:	0af12823          	sw	a5,176(sp)
   121a8:	0f412783          	lw	a5,244(sp)
   121ac:	0a012023          	sw	zero,160(sp)
   121b0:	0a012223          	sw	zero,164(sp)
   121b4:	0af12a23          	sw	a5,180(sp)
   121b8:	0f812783          	lw	a5,248(sp)
   121bc:	0a012423          	sw	zero,168(sp)
   121c0:	0a012623          	sw	zero,172(sp)
   121c4:	0af12c23          	sw	a5,184(sp)
   121c8:	0fc12783          	lw	a5,252(sp)
   121cc:	0af12e23          	sw	a5,188(sp)
   121d0:	6fd140ef          	jal	ra,270cc <__letf2>
   121d4:	00055663          	bgez	a0,121e0 <_vfprintf_r+0x874>
   121d8:	02d00793          	li	a5,45
   121dc:	0cf103a3          	sb	a5,199(sp)
   121e0:	00c12703          	lw	a4,12(sp)
   121e4:	04700793          	li	a5,71
   121e8:	06e7c063          	blt	a5,a4,12248 <_vfprintf_r+0x8dc>
   121ec:	0002b4b7          	lui	s1,0x2b
   121f0:	ad048493          	addi	s1,s1,-1328 # 2aad0 <zeroes.4377+0x48>
   121f4:	f7f47413          	andi	s0,s0,-129
   121f8:	00012823          	sw	zero,16(sp)
   121fc:	00300b13          	li	s6,3
   12200:	00000a93          	li	s5,0
   12204:	3490006f          	j	12d4c <_vfprintf_r+0x13e0>
   12208:	007c0c13          	addi	s8,s8,7
   1220c:	ff8c7c13          	andi	s8,s8,-8
   12210:	000c2583          	lw	a1,0(s8)
   12214:	004c2603          	lw	a2,4(s8)
   12218:	008c0793          	addi	a5,s8,8
   1221c:	0b010513          	addi	a0,sp,176
   12220:	00f12e23          	sw	a5,28(sp)
   12224:	531170ef          	jal	ra,29f54 <__extenddftf2>
   12228:	0b012783          	lw	a5,176(sp)
   1222c:	0ef12823          	sw	a5,240(sp)
   12230:	0b412783          	lw	a5,180(sp)
   12234:	0ef12a23          	sw	a5,244(sp)
   12238:	0b812783          	lw	a5,184(sp)
   1223c:	0ef12c23          	sw	a5,248(sp)
   12240:	0bc12783          	lw	a5,188(sp)
   12244:	f3dff06f          	j	12180 <_vfprintf_r+0x814>
   12248:	0002b4b7          	lui	s1,0x2b
   1224c:	ad448493          	addi	s1,s1,-1324 # 2aad4 <zeroes.4377+0x4c>
   12250:	fa5ff06f          	j	121f4 <_vfprintf_r+0x888>
   12254:	00100793          	li	a5,1
   12258:	02f51463          	bne	a0,a5,12280 <_vfprintf_r+0x914>
   1225c:	00c12703          	lw	a4,12(sp)
   12260:	04700793          	li	a5,71
   12264:	00e7c863          	blt	a5,a4,12274 <_vfprintf_r+0x908>
   12268:	0002b4b7          	lui	s1,0x2b
   1226c:	ad848493          	addi	s1,s1,-1320 # 2aad8 <zeroes.4377+0x50>
   12270:	f85ff06f          	j	121f4 <_vfprintf_r+0x888>
   12274:	0002b4b7          	lui	s1,0x2b
   12278:	adc48493          	addi	s1,s1,-1316 # 2aadc <zeroes.4377+0x54>
   1227c:	f79ff06f          	j	121f4 <_vfprintf_r+0x888>
   12280:	00c12783          	lw	a5,12(sp)
   12284:	fdf7fb93          	andi	s7,a5,-33
   12288:	04100793          	li	a5,65
   1228c:	06fb9063          	bne	s7,a5,122ec <_vfprintf_r+0x980>
   12290:	00c12683          	lw	a3,12(sp)
   12294:	03000793          	li	a5,48
   12298:	0cf10423          	sb	a5,200(sp)
   1229c:	06100713          	li	a4,97
   122a0:	05800793          	li	a5,88
   122a4:	00e69463          	bne	a3,a4,122ac <_vfprintf_r+0x940>
   122a8:	07800793          	li	a5,120
   122ac:	0cf104a3          	sb	a5,201(sp)
   122b0:	06300793          	li	a5,99
   122b4:	00246413          	ori	s0,s0,2
   122b8:	5167d663          	ble	s6,a5,127c4 <_vfprintf_r+0xe58>
   122bc:	001b0593          	addi	a1,s6,1
   122c0:	00098513          	mv	a0,s3
   122c4:	168060ef          	jal	ra,1842c <_malloc_r>
   122c8:	00050493          	mv	s1,a0
   122cc:	50051263          	bnez	a0,127d0 <_vfprintf_r+0xe64>
   122d0:	00c95783          	lhu	a5,12(s2)
   122d4:	0407e793          	ori	a5,a5,64
   122d8:	00f91623          	sh	a5,12(s2)
   122dc:	00c95783          	lhu	a5,12(s2)
   122e0:	0407f793          	andi	a5,a5,64
   122e4:	f6078e63          	beqz	a5,11a60 <_vfprintf_r+0xf4>
   122e8:	fc8ff06f          	j	11ab0 <_vfprintf_r+0x144>
   122ec:	fff00793          	li	a5,-1
   122f0:	4efb0463          	beq	s6,a5,127d8 <_vfprintf_r+0xe6c>
   122f4:	04700793          	li	a5,71
   122f8:	00012823          	sw	zero,16(sp)
   122fc:	00fb9463          	bne	s7,a5,12304 <_vfprintf_r+0x998>
   12300:	4e0b0263          	beqz	s6,127e4 <_vfprintf_r+0xe78>
   12304:	0fc12a03          	lw	s4,252(sp)
   12308:	10046793          	ori	a5,s0,256
   1230c:	02f12823          	sw	a5,48(sp)
   12310:	04012423          	sw	zero,72(sp)
   12314:	0f012e03          	lw	t3,240(sp)
   12318:	0f412d83          	lw	s11,244(sp)
   1231c:	0f812c83          	lw	s9,248(sp)
   12320:	000a5a63          	bgez	s4,12334 <_vfprintf_r+0x9c8>
   12324:	800007b7          	lui	a5,0x80000
   12328:	0147ca33          	xor	s4,a5,s4
   1232c:	02d00793          	li	a5,45
   12330:	04f12423          	sw	a5,72(sp)
   12334:	04100793          	li	a5,65
   12338:	50fb9063          	bne	s7,a5,12838 <_vfprintf_r+0xecc>
   1233c:	0b010513          	addi	a0,sp,176
   12340:	0bc12823          	sw	t3,176(sp)
   12344:	0bb12a23          	sw	s11,180(sp)
   12348:	0b912c23          	sw	s9,184(sp)
   1234c:	0b412e23          	sw	s4,188(sp)
   12350:	7ed170ef          	jal	ra,2a33c <__trunctfdf2>
   12354:	0cc10613          	addi	a2,sp,204
   12358:	134080ef          	jal	ra,1a48c <frexp>
   1235c:	00058613          	mv	a2,a1
   12360:	00050593          	mv	a1,a0
   12364:	0b010513          	addi	a0,sp,176
   12368:	3ed170ef          	jal	ra,29f54 <__extenddftf2>
   1236c:	0b012583          	lw	a1,176(sp)
   12370:	0002b7b7          	lui	a5,0x2b
   12374:	aa078793          	addi	a5,a5,-1376 # 2aaa0 <zeroes.4377+0x18>
   12378:	08b12823          	sw	a1,144(sp)
   1237c:	0b412583          	lw	a1,180(sp)
   12380:	0007a603          	lw	a2,0(a5)
   12384:	0047a683          	lw	a3,4(a5)
   12388:	08b12a23          	sw	a1,148(sp)
   1238c:	0b812583          	lw	a1,184(sp)
   12390:	0087a703          	lw	a4,8(a5)
   12394:	00c7a783          	lw	a5,12(a5)
   12398:	08b12c23          	sw	a1,152(sp)
   1239c:	0bc12583          	lw	a1,188(sp)
   123a0:	08c12023          	sw	a2,128(sp)
   123a4:	0a010513          	addi	a0,sp,160
   123a8:	08b12e23          	sw	a1,156(sp)
   123ac:	08010613          	addi	a2,sp,128
   123b0:	09010593          	addi	a1,sp,144
   123b4:	08d12223          	sw	a3,132(sp)
   123b8:	08e12423          	sw	a4,136(sp)
   123bc:	08f12623          	sw	a5,140(sp)
   123c0:	66d140ef          	jal	ra,2722c <__multf3>
   123c4:	0a012383          	lw	t2,160(sp)
   123c8:	0a412803          	lw	a6,164(sp)
   123cc:	0a812d83          	lw	s11,168(sp)
   123d0:	0ac12c83          	lw	s9,172(sp)
   123d4:	0a010593          	addi	a1,sp,160
   123d8:	0b010513          	addi	a0,sp,176
   123dc:	0a712823          	sw	t2,176(sp)
   123e0:	04712823          	sw	t2,80(sp)
   123e4:	0b012a23          	sw	a6,180(sp)
   123e8:	05012623          	sw	a6,76(sp)
   123ec:	0bb12c23          	sw	s11,184(sp)
   123f0:	0b912e23          	sw	s9,188(sp)
   123f4:	0a012023          	sw	zero,160(sp)
   123f8:	0a012223          	sw	zero,164(sp)
   123fc:	0a012423          	sw	zero,168(sp)
   12400:	0a012623          	sw	zero,172(sp)
   12404:	29d140ef          	jal	ra,26ea0 <__eqtf2>
   12408:	04c12803          	lw	a6,76(sp)
   1240c:	05012383          	lw	t2,80(sp)
   12410:	00051663          	bnez	a0,1241c <_vfprintf_r+0xab0>
   12414:	00100793          	li	a5,1
   12418:	0cf12623          	sw	a5,204(sp)
   1241c:	00c12703          	lw	a4,12(sp)
   12420:	06100793          	li	a5,97
   12424:	3cf71663          	bne	a4,a5,127f0 <_vfprintf_r+0xe84>
   12428:	0002bab7          	lui	s5,0x2b
   1242c:	ae0a8a93          	addi	s5,s5,-1312 # 2aae0 <zeroes.4377+0x58>
   12430:	0002b737          	lui	a4,0x2b
   12434:	ab070713          	addi	a4,a4,-1360 # 2aab0 <zeroes.4377+0x28>
   12438:	00072783          	lw	a5,0(a4)
   1243c:	fffb0e13          	addi	t3,s6,-1
   12440:	00048c13          	mv	s8,s1
   12444:	04f12823          	sw	a5,80(sp)
   12448:	00472783          	lw	a5,4(a4)
   1244c:	04f12a23          	sw	a5,84(sp)
   12450:	00872783          	lw	a5,8(a4)
   12454:	04f12c23          	sw	a5,88(sp)
   12458:	00c72783          	lw	a5,12(a4)
   1245c:	04f12e23          	sw	a5,92(sp)
   12460:	05012783          	lw	a5,80(sp)
   12464:	0a010593          	addi	a1,sp,160
   12468:	09010613          	addi	a2,sp,144
   1246c:	08f12823          	sw	a5,144(sp)
   12470:	05412783          	lw	a5,84(sp)
   12474:	0b010513          	addi	a0,sp,176
   12478:	07c12423          	sw	t3,104(sp)
   1247c:	08f12a23          	sw	a5,148(sp)
   12480:	05812783          	lw	a5,88(sp)
   12484:	0a712023          	sw	t2,160(sp)
   12488:	0b012223          	sw	a6,164(sp)
   1248c:	08f12c23          	sw	a5,152(sp)
   12490:	05c12783          	lw	a5,92(sp)
   12494:	0bb12423          	sw	s11,168(sp)
   12498:	0b912623          	sw	s9,172(sp)
   1249c:	08f12e23          	sw	a5,156(sp)
   124a0:	58d140ef          	jal	ra,2722c <__multf3>
   124a4:	0b012603          	lw	a2,176(sp)
   124a8:	0b412683          	lw	a3,180(sp)
   124ac:	0b010513          	addi	a0,sp,176
   124b0:	06c12223          	sw	a2,100(sp)
   124b4:	04d12623          	sw	a3,76(sp)
   124b8:	6a8170ef          	jal	ra,29b60 <__fixtfsi>
   124bc:	00050593          	mv	a1,a0
   124c0:	00050a13          	mv	s4,a0
   124c4:	0b010513          	addi	a0,sp,176
   124c8:	0b812d83          	lw	s11,184(sp)
   124cc:	0bc12c83          	lw	s9,188(sp)
   124d0:	7f4170ef          	jal	ra,29cc4 <__floatsitf>
   124d4:	0b012703          	lw	a4,176(sp)
   124d8:	06412603          	lw	a2,100(sp)
   124dc:	04c12683          	lw	a3,76(sp)
   124e0:	08e12023          	sw	a4,128(sp)
   124e4:	0b412703          	lw	a4,180(sp)
   124e8:	08c12823          	sw	a2,144(sp)
   124ec:	09010593          	addi	a1,sp,144
   124f0:	08e12223          	sw	a4,132(sp)
   124f4:	0b812703          	lw	a4,184(sp)
   124f8:	08010613          	addi	a2,sp,128
   124fc:	0a010513          	addi	a0,sp,160
   12500:	08e12423          	sw	a4,136(sp)
   12504:	0bc12703          	lw	a4,188(sp)
   12508:	09b12c23          	sw	s11,152(sp)
   1250c:	09912e23          	sw	s9,156(sp)
   12510:	08e12623          	sw	a4,140(sp)
   12514:	08d12a23          	sw	a3,148(sp)
   12518:	144160ef          	jal	ra,2865c <__subtf3>
   1251c:	014a8733          	add	a4,s5,s4
   12520:	00074703          	lbu	a4,0(a4)
   12524:	06812e03          	lw	t3,104(sp)
   12528:	0a812f03          	lw	t5,168(sp)
   1252c:	0ac12e83          	lw	t4,172(sp)
   12530:	001c0c13          	addi	s8,s8,1
   12534:	0a012283          	lw	t0,160(sp)
   12538:	0a412f83          	lw	t6,164(sp)
   1253c:	05c12623          	sw	t3,76(sp)
   12540:	feec0fa3          	sb	a4,-1(s8)
   12544:	fff00713          	li	a4,-1
   12548:	000f0d93          	mv	s11,t5
   1254c:	000e8c93          	mv	s9,t4
   12550:	06ee0863          	beq	t3,a4,125c0 <_vfprintf_r+0xc54>
   12554:	fffe0e13          	addi	t3,t3,-1
   12558:	0a010593          	addi	a1,sp,160
   1255c:	0b010513          	addi	a0,sp,176
   12560:	07d12e23          	sw	t4,124(sp)
   12564:	07e12c23          	sw	t5,120(sp)
   12568:	07f12a23          	sw	t6,116(sp)
   1256c:	06512823          	sw	t0,112(sp)
   12570:	07c12623          	sw	t3,108(sp)
   12574:	0a512823          	sw	t0,176(sp)
   12578:	06512423          	sw	t0,104(sp)
   1257c:	0bf12a23          	sw	t6,180(sp)
   12580:	07f12223          	sw	t6,100(sp)
   12584:	0be12c23          	sw	t5,184(sp)
   12588:	0bd12e23          	sw	t4,188(sp)
   1258c:	0a012023          	sw	zero,160(sp)
   12590:	0a012223          	sw	zero,164(sp)
   12594:	0a012423          	sw	zero,168(sp)
   12598:	0a012623          	sw	zero,172(sp)
   1259c:	105140ef          	jal	ra,26ea0 <__eqtf2>
   125a0:	06412803          	lw	a6,100(sp)
   125a4:	06812383          	lw	t2,104(sp)
   125a8:	06c12e03          	lw	t3,108(sp)
   125ac:	07012283          	lw	t0,112(sp)
   125b0:	07412f83          	lw	t6,116(sp)
   125b4:	07812f03          	lw	t5,120(sp)
   125b8:	07c12e83          	lw	t4,124(sp)
   125bc:	ea0512e3          	bnez	a0,12460 <_vfprintf_r+0xaf4>
   125c0:	0002b737          	lui	a4,0x2b
   125c4:	ac070713          	addi	a4,a4,-1344 # 2aac0 <zeroes.4377+0x38>
   125c8:	00072603          	lw	a2,0(a4)
   125cc:	00472683          	lw	a3,4(a4)
   125d0:	00872d83          	lw	s11,8(a4)
   125d4:	00c72c83          	lw	s9,12(a4)
   125d8:	0a010593          	addi	a1,sp,160
   125dc:	0b010513          	addi	a0,sp,176
   125e0:	0a512823          	sw	t0,176(sp)
   125e4:	06512423          	sw	t0,104(sp)
   125e8:	0bf12a23          	sw	t6,180(sp)
   125ec:	07f12223          	sw	t6,100(sp)
   125f0:	0be12c23          	sw	t5,184(sp)
   125f4:	05e12e23          	sw	t5,92(sp)
   125f8:	0bd12e23          	sw	t4,188(sp)
   125fc:	05d12c23          	sw	t4,88(sp)
   12600:	0ac12023          	sw	a2,160(sp)
   12604:	04c12a23          	sw	a2,84(sp)
   12608:	0ad12223          	sw	a3,164(sp)
   1260c:	04d12823          	sw	a3,80(sp)
   12610:	0bb12423          	sw	s11,168(sp)
   12614:	0b912623          	sw	s9,172(sp)
   12618:	155140ef          	jal	ra,26f6c <__getf2>
   1261c:	04a04a63          	bgtz	a0,12670 <_vfprintf_r+0xd04>
   12620:	06812283          	lw	t0,104(sp)
   12624:	06412f83          	lw	t6,100(sp)
   12628:	05c12f03          	lw	t5,92(sp)
   1262c:	05812e83          	lw	t4,88(sp)
   12630:	05412603          	lw	a2,84(sp)
   12634:	05012683          	lw	a3,80(sp)
   12638:	0a010593          	addi	a1,sp,160
   1263c:	0b010513          	addi	a0,sp,176
   12640:	0a512823          	sw	t0,176(sp)
   12644:	0bf12a23          	sw	t6,180(sp)
   12648:	0be12c23          	sw	t5,184(sp)
   1264c:	0bd12e23          	sw	t4,188(sp)
   12650:	0ac12023          	sw	a2,160(sp)
   12654:	0ad12223          	sw	a3,164(sp)
   12658:	0bb12423          	sw	s11,168(sp)
   1265c:	0b912623          	sw	s9,172(sp)
   12660:	041140ef          	jal	ra,26ea0 <__eqtf2>
   12664:	1c051063          	bnez	a0,12824 <_vfprintf_r+0xeb8>
   12668:	001a7a13          	andi	s4,s4,1
   1266c:	1a0a0c63          	beqz	s4,12824 <_vfprintf_r+0xeb8>
   12670:	00fac603          	lbu	a2,15(s5)
   12674:	0d812e23          	sw	s8,220(sp)
   12678:	03000593          	li	a1,48
   1267c:	0dc12683          	lw	a3,220(sp)
   12680:	fff68713          	addi	a4,a3,-1
   12684:	0ce12e23          	sw	a4,220(sp)
   12688:	fff6c703          	lbu	a4,-1(a3)
   1268c:	16c70863          	beq	a4,a2,127fc <_vfprintf_r+0xe90>
   12690:	03900613          	li	a2,57
   12694:	16c71863          	bne	a4,a2,12804 <_vfprintf_r+0xe98>
   12698:	00aac703          	lbu	a4,10(s5)
   1269c:	fee68fa3          	sb	a4,-1(a3)
   126a0:	000c0a13          	mv	s4,s8
   126a4:	04700713          	li	a4,71
   126a8:	409a0a33          	sub	s4,s4,s1
   126ac:	0cc12c83          	lw	s9,204(sp)
   126b0:	2aeb9a63          	bne	s7,a4,12964 <_vfprintf_r+0xff8>
   126b4:	ffd00713          	li	a4,-3
   126b8:	00ecc463          	blt	s9,a4,126c0 <_vfprintf_r+0xd54>
   126bc:	339b5863          	ble	s9,s6,129ec <_vfprintf_r+0x1080>
   126c0:	00c12783          	lw	a5,12(sp)
   126c4:	ffe78793          	addi	a5,a5,-2
   126c8:	00f12623          	sw	a5,12(sp)
   126cc:	00c12783          	lw	a5,12(sp)
   126d0:	fffc8a93          	addi	s5,s9,-1
   126d4:	0d512623          	sw	s5,204(sp)
   126d8:	fdf7f693          	andi	a3,a5,-33
   126dc:	04100593          	li	a1,65
   126e0:	00c14703          	lbu	a4,12(sp)
   126e4:	00000613          	li	a2,0
   126e8:	00b69863          	bne	a3,a1,126f8 <_vfprintf_r+0xd8c>
   126ec:	00f70713          	addi	a4,a4,15
   126f0:	0ff77713          	andi	a4,a4,255
   126f4:	00100613          	li	a2,1
   126f8:	0ce10a23          	sb	a4,212(sp)
   126fc:	02b00793          	li	a5,43
   12700:	000ad863          	bgez	s5,12710 <_vfprintf_r+0xda4>
   12704:	00100a93          	li	s5,1
   12708:	419a8ab3          	sub	s5,s5,s9
   1270c:	02d00793          	li	a5,45
   12710:	0cf10aa3          	sb	a5,213(sp)
   12714:	00900793          	li	a5,9
   12718:	2957dc63          	ble	s5,a5,129b0 <_vfprintf_r+0x1044>
   1271c:	0e310b93          	addi	s7,sp,227
   12720:	000b8c93          	mv	s9,s7
   12724:	00900d93          	li	s11,9
   12728:	00a00593          	li	a1,10
   1272c:	000a8513          	mv	a0,s5
   12730:	d89fe0ef          	jal	ra,114b8 <__modsi3>
   12734:	03050513          	addi	a0,a0,48
   12738:	feab8fa3          	sb	a0,-1(s7)
   1273c:	00a00593          	li	a1,10
   12740:	000a8513          	mv	a0,s5
   12744:	cf1fe0ef          	jal	ra,11434 <__divsi3>
   12748:	fffb8c13          	addi	s8,s7,-1
   1274c:	00050a93          	mv	s5,a0
   12750:	24adc263          	blt	s11,a0,12994 <_vfprintf_r+0x1028>
   12754:	03050a93          	addi	s5,a0,48
   12758:	ffeb8b93          	addi	s7,s7,-2
   1275c:	ff5c0fa3          	sb	s5,-1(s8)
   12760:	0d610793          	addi	a5,sp,214
   12764:	239bec63          	bltu	s7,s9,1299c <_vfprintf_r+0x1030>
   12768:	0d410713          	addi	a4,sp,212
   1276c:	40e787b3          	sub	a5,a5,a4
   12770:	04f12023          	sw	a5,64(sp)
   12774:	01478b33          	add	s6,a5,s4
   12778:	00100793          	li	a5,1
   1277c:	0147c663          	blt	a5,s4,12788 <_vfprintf_r+0xe1c>
   12780:	00147793          	andi	a5,s0,1
   12784:	00078663          	beqz	a5,12790 <_vfprintf_r+0xe24>
   12788:	02412783          	lw	a5,36(sp)
   1278c:	00fb0b33          	add	s6,s6,a5
   12790:	bff47413          	andi	s0,s0,-1025
   12794:	10046793          	ori	a5,s0,256
   12798:	02f12823          	sw	a5,48(sp)
   1279c:	00000c13          	li	s8,0
   127a0:	00000b93          	li	s7,0
   127a4:	00000c93          	li	s9,0
   127a8:	04812783          	lw	a5,72(sp)
   127ac:	00078663          	beqz	a5,127b8 <_vfprintf_r+0xe4c>
   127b0:	02d00713          	li	a4,45
   127b4:	0ce103a3          	sb	a4,199(sp)
   127b8:	03012403          	lw	s0,48(sp)
   127bc:	00000a93          	li	s5,0
   127c0:	e50ff06f          	j	11e10 <_vfprintf_r+0x4a4>
   127c4:	00012823          	sw	zero,16(sp)
   127c8:	14c10493          	addi	s1,sp,332
   127cc:	b39ff06f          	j	12304 <_vfprintf_r+0x998>
   127d0:	00a12823          	sw	a0,16(sp)
   127d4:	b31ff06f          	j	12304 <_vfprintf_r+0x998>
   127d8:	00012823          	sw	zero,16(sp)
   127dc:	00600b13          	li	s6,6
   127e0:	b25ff06f          	j	12304 <_vfprintf_r+0x998>
   127e4:	01612823          	sw	s6,16(sp)
   127e8:	00100b13          	li	s6,1
   127ec:	b19ff06f          	j	12304 <_vfprintf_r+0x998>
   127f0:	0002bab7          	lui	s5,0x2b
   127f4:	af4a8a93          	addi	s5,s5,-1292 # 2aaf4 <zeroes.4377+0x6c>
   127f8:	c39ff06f          	j	12430 <_vfprintf_r+0xac4>
   127fc:	feb68fa3          	sb	a1,-1(a3)
   12800:	e7dff06f          	j	1267c <_vfprintf_r+0xd10>
   12804:	00170713          	addi	a4,a4,1
   12808:	0ff77713          	andi	a4,a4,255
   1280c:	e91ff06f          	j	1269c <_vfprintf_r+0xd30>
   12810:	001a0a13          	addi	s4,s4,1
   12814:	feea0fa3          	sb	a4,-1(s4)
   12818:	414c07b3          	sub	a5,s8,s4
   1281c:	fe07dae3          	bgez	a5,12810 <_vfprintf_r+0xea4>
   12820:	e85ff06f          	j	126a4 <_vfprintf_r+0xd38>
   12824:	04c12783          	lw	a5,76(sp)
   12828:	000c0a13          	mv	s4,s8
   1282c:	03000713          	li	a4,48
   12830:	00fc0c33          	add	s8,s8,a5
   12834:	fe5ff06f          	j	12818 <_vfprintf_r+0xeac>
   12838:	04600793          	li	a5,70
   1283c:	00fb8e63          	beq	s7,a5,12858 <_vfprintf_r+0xeec>
   12840:	04500793          	li	a5,69
   12844:	001b0a93          	addi	s5,s6,1
   12848:	00fb8463          	beq	s7,a5,12850 <_vfprintf_r+0xee4>
   1284c:	000b0a93          	mv	s5,s6
   12850:	00200613          	li	a2,2
   12854:	00c0006f          	j	12860 <_vfprintf_r+0xef4>
   12858:	000b0a93          	mv	s5,s6
   1285c:	00300613          	li	a2,3
   12860:	0d010793          	addi	a5,sp,208
   12864:	0dc10813          	addi	a6,sp,220
   12868:	0cc10713          	addi	a4,sp,204
   1286c:	000a8693          	mv	a3,s5
   12870:	0b010593          	addi	a1,sp,176
   12874:	00098513          	mv	a0,s3
   12878:	0bc12823          	sw	t3,176(sp)
   1287c:	05c12623          	sw	t3,76(sp)
   12880:	0bb12a23          	sw	s11,180(sp)
   12884:	0b912c23          	sw	s9,184(sp)
   12888:	0b412e23          	sw	s4,188(sp)
   1288c:	459040ef          	jal	ra,174e4 <_ldtoa_r>
   12890:	04700793          	li	a5,71
   12894:	00050493          	mv	s1,a0
   12898:	04c12e03          	lw	t3,76(sp)
   1289c:	00fb9663          	bne	s7,a5,128a8 <_vfprintf_r+0xf3c>
   128a0:	00147793          	andi	a5,s0,1
   128a4:	0a078063          	beqz	a5,12944 <_vfprintf_r+0xfd8>
   128a8:	04600793          	li	a5,70
   128ac:	01548c33          	add	s8,s1,s5
   128b0:	04fb9e63          	bne	s7,a5,1290c <_vfprintf_r+0xfa0>
   128b4:	0004c703          	lbu	a4,0(s1)
   128b8:	03000793          	li	a5,48
   128bc:	04f71463          	bne	a4,a5,12904 <_vfprintf_r+0xf98>
   128c0:	0a010593          	addi	a1,sp,160
   128c4:	0b010513          	addi	a0,sp,176
   128c8:	0bc12823          	sw	t3,176(sp)
   128cc:	05c12623          	sw	t3,76(sp)
   128d0:	0bb12a23          	sw	s11,180(sp)
   128d4:	0b912c23          	sw	s9,184(sp)
   128d8:	0b412e23          	sw	s4,188(sp)
   128dc:	0a012023          	sw	zero,160(sp)
   128e0:	0a012223          	sw	zero,164(sp)
   128e4:	0a012423          	sw	zero,168(sp)
   128e8:	0a012623          	sw	zero,172(sp)
   128ec:	5b4140ef          	jal	ra,26ea0 <__eqtf2>
   128f0:	04c12e03          	lw	t3,76(sp)
   128f4:	00050863          	beqz	a0,12904 <_vfprintf_r+0xf98>
   128f8:	00100793          	li	a5,1
   128fc:	41578ab3          	sub	s5,a5,s5
   12900:	0d512623          	sw	s5,204(sp)
   12904:	0cc12783          	lw	a5,204(sp)
   12908:	00fc0c33          	add	s8,s8,a5
   1290c:	0a010593          	addi	a1,sp,160
   12910:	0b010513          	addi	a0,sp,176
   12914:	0bc12823          	sw	t3,176(sp)
   12918:	0bb12a23          	sw	s11,180(sp)
   1291c:	0b912c23          	sw	s9,184(sp)
   12920:	0b412e23          	sw	s4,188(sp)
   12924:	0a012023          	sw	zero,160(sp)
   12928:	0a012223          	sw	zero,164(sp)
   1292c:	0a012423          	sw	zero,168(sp)
   12930:	0a012623          	sw	zero,172(sp)
   12934:	56c140ef          	jal	ra,26ea0 <__eqtf2>
   12938:	03000713          	li	a4,48
   1293c:	00051e63          	bnez	a0,12958 <_vfprintf_r+0xfec>
   12940:	0d812e23          	sw	s8,220(sp)
   12944:	0dc12a03          	lw	s4,220(sp)
   12948:	d5dff06f          	j	126a4 <_vfprintf_r+0xd38>
   1294c:	00178693          	addi	a3,a5,1
   12950:	0cd12e23          	sw	a3,220(sp)
   12954:	00e78023          	sb	a4,0(a5)
   12958:	0dc12783          	lw	a5,220(sp)
   1295c:	ff87e8e3          	bltu	a5,s8,1294c <_vfprintf_r+0xfe0>
   12960:	fe5ff06f          	j	12944 <_vfprintf_r+0xfd8>
   12964:	04600713          	li	a4,70
   12968:	d6eb92e3          	bne	s7,a4,126cc <_vfprintf_r+0xd60>
   1296c:	07905463          	blez	s9,129d4 <_vfprintf_r+0x1068>
   12970:	000b1663          	bnez	s6,1297c <_vfprintf_r+0x1010>
   12974:	00147713          	andi	a4,s0,1
   12978:	0c070663          	beqz	a4,12a44 <_vfprintf_r+0x10d8>
   1297c:	02412783          	lw	a5,36(sp)
   12980:	00fc8733          	add	a4,s9,a5
   12984:	00eb0b33          	add	s6,s6,a4
   12988:	06600793          	li	a5,102
   1298c:	00f12623          	sw	a5,12(sp)
   12990:	0980006f          	j	12a28 <_vfprintf_r+0x10bc>
   12994:	000c0b93          	mv	s7,s8
   12998:	d91ff06f          	j	12728 <_vfprintf_r+0xdbc>
   1299c:	001b8b93          	addi	s7,s7,1
   129a0:	fffbc703          	lbu	a4,-1(s7)
   129a4:	00178793          	addi	a5,a5,1
   129a8:	fee78fa3          	sb	a4,-1(a5)
   129ac:	db9ff06f          	j	12764 <_vfprintf_r+0xdf8>
   129b0:	0d610713          	addi	a4,sp,214
   129b4:	00061863          	bnez	a2,129c4 <_vfprintf_r+0x1058>
   129b8:	03000793          	li	a5,48
   129bc:	0cf10b23          	sb	a5,214(sp)
   129c0:	0d710713          	addi	a4,sp,215
   129c4:	030a8a93          	addi	s5,s5,48
   129c8:	00170793          	addi	a5,a4,1
   129cc:	01570023          	sb	s5,0(a4)
   129d0:	d99ff06f          	j	12768 <_vfprintf_r+0xdfc>
   129d4:	000b1663          	bnez	s6,129e0 <_vfprintf_r+0x1074>
   129d8:	00147713          	andi	a4,s0,1
   129dc:	06070863          	beqz	a4,12a4c <_vfprintf_r+0x10e0>
   129e0:	02412783          	lw	a5,36(sp)
   129e4:	00178713          	addi	a4,a5,1
   129e8:	f9dff06f          	j	12984 <_vfprintf_r+0x1018>
   129ec:	034cc063          	blt	s9,s4,12a0c <_vfprintf_r+0x10a0>
   129f0:	00147713          	andi	a4,s0,1
   129f4:	000c8b13          	mv	s6,s9
   129f8:	00070663          	beqz	a4,12a04 <_vfprintf_r+0x1098>
   129fc:	02412783          	lw	a5,36(sp)
   12a00:	00fc8b33          	add	s6,s9,a5
   12a04:	06700793          	li	a5,103
   12a08:	f85ff06f          	j	1298c <_vfprintf_r+0x1020>
   12a0c:	02412783          	lw	a5,36(sp)
   12a10:	00fa0b33          	add	s6,s4,a5
   12a14:	06700793          	li	a5,103
   12a18:	00f12623          	sw	a5,12(sp)
   12a1c:	01904663          	bgtz	s9,12a28 <_vfprintf_r+0x10bc>
   12a20:	419b0333          	sub	t1,s6,s9
   12a24:	00130b13          	addi	s6,t1,1 # 1 <sulp-0x10073>
   12a28:	40047b93          	andi	s7,s0,1024
   12a2c:	00000c13          	li	s8,0
   12a30:	d60b8ce3          	beqz	s7,127a8 <_vfprintf_r+0xe3c>
   12a34:	00000b93          	li	s7,0
   12a38:	d79058e3          	blez	s9,127a8 <_vfprintf_r+0xe3c>
   12a3c:	0ff00693          	li	a3,255
   12a40:	03c0006f          	j	12a7c <_vfprintf_r+0x1110>
   12a44:	000c8b13          	mv	s6,s9
   12a48:	f41ff06f          	j	12988 <_vfprintf_r+0x101c>
   12a4c:	06600793          	li	a5,102
   12a50:	00f12623          	sw	a5,12(sp)
   12a54:	00100b13          	li	s6,1
   12a58:	fd1ff06f          	j	12a28 <_vfprintf_r+0x10bc>
   12a5c:	03975663          	ble	s9,a4,12a88 <_vfprintf_r+0x111c>
   12a60:	01412783          	lw	a5,20(sp)
   12a64:	40ec8cb3          	sub	s9,s9,a4
   12a68:	0017c703          	lbu	a4,1(a5)
   12a6c:	02070863          	beqz	a4,12a9c <_vfprintf_r+0x1130>
   12a70:	00178793          	addi	a5,a5,1
   12a74:	001b8b93          	addi	s7,s7,1
   12a78:	00f12a23          	sw	a5,20(sp)
   12a7c:	01412783          	lw	a5,20(sp)
   12a80:	0007c703          	lbu	a4,0(a5)
   12a84:	fcd71ce3          	bne	a4,a3,12a5c <_vfprintf_r+0x10f0>
   12a88:	03412583          	lw	a1,52(sp)
   12a8c:	018b8533          	add	a0,s7,s8
   12a90:	981fe0ef          	jal	ra,11410 <__mulsi3>
   12a94:	01650b33          	add	s6,a0,s6
   12a98:	d11ff06f          	j	127a8 <_vfprintf_r+0xe3c>
   12a9c:	001c0c13          	addi	s8,s8,1
   12aa0:	fddff06f          	j	12a7c <_vfprintf_r+0x1110>
   12aa4:	004c0713          	addi	a4,s8,4
   12aa8:	00e12e23          	sw	a4,28(sp)
   12aac:	02047713          	andi	a4,s0,32
   12ab0:	000c2783          	lw	a5,0(s8)
   12ab4:	02070063          	beqz	a4,12ad4 <_vfprintf_r+0x1168>
   12ab8:	02812703          	lw	a4,40(sp)
   12abc:	00e7a023          	sw	a4,0(a5)
   12ac0:	41f75713          	srai	a4,a4,0x1f
   12ac4:	00e7a223          	sw	a4,4(a5)
   12ac8:	01c12c03          	lw	s8,28(sp)
   12acc:	02012483          	lw	s1,32(sp)
   12ad0:	834ff06f          	j	11b04 <_vfprintf_r+0x198>
   12ad4:	01047713          	andi	a4,s0,16
   12ad8:	00070863          	beqz	a4,12ae8 <_vfprintf_r+0x117c>
   12adc:	02812703          	lw	a4,40(sp)
   12ae0:	00e7a023          	sw	a4,0(a5)
   12ae4:	fe5ff06f          	j	12ac8 <_vfprintf_r+0x115c>
   12ae8:	04047713          	andi	a4,s0,64
   12aec:	00070863          	beqz	a4,12afc <_vfprintf_r+0x1190>
   12af0:	02815703          	lhu	a4,40(sp)
   12af4:	00e79023          	sh	a4,0(a5)
   12af8:	fd1ff06f          	j	12ac8 <_vfprintf_r+0x115c>
   12afc:	20047413          	andi	s0,s0,512
   12b00:	fc040ee3          	beqz	s0,12adc <_vfprintf_r+0x1170>
   12b04:	02814703          	lbu	a4,40(sp)
   12b08:	00e78023          	sb	a4,0(a5)
   12b0c:	fbdff06f          	j	12ac8 <_vfprintf_r+0x115c>
   12b10:	01046413          	ori	s0,s0,16
   12b14:	02047793          	andi	a5,s0,32
   12b18:	04078863          	beqz	a5,12b68 <_vfprintf_r+0x11fc>
   12b1c:	007c0c13          	addi	s8,s8,7
   12b20:	ff8c7c13          	andi	s8,s8,-8
   12b24:	008c0793          	addi	a5,s8,8
   12b28:	000c2c83          	lw	s9,0(s8)
   12b2c:	004c2c03          	lw	s8,4(s8)
   12b30:	00f12e23          	sw	a5,28(sp)
   12b34:	bff47413          	andi	s0,s0,-1025
   12b38:	00000793          	li	a5,0
   12b3c:	0c0103a3          	sb	zero,199(sp)
   12b40:	fff00713          	li	a4,-1
   12b44:	1aeb0263          	beq	s6,a4,12ce8 <_vfprintf_r+0x137c>
   12b48:	00040713          	mv	a4,s0
   12b4c:	018ce6b3          	or	a3,s9,s8
   12b50:	f7f47413          	andi	s0,s0,-129
   12b54:	18069a63          	bnez	a3,12ce8 <_vfprintf_r+0x137c>
   12b58:	2e0b0c63          	beqz	s6,12e50 <_vfprintf_r+0x14e4>
   12b5c:	00100713          	li	a4,1
   12b60:	18e79863          	bne	a5,a4,12cf0 <_vfprintf_r+0x1384>
   12b64:	d94ff06f          	j	120f8 <_vfprintf_r+0x78c>
   12b68:	004c0793          	addi	a5,s8,4
   12b6c:	00f12e23          	sw	a5,28(sp)
   12b70:	01047793          	andi	a5,s0,16
   12b74:	00078663          	beqz	a5,12b80 <_vfprintf_r+0x1214>
   12b78:	000c2c83          	lw	s9,0(s8)
   12b7c:	0100006f          	j	12b8c <_vfprintf_r+0x1220>
   12b80:	04047793          	andi	a5,s0,64
   12b84:	00078863          	beqz	a5,12b94 <_vfprintf_r+0x1228>
   12b88:	000c5c83          	lhu	s9,0(s8)
   12b8c:	00000c13          	li	s8,0
   12b90:	fa5ff06f          	j	12b34 <_vfprintf_r+0x11c8>
   12b94:	20047793          	andi	a5,s0,512
   12b98:	fe0780e3          	beqz	a5,12b78 <_vfprintf_r+0x120c>
   12b9c:	000c4c83          	lbu	s9,0(s8)
   12ba0:	fedff06f          	j	12b8c <_vfprintf_r+0x1220>
   12ba4:	004c0793          	addi	a5,s8,4
   12ba8:	00f12e23          	sw	a5,28(sp)
   12bac:	ffff87b7          	lui	a5,0xffff8
   12bb0:	8307c793          	xori	a5,a5,-2000
   12bb4:	0cf11423          	sh	a5,200(sp)
   12bb8:	0002b7b7          	lui	a5,0x2b
   12bbc:	ae078793          	addi	a5,a5,-1312 # 2aae0 <zeroes.4377+0x58>
   12bc0:	07800713          	li	a4,120
   12bc4:	000c2c83          	lw	s9,0(s8)
   12bc8:	04f12223          	sw	a5,68(sp)
   12bcc:	00000c13          	li	s8,0
   12bd0:	00246413          	ori	s0,s0,2
   12bd4:	00200793          	li	a5,2
   12bd8:	00e12623          	sw	a4,12(sp)
   12bdc:	f61ff06f          	j	12b3c <_vfprintf_r+0x11d0>
   12be0:	004c0793          	addi	a5,s8,4
   12be4:	00f12e23          	sw	a5,28(sp)
   12be8:	0c0103a3          	sb	zero,199(sp)
   12bec:	fff00793          	li	a5,-1
   12bf0:	000c2483          	lw	s1,0(s8)
   12bf4:	02fb0463          	beq	s6,a5,12c1c <_vfprintf_r+0x12b0>
   12bf8:	000b0613          	mv	a2,s6
   12bfc:	00000593          	li	a1,0
   12c00:	00048513          	mv	a0,s1
   12c04:	78d050ef          	jal	ra,18b90 <memchr>
   12c08:	00a12823          	sw	a0,16(sp)
   12c0c:	de050a63          	beqz	a0,12200 <_vfprintf_r+0x894>
   12c10:	40950b33          	sub	s6,a0,s1
   12c14:	00012823          	sw	zero,16(sp)
   12c18:	de8ff06f          	j	12200 <_vfprintf_r+0x894>
   12c1c:	00048513          	mv	a0,s1
   12c20:	d31fe0ef          	jal	ra,11950 <strlen>
   12c24:	00050b13          	mv	s6,a0
   12c28:	fedff06f          	j	12c14 <_vfprintf_r+0x12a8>
   12c2c:	01046413          	ori	s0,s0,16
   12c30:	02047793          	andi	a5,s0,32
   12c34:	02078263          	beqz	a5,12c58 <_vfprintf_r+0x12ec>
   12c38:	007c0c13          	addi	s8,s8,7
   12c3c:	ff8c7c13          	andi	s8,s8,-8
   12c40:	008c0793          	addi	a5,s8,8
   12c44:	000c2c83          	lw	s9,0(s8)
   12c48:	004c2c03          	lw	s8,4(s8)
   12c4c:	00f12e23          	sw	a5,28(sp)
   12c50:	00100793          	li	a5,1
   12c54:	ee9ff06f          	j	12b3c <_vfprintf_r+0x11d0>
   12c58:	004c0793          	addi	a5,s8,4
   12c5c:	00f12e23          	sw	a5,28(sp)
   12c60:	01047793          	andi	a5,s0,16
   12c64:	00078663          	beqz	a5,12c70 <_vfprintf_r+0x1304>
   12c68:	000c2c83          	lw	s9,0(s8)
   12c6c:	0100006f          	j	12c7c <_vfprintf_r+0x1310>
   12c70:	04047793          	andi	a5,s0,64
   12c74:	00078863          	beqz	a5,12c84 <_vfprintf_r+0x1318>
   12c78:	000c5c83          	lhu	s9,0(s8)
   12c7c:	00000c13          	li	s8,0
   12c80:	fd1ff06f          	j	12c50 <_vfprintf_r+0x12e4>
   12c84:	20047793          	andi	a5,s0,512
   12c88:	fe0780e3          	beqz	a5,12c68 <_vfprintf_r+0x12fc>
   12c8c:	000c4c83          	lbu	s9,0(s8)
   12c90:	fedff06f          	j	12c7c <_vfprintf_r+0x1310>
   12c94:	0002b7b7          	lui	a5,0x2b
   12c98:	ae078793          	addi	a5,a5,-1312 # 2aae0 <zeroes.4377+0x58>
   12c9c:	f4dfe06f          	j	11be8 <_vfprintf_r+0x27c>
   12ca0:	004c0793          	addi	a5,s8,4
   12ca4:	00f12e23          	sw	a5,28(sp)
   12ca8:	01047793          	andi	a5,s0,16
   12cac:	00078663          	beqz	a5,12cb8 <_vfprintf_r+0x134c>
   12cb0:	000c2c83          	lw	s9,0(s8)
   12cb4:	0100006f          	j	12cc4 <_vfprintf_r+0x1358>
   12cb8:	04047793          	andi	a5,s0,64
   12cbc:	00078863          	beqz	a5,12ccc <_vfprintf_r+0x1360>
   12cc0:	000c5c83          	lhu	s9,0(s8)
   12cc4:	00000c13          	li	s8,0
   12cc8:	f49fe06f          	j	11c10 <_vfprintf_r+0x2a4>
   12ccc:	20047793          	andi	a5,s0,512
   12cd0:	fe0780e3          	beqz	a5,12cb0 <_vfprintf_r+0x1344>
   12cd4:	000c4c83          	lbu	s9,0(s8)
   12cd8:	fedff06f          	j	12cc4 <_vfprintf_r+0x1358>
   12cdc:	00040713          	mv	a4,s0
   12ce0:	00100793          	li	a5,1
   12ce4:	e69ff06f          	j	12b4c <_vfprintf_r+0x11e0>
   12ce8:	00100713          	li	a4,1
   12cec:	c0e78063          	beq	a5,a4,120ec <_vfprintf_r+0x780>
   12cf0:	00200713          	li	a4,2
   12cf4:	12e78263          	beq	a5,a4,12e18 <_vfprintf_r+0x14ac>
   12cf8:	1b010793          	addi	a5,sp,432
   12cfc:	01dc1693          	slli	a3,s8,0x1d
   12d00:	007cf713          	andi	a4,s9,7
   12d04:	003cdc93          	srli	s9,s9,0x3
   12d08:	03070713          	addi	a4,a4,48
   12d0c:	0196ecb3          	or	s9,a3,s9
   12d10:	003c5c13          	srli	s8,s8,0x3
   12d14:	fee78fa3          	sb	a4,-1(a5)
   12d18:	018ce6b3          	or	a3,s9,s8
   12d1c:	fff78493          	addi	s1,a5,-1
   12d20:	02069e63          	bnez	a3,12d5c <_vfprintf_r+0x13f0>
   12d24:	00147693          	andi	a3,s0,1
   12d28:	00068a63          	beqz	a3,12d3c <_vfprintf_r+0x13d0>
   12d2c:	03000693          	li	a3,48
   12d30:	00d70663          	beq	a4,a3,12d3c <_vfprintf_r+0x13d0>
   12d34:	fed48fa3          	sb	a3,-1(s1)
   12d38:	ffe78493          	addi	s1,a5,-2
   12d3c:	1b010793          	addi	a5,sp,432
   12d40:	000b0a93          	mv	s5,s6
   12d44:	00012823          	sw	zero,16(sp)
   12d48:	40978b33          	sub	s6,a5,s1
   12d4c:	00000c13          	li	s8,0
   12d50:	00000b93          	li	s7,0
   12d54:	00000c93          	li	s9,0
   12d58:	8b8ff06f          	j	11e10 <_vfprintf_r+0x4a4>
   12d5c:	00048793          	mv	a5,s1
   12d60:	f9dff06f          	j	12cfc <_vfprintf_r+0x1390>
   12d64:	00000a13          	li	s4,0
   12d68:	1b010d93          	addi	s11,sp,432
   12d6c:	40047a93          	andi	s5,s0,1024
   12d70:	00900b93          	li	s7,9
   12d74:	00a00613          	li	a2,10
   12d78:	00000693          	li	a3,0
   12d7c:	000c8513          	mv	a0,s9
   12d80:	000c0593          	mv	a1,s8
   12d84:	7c8110ef          	jal	ra,2454c <__umoddi3>
   12d88:	03050513          	addi	a0,a0,48
   12d8c:	fead8fa3          	sb	a0,-1(s11)
   12d90:	fffd8493          	addi	s1,s11,-1
   12d94:	001a0a13          	addi	s4,s4,1
   12d98:	040a8a63          	beqz	s5,12dec <_vfprintf_r+0x1480>
   12d9c:	01412783          	lw	a5,20(sp)
   12da0:	0007c783          	lbu	a5,0(a5)
   12da4:	04fa1463          	bne	s4,a5,12dec <_vfprintf_r+0x1480>
   12da8:	0ff00793          	li	a5,255
   12dac:	04fa0063          	beq	s4,a5,12dec <_vfprintf_r+0x1480>
   12db0:	000c1463          	bnez	s8,12db8 <_vfprintf_r+0x144c>
   12db4:	039bfc63          	bleu	s9,s7,12dec <_vfprintf_r+0x1480>
   12db8:	03412783          	lw	a5,52(sp)
   12dbc:	03c12583          	lw	a1,60(sp)
   12dc0:	00000a13          	li	s4,0
   12dc4:	40f484b3          	sub	s1,s1,a5
   12dc8:	00078613          	mv	a2,a5
   12dcc:	00048513          	mv	a0,s1
   12dd0:	319070ef          	jal	ra,1a8e8 <strncpy>
   12dd4:	01412783          	lw	a5,20(sp)
   12dd8:	0017c783          	lbu	a5,1(a5)
   12ddc:	00078863          	beqz	a5,12dec <_vfprintf_r+0x1480>
   12de0:	01412783          	lw	a5,20(sp)
   12de4:	00178793          	addi	a5,a5,1
   12de8:	00f12a23          	sw	a5,20(sp)
   12dec:	000c8513          	mv	a0,s9
   12df0:	000c0593          	mv	a1,s8
   12df4:	00a00613          	li	a2,10
   12df8:	00000693          	li	a3,0
   12dfc:	174110ef          	jal	ra,23f70 <__udivdi3>
   12e00:	00058c13          	mv	s8,a1
   12e04:	00a5e5b3          	or	a1,a1,a0
   12e08:	00050c93          	mv	s9,a0
   12e0c:	f20588e3          	beqz	a1,12d3c <_vfprintf_r+0x13d0>
   12e10:	00048d93          	mv	s11,s1
   12e14:	f61ff06f          	j	12d74 <_vfprintf_r+0x1408>
   12e18:	1b010493          	addi	s1,sp,432
   12e1c:	04412703          	lw	a4,68(sp)
   12e20:	00fcf793          	andi	a5,s9,15
   12e24:	fff48493          	addi	s1,s1,-1
   12e28:	00f707b3          	add	a5,a4,a5
   12e2c:	0007c783          	lbu	a5,0(a5)
   12e30:	004cdc93          	srli	s9,s9,0x4
   12e34:	00f48023          	sb	a5,0(s1)
   12e38:	01cc1793          	slli	a5,s8,0x1c
   12e3c:	0197ecb3          	or	s9,a5,s9
   12e40:	004c5c13          	srli	s8,s8,0x4
   12e44:	018ce7b3          	or	a5,s9,s8
   12e48:	fc079ae3          	bnez	a5,12e1c <_vfprintf_r+0x14b0>
   12e4c:	ef1ff06f          	j	12d3c <_vfprintf_r+0x13d0>
   12e50:	1b010493          	addi	s1,sp,432
   12e54:	ee0794e3          	bnez	a5,12d3c <_vfprintf_r+0x13d0>
   12e58:	00177713          	andi	a4,a4,1
   12e5c:	ee0700e3          	beqz	a4,12d3c <_vfprintf_r+0x13d0>
   12e60:	03000793          	li	a5,48
   12e64:	1af107a3          	sb	a5,431(sp)
   12e68:	a98ff06f          	j	12100 <_vfprintf_r+0x794>
   12e6c:	00c12783          	lw	a5,12(sp)
   12e70:	2e078ce3          	beqz	a5,13968 <_vfprintf_r+0x1ffc>
   12e74:	00c14783          	lbu	a5,12(sp)
   12e78:	0c0103a3          	sb	zero,199(sp)
   12e7c:	01812e23          	sw	s8,28(sp)
   12e80:	14f10623          	sb	a5,332(sp)
   12e84:	f71fe06f          	j	11df4 <_vfprintf_r+0x488>
   12e88:	01060613          	addi	a2,a2,16 # 4000010 <__global_pointer$+0x3fd2e58>
   12e8c:	01dd2223          	sw	t4,4(s10)
   12e90:	0ec12623          	sw	a2,236(sp)
   12e94:	0ed12423          	sw	a3,232(sp)
   12e98:	02df5e63          	ble	a3,t5,12ed4 <_vfprintf_r+0x1568>
   12e9c:	0e410613          	addi	a2,sp,228
   12ea0:	00090593          	mv	a1,s2
   12ea4:	00098513          	mv	a0,s3
   12ea8:	05e12c23          	sw	t5,88(sp)
   12eac:	05c12a23          	sw	t3,84(sp)
   12eb0:	05d12823          	sw	t4,80(sp)
   12eb4:	04e12623          	sw	a4,76(sp)
   12eb8:	68d0b0ef          	jal	ra,1ed44 <__sprint_r>
   12ebc:	240514e3          	bnez	a0,13904 <_vfprintf_r+0x1f98>
   12ec0:	05812f03          	lw	t5,88(sp)
   12ec4:	05412e03          	lw	t3,84(sp)
   12ec8:	05012e83          	lw	t4,80(sp)
   12ecc:	04c12703          	lw	a4,76(sp)
   12ed0:	10c10593          	addi	a1,sp,268
   12ed4:	ff070713          	addi	a4,a4,-16
   12ed8:	00058d13          	mv	s10,a1
   12edc:	f95fe06f          	j	11e70 <_vfprintf_r+0x504>
   12ee0:	01812583          	lw	a1,24(sp)
   12ee4:	01068693          	addi	a3,a3,16
   12ee8:	00fd2223          	sw	a5,4(s10)
   12eec:	00bd2023          	sw	a1,0(s10)
   12ef0:	0ed12623          	sw	a3,236(sp)
   12ef4:	0ee12423          	sw	a4,232(sp)
   12ef8:	02ee5663          	ble	a4,t3,12f24 <_vfprintf_r+0x15b8>
   12efc:	0e410613          	addi	a2,sp,228
   12f00:	00090593          	mv	a1,s2
   12f04:	00098513          	mv	a0,s3
   12f08:	05c12623          	sw	t3,76(sp)
   12f0c:	04f12423          	sw	a5,72(sp)
   12f10:	6350b0ef          	jal	ra,1ed44 <__sprint_r>
   12f14:	1e0518e3          	bnez	a0,13904 <_vfprintf_r+0x1f98>
   12f18:	04c12e03          	lw	t3,76(sp)
   12f1c:	04812783          	lw	a5,72(sp)
   12f20:	10c10613          	addi	a2,sp,268
   12f24:	ff0d8d93          	addi	s11,s11,-16
   12f28:	00060d13          	mv	s10,a2
   12f2c:	868ff06f          	j	11f94 <_vfprintf_r+0x628>
   12f30:	01068693          	addi	a3,a3,16
   12f34:	01bd2223          	sw	s11,4(s10)
   12f38:	0ed12623          	sw	a3,236(sp)
   12f3c:	0ee12423          	sw	a4,232(sp)
   12f40:	02e85263          	ble	a4,a6,12f64 <_vfprintf_r+0x15f8>
   12f44:	0e410613          	addi	a2,sp,228
   12f48:	00090593          	mv	a1,s2
   12f4c:	00098513          	mv	a0,s3
   12f50:	05012423          	sw	a6,72(sp)
   12f54:	5f10b0ef          	jal	ra,1ed44 <__sprint_r>
   12f58:	1a0516e3          	bnez	a0,13904 <_vfprintf_r+0x1f98>
   12f5c:	04812803          	lw	a6,72(sp)
   12f60:	10c10613          	addi	a2,sp,268
   12f64:	ff0a8a93          	addi	s5,s5,-16
   12f68:	00060d13          	mv	s10,a2
   12f6c:	88cff06f          	j	11ff8 <_vfprintf_r+0x68c>
   12f70:	00c12783          	lw	a5,12(sp)
   12f74:	06500713          	li	a4,101
   12f78:	72f75463          	ble	a5,a4,136a0 <_vfprintf_r+0x1d34>
   12f7c:	0f012703          	lw	a4,240(sp)
   12f80:	0a010593          	addi	a1,sp,160
   12f84:	0b010513          	addi	a0,sp,176
   12f88:	0ae12823          	sw	a4,176(sp)
   12f8c:	0f412703          	lw	a4,244(sp)
   12f90:	0a012023          	sw	zero,160(sp)
   12f94:	0a012223          	sw	zero,164(sp)
   12f98:	0ae12a23          	sw	a4,180(sp)
   12f9c:	0f812703          	lw	a4,248(sp)
   12fa0:	0a012423          	sw	zero,168(sp)
   12fa4:	0a012623          	sw	zero,172(sp)
   12fa8:	0ae12c23          	sw	a4,184(sp)
   12fac:	0fc12703          	lw	a4,252(sp)
   12fb0:	0ae12e23          	sw	a4,188(sp)
   12fb4:	6ed130ef          	jal	ra,26ea0 <__eqtf2>
   12fb8:	12051a63          	bnez	a0,130ec <_vfprintf_r+0x1780>
   12fbc:	0002b7b7          	lui	a5,0x2b
   12fc0:	b0878793          	addi	a5,a5,-1272 # 2ab08 <zeroes.4377+0x80>
   12fc4:	00fd2023          	sw	a5,0(s10)
   12fc8:	00100793          	li	a5,1
   12fcc:	00fd2223          	sw	a5,4(s10)
   12fd0:	0e812783          	lw	a5,232(sp)
   12fd4:	001d8d93          	addi	s11,s11,1
   12fd8:	0fb12623          	sw	s11,236(sp)
   12fdc:	00178793          	addi	a5,a5,1
   12fe0:	0ef12423          	sw	a5,232(sp)
   12fe4:	00700713          	li	a4,7
   12fe8:	008d0d13          	addi	s10,s10,8
   12fec:	00f75e63          	ble	a5,a4,13008 <_vfprintf_r+0x169c>
   12ff0:	0e410613          	addi	a2,sp,228
   12ff4:	00090593          	mv	a1,s2
   12ff8:	00098513          	mv	a0,s3
   12ffc:	5490b0ef          	jal	ra,1ed44 <__sprint_r>
   13000:	100512e3          	bnez	a0,13904 <_vfprintf_r+0x1f98>
   13004:	10c10d13          	addi	s10,sp,268
   13008:	0cc12783          	lw	a5,204(sp)
   1300c:	0147c663          	blt	a5,s4,13018 <_vfprintf_r+0x16ac>
   13010:	00147793          	andi	a5,s0,1
   13014:	22078263          	beqz	a5,13238 <_vfprintf_r+0x18cc>
   13018:	03812783          	lw	a5,56(sp)
   1301c:	02412703          	lw	a4,36(sp)
   13020:	008d0d13          	addi	s10,s10,8
   13024:	fefd2c23          	sw	a5,-8(s10)
   13028:	02412783          	lw	a5,36(sp)
   1302c:	fefd2e23          	sw	a5,-4(s10)
   13030:	0ec12783          	lw	a5,236(sp)
   13034:	00e787b3          	add	a5,a5,a4
   13038:	0ef12623          	sw	a5,236(sp)
   1303c:	0e812783          	lw	a5,232(sp)
   13040:	00700713          	li	a4,7
   13044:	00178793          	addi	a5,a5,1
   13048:	0ef12423          	sw	a5,232(sp)
   1304c:	00f75e63          	ble	a5,a4,13068 <_vfprintf_r+0x16fc>
   13050:	0e410613          	addi	a2,sp,228
   13054:	00090593          	mv	a1,s2
   13058:	00098513          	mv	a0,s3
   1305c:	4e90b0ef          	jal	ra,1ed44 <__sprint_r>
   13060:	0a0512e3          	bnez	a0,13904 <_vfprintf_r+0x1f98>
   13064:	10c10d13          	addi	s10,sp,268
   13068:	fffa0493          	addi	s1,s4,-1
   1306c:	1c905663          	blez	s1,13238 <_vfprintf_r+0x18cc>
   13070:	01000a93          	li	s5,16
   13074:	00700b93          	li	s7,7
   13078:	01812603          	lw	a2,24(sp)
   1307c:	0e812783          	lw	a5,232(sp)
   13080:	0ec12703          	lw	a4,236(sp)
   13084:	00cd2023          	sw	a2,0(s10)
   13088:	00178793          	addi	a5,a5,1
   1308c:	008d0693          	addi	a3,s10,8
   13090:	029ac263          	blt	s5,s1,130b4 <_vfprintf_r+0x1748>
   13094:	009d2223          	sw	s1,4(s10)
   13098:	00e484b3          	add	s1,s1,a4
   1309c:	0e912623          	sw	s1,236(sp)
   130a0:	0ef12423          	sw	a5,232(sp)
   130a4:	00700713          	li	a4,7
   130a8:	00068d13          	mv	s10,a3
   130ac:	18f75663          	ble	a5,a4,13238 <_vfprintf_r+0x18cc>
   130b0:	fd5fe06f          	j	12084 <_vfprintf_r+0x718>
   130b4:	01070713          	addi	a4,a4,16
   130b8:	015d2223          	sw	s5,4(s10)
   130bc:	0ee12623          	sw	a4,236(sp)
   130c0:	0ef12423          	sw	a5,232(sp)
   130c4:	00fbde63          	ble	a5,s7,130e0 <_vfprintf_r+0x1774>
   130c8:	0e410613          	addi	a2,sp,228
   130cc:	00090593          	mv	a1,s2
   130d0:	00098513          	mv	a0,s3
   130d4:	4710b0ef          	jal	ra,1ed44 <__sprint_r>
   130d8:	020516e3          	bnez	a0,13904 <_vfprintf_r+0x1f98>
   130dc:	10c10693          	addi	a3,sp,268
   130e0:	ff048493          	addi	s1,s1,-16
   130e4:	00068d13          	mv	s10,a3
   130e8:	f91ff06f          	j	13078 <_vfprintf_r+0x170c>
   130ec:	0cc12703          	lw	a4,204(sp)
   130f0:	1ce04a63          	bgtz	a4,132c4 <_vfprintf_r+0x1958>
   130f4:	0002b7b7          	lui	a5,0x2b
   130f8:	b0878793          	addi	a5,a5,-1272 # 2ab08 <zeroes.4377+0x80>
   130fc:	00fd2023          	sw	a5,0(s10)
   13100:	00100793          	li	a5,1
   13104:	00fd2223          	sw	a5,4(s10)
   13108:	0e812783          	lw	a5,232(sp)
   1310c:	001d8d93          	addi	s11,s11,1
   13110:	0fb12623          	sw	s11,236(sp)
   13114:	00178793          	addi	a5,a5,1
   13118:	0ef12423          	sw	a5,232(sp)
   1311c:	00700713          	li	a4,7
   13120:	008d0d13          	addi	s10,s10,8
   13124:	00f75e63          	ble	a5,a4,13140 <_vfprintf_r+0x17d4>
   13128:	0e410613          	addi	a2,sp,228
   1312c:	00090593          	mv	a1,s2
   13130:	00098513          	mv	a0,s3
   13134:	4110b0ef          	jal	ra,1ed44 <__sprint_r>
   13138:	7c051663          	bnez	a0,13904 <_vfprintf_r+0x1f98>
   1313c:	10c10d13          	addi	s10,sp,268
   13140:	0cc12783          	lw	a5,204(sp)
   13144:	00079863          	bnez	a5,13154 <_vfprintf_r+0x17e8>
   13148:	000a1663          	bnez	s4,13154 <_vfprintf_r+0x17e8>
   1314c:	00147793          	andi	a5,s0,1
   13150:	0e078463          	beqz	a5,13238 <_vfprintf_r+0x18cc>
   13154:	03812783          	lw	a5,56(sp)
   13158:	02412703          	lw	a4,36(sp)
   1315c:	008d0893          	addi	a7,s10,8
   13160:	00fd2023          	sw	a5,0(s10)
   13164:	02412783          	lw	a5,36(sp)
   13168:	00fd2223          	sw	a5,4(s10)
   1316c:	0ec12783          	lw	a5,236(sp)
   13170:	00e787b3          	add	a5,a5,a4
   13174:	0ef12623          	sw	a5,236(sp)
   13178:	0e812783          	lw	a5,232(sp)
   1317c:	00700713          	li	a4,7
   13180:	00178793          	addi	a5,a5,1
   13184:	0ef12423          	sw	a5,232(sp)
   13188:	00f75e63          	ble	a5,a4,131a4 <_vfprintf_r+0x1838>
   1318c:	0e410613          	addi	a2,sp,228
   13190:	00090593          	mv	a1,s2
   13194:	00098513          	mv	a0,s3
   13198:	3ad0b0ef          	jal	ra,1ed44 <__sprint_r>
   1319c:	76051463          	bnez	a0,13904 <_vfprintf_r+0x1f98>
   131a0:	10c10893          	addi	a7,sp,268
   131a4:	0cc12a83          	lw	s5,204(sp)
   131a8:	060ad063          	bgez	s5,13208 <_vfprintf_r+0x189c>
   131ac:	41500ab3          	neg	s5,s5
   131b0:	00088713          	mv	a4,a7
   131b4:	01000b93          	li	s7,16
   131b8:	00700c13          	li	s8,7
   131bc:	01812603          	lw	a2,24(sp)
   131c0:	0e812783          	lw	a5,232(sp)
   131c4:	0ec12683          	lw	a3,236(sp)
   131c8:	00c72023          	sw	a2,0(a4)
   131cc:	00178793          	addi	a5,a5,1
   131d0:	00888893          	addi	a7,a7,8
   131d4:	0b5bcc63          	blt	s7,s5,1328c <_vfprintf_r+0x1920>
   131d8:	01572223          	sw	s5,4(a4)
   131dc:	00da8ab3          	add	s5,s5,a3
   131e0:	0f512623          	sw	s5,236(sp)
   131e4:	0ef12423          	sw	a5,232(sp)
   131e8:	00700713          	li	a4,7
   131ec:	00f75e63          	ble	a5,a4,13208 <_vfprintf_r+0x189c>
   131f0:	0e410613          	addi	a2,sp,228
   131f4:	00090593          	mv	a1,s2
   131f8:	00098513          	mv	a0,s3
   131fc:	3490b0ef          	jal	ra,1ed44 <__sprint_r>
   13200:	70051263          	bnez	a0,13904 <_vfprintf_r+0x1f98>
   13204:	10c10893          	addi	a7,sp,268
   13208:	0ec12783          	lw	a5,236(sp)
   1320c:	0098a023          	sw	s1,0(a7)
   13210:	0148a223          	sw	s4,4(a7)
   13214:	014787b3          	add	a5,a5,s4
   13218:	0ef12623          	sw	a5,236(sp)
   1321c:	0e812783          	lw	a5,232(sp)
   13220:	00700713          	li	a4,7
   13224:	00888d13          	addi	s10,a7,8
   13228:	00178793          	addi	a5,a5,1
   1322c:	0ef12423          	sw	a5,232(sp)
   13230:	00f75463          	ble	a5,a4,13238 <_vfprintf_r+0x18cc>
   13234:	e51fe06f          	j	12084 <_vfprintf_r+0x718>
   13238:	00447413          	andi	s0,s0,4
   1323c:	66041463          	bnez	s0,138a4 <_vfprintf_r+0x1f38>
   13240:	02c12d03          	lw	s10,44(sp)
   13244:	03012783          	lw	a5,48(sp)
   13248:	00fd5463          	ble	a5,s10,13250 <_vfprintf_r+0x18e4>
   1324c:	00078d13          	mv	s10,a5
   13250:	02812783          	lw	a5,40(sp)
   13254:	01a787b3          	add	a5,a5,s10
   13258:	02f12423          	sw	a5,40(sp)
   1325c:	0ec12783          	lw	a5,236(sp)
   13260:	00078c63          	beqz	a5,13278 <_vfprintf_r+0x190c>
   13264:	0e410613          	addi	a2,sp,228
   13268:	00090593          	mv	a1,s2
   1326c:	00098513          	mv	a0,s3
   13270:	2d50b0ef          	jal	ra,1ed44 <__sprint_r>
   13274:	68051863          	bnez	a0,13904 <_vfprintf_r+0x1f98>
   13278:	01012783          	lw	a5,16(sp)
   1327c:	0e012423          	sw	zero,232(sp)
   13280:	6c079c63          	bnez	a5,13958 <_vfprintf_r+0x1fec>
   13284:	10c10d13          	addi	s10,sp,268
   13288:	841ff06f          	j	12ac8 <_vfprintf_r+0x115c>
   1328c:	01068693          	addi	a3,a3,16
   13290:	01772223          	sw	s7,4(a4)
   13294:	0ed12623          	sw	a3,236(sp)
   13298:	0ef12423          	sw	a5,232(sp)
   1329c:	00fc5e63          	ble	a5,s8,132b8 <_vfprintf_r+0x194c>
   132a0:	0e410613          	addi	a2,sp,228
   132a4:	00090593          	mv	a1,s2
   132a8:	00098513          	mv	a0,s3
   132ac:	2990b0ef          	jal	ra,1ed44 <__sprint_r>
   132b0:	64051a63          	bnez	a0,13904 <_vfprintf_r+0x1f98>
   132b4:	10c10893          	addi	a7,sp,268
   132b8:	ff0a8a93          	addi	s5,s5,-16
   132bc:	00088713          	mv	a4,a7
   132c0:	efdff06f          	j	131bc <_vfprintf_r+0x1850>
   132c4:	000c8a93          	mv	s5,s9
   132c8:	019a5463          	ble	s9,s4,132d0 <_vfprintf_r+0x1964>
   132cc:	000a0a93          	mv	s5,s4
   132d0:	05505263          	blez	s5,13314 <_vfprintf_r+0x19a8>
   132d4:	0e812703          	lw	a4,232(sp)
   132d8:	01ba8db3          	add	s11,s5,s11
   132dc:	009d2023          	sw	s1,0(s10)
   132e0:	00170713          	addi	a4,a4,1
   132e4:	015d2223          	sw	s5,4(s10)
   132e8:	0fb12623          	sw	s11,236(sp)
   132ec:	0ee12423          	sw	a4,232(sp)
   132f0:	00700693          	li	a3,7
   132f4:	008d0d13          	addi	s10,s10,8
   132f8:	00e6de63          	ble	a4,a3,13314 <_vfprintf_r+0x19a8>
   132fc:	0e410613          	addi	a2,sp,228
   13300:	00090593          	mv	a1,s2
   13304:	00098513          	mv	a0,s3
   13308:	23d0b0ef          	jal	ra,1ed44 <__sprint_r>
   1330c:	5e051c63          	bnez	a0,13904 <_vfprintf_r+0x1f98>
   13310:	10c10d13          	addi	s10,sp,268
   13314:	000ad463          	bgez	s5,1331c <_vfprintf_r+0x19b0>
   13318:	00000a93          	li	s5,0
   1331c:	415c8ab3          	sub	s5,s9,s5
   13320:	05505e63          	blez	s5,1337c <_vfprintf_r+0x1a10>
   13324:	01000b13          	li	s6,16
   13328:	00700d93          	li	s11,7
   1332c:	01812783          	lw	a5,24(sp)
   13330:	0e812703          	lw	a4,232(sp)
   13334:	0ec12683          	lw	a3,236(sp)
   13338:	00fd2023          	sw	a5,0(s10)
   1333c:	00170713          	addi	a4,a4,1
   13340:	008d0613          	addi	a2,s10,8
   13344:	195b4c63          	blt	s6,s5,134dc <_vfprintf_r+0x1b70>
   13348:	015d2223          	sw	s5,4(s10)
   1334c:	00da8ab3          	add	s5,s5,a3
   13350:	0f512623          	sw	s5,236(sp)
   13354:	0ee12423          	sw	a4,232(sp)
   13358:	00700693          	li	a3,7
   1335c:	00060d13          	mv	s10,a2
   13360:	00e6de63          	ble	a4,a3,1337c <_vfprintf_r+0x1a10>
   13364:	0e410613          	addi	a2,sp,228
   13368:	00090593          	mv	a1,s2
   1336c:	00098513          	mv	a0,s3
   13370:	1d50b0ef          	jal	ra,1ed44 <__sprint_r>
   13374:	58051863          	bnez	a0,13904 <_vfprintf_r+0x1f98>
   13378:	10c10d13          	addi	s10,sp,268
   1337c:	40047793          	andi	a5,s0,1024
   13380:	01948ab3          	add	s5,s1,s9
   13384:	02078063          	beqz	a5,133a4 <_vfprintf_r+0x1a38>
   13388:	00700b13          	li	s6,7
   1338c:	01448db3          	add	s11,s1,s4
   13390:	180b9263          	bnez	s7,13514 <_vfprintf_r+0x1ba8>
   13394:	180c1263          	bnez	s8,13518 <_vfprintf_r+0x1bac>
   13398:	014487b3          	add	a5,s1,s4
   1339c:	0157f463          	bleu	s5,a5,133a4 <_vfprintf_r+0x1a38>
   133a0:	00078a93          	mv	s5,a5
   133a4:	0cc12783          	lw	a5,204(sp)
   133a8:	0147c663          	blt	a5,s4,133b4 <_vfprintf_r+0x1a48>
   133ac:	00147793          	andi	a5,s0,1
   133b0:	04078a63          	beqz	a5,13404 <_vfprintf_r+0x1a98>
   133b4:	03812783          	lw	a5,56(sp)
   133b8:	02412703          	lw	a4,36(sp)
   133bc:	008d0d13          	addi	s10,s10,8
   133c0:	fefd2c23          	sw	a5,-8(s10)
   133c4:	02412783          	lw	a5,36(sp)
   133c8:	fefd2e23          	sw	a5,-4(s10)
   133cc:	0ec12783          	lw	a5,236(sp)
   133d0:	00e787b3          	add	a5,a5,a4
   133d4:	0ef12623          	sw	a5,236(sp)
   133d8:	0e812783          	lw	a5,232(sp)
   133dc:	00700713          	li	a4,7
   133e0:	00178793          	addi	a5,a5,1
   133e4:	0ef12423          	sw	a5,232(sp)
   133e8:	00f75e63          	ble	a5,a4,13404 <_vfprintf_r+0x1a98>
   133ec:	0e410613          	addi	a2,sp,228
   133f0:	00090593          	mv	a1,s2
   133f4:	00098513          	mv	a0,s3
   133f8:	14d0b0ef          	jal	ra,1ed44 <__sprint_r>
   133fc:	50051463          	bnez	a0,13904 <_vfprintf_r+0x1f98>
   13400:	10c10d13          	addi	s10,sp,268
   13404:	014484b3          	add	s1,s1,s4
   13408:	415487b3          	sub	a5,s1,s5
   1340c:	0cc12483          	lw	s1,204(sp)
   13410:	409a04b3          	sub	s1,s4,s1
   13414:	0097d463          	ble	s1,a5,1341c <_vfprintf_r+0x1ab0>
   13418:	00078493          	mv	s1,a5
   1341c:	04905463          	blez	s1,13464 <_vfprintf_r+0x1af8>
   13420:	0ec12783          	lw	a5,236(sp)
   13424:	015d2023          	sw	s5,0(s10)
   13428:	009d2223          	sw	s1,4(s10)
   1342c:	00f487b3          	add	a5,s1,a5
   13430:	0ef12623          	sw	a5,236(sp)
   13434:	0e812783          	lw	a5,232(sp)
   13438:	00700713          	li	a4,7
   1343c:	008d0d13          	addi	s10,s10,8
   13440:	00178793          	addi	a5,a5,1
   13444:	0ef12423          	sw	a5,232(sp)
   13448:	00f75e63          	ble	a5,a4,13464 <_vfprintf_r+0x1af8>
   1344c:	0e410613          	addi	a2,sp,228
   13450:	00090593          	mv	a1,s2
   13454:	00098513          	mv	a0,s3
   13458:	0ed0b0ef          	jal	ra,1ed44 <__sprint_r>
   1345c:	4a051463          	bnez	a0,13904 <_vfprintf_r+0x1f98>
   13460:	10c10d13          	addi	s10,sp,268
   13464:	00048793          	mv	a5,s1
   13468:	0004d463          	bgez	s1,13470 <_vfprintf_r+0x1b04>
   1346c:	00000793          	li	a5,0
   13470:	0cc12483          	lw	s1,204(sp)
   13474:	409a04b3          	sub	s1,s4,s1
   13478:	40f484b3          	sub	s1,s1,a5
   1347c:	da905ee3          	blez	s1,13238 <_vfprintf_r+0x18cc>
   13480:	01000a93          	li	s5,16
   13484:	00700b93          	li	s7,7
   13488:	01812603          	lw	a2,24(sp)
   1348c:	0e812783          	lw	a5,232(sp)
   13490:	0ec12703          	lw	a4,236(sp)
   13494:	00cd2023          	sw	a2,0(s10)
   13498:	00178793          	addi	a5,a5,1
   1349c:	008d0693          	addi	a3,s10,8
   134a0:	be9adae3          	ble	s1,s5,13094 <_vfprintf_r+0x1728>
   134a4:	01070713          	addi	a4,a4,16
   134a8:	015d2223          	sw	s5,4(s10)
   134ac:	0ee12623          	sw	a4,236(sp)
   134b0:	0ef12423          	sw	a5,232(sp)
   134b4:	00fbde63          	ble	a5,s7,134d0 <_vfprintf_r+0x1b64>
   134b8:	0e410613          	addi	a2,sp,228
   134bc:	00090593          	mv	a1,s2
   134c0:	00098513          	mv	a0,s3
   134c4:	0810b0ef          	jal	ra,1ed44 <__sprint_r>
   134c8:	42051e63          	bnez	a0,13904 <_vfprintf_r+0x1f98>
   134cc:	10c10693          	addi	a3,sp,268
   134d0:	ff048493          	addi	s1,s1,-16
   134d4:	00068d13          	mv	s10,a3
   134d8:	fb1ff06f          	j	13488 <_vfprintf_r+0x1b1c>
   134dc:	01068693          	addi	a3,a3,16
   134e0:	016d2223          	sw	s6,4(s10)
   134e4:	0ed12623          	sw	a3,236(sp)
   134e8:	0ee12423          	sw	a4,232(sp)
   134ec:	00edde63          	ble	a4,s11,13508 <_vfprintf_r+0x1b9c>
   134f0:	0e410613          	addi	a2,sp,228
   134f4:	00090593          	mv	a1,s2
   134f8:	00098513          	mv	a0,s3
   134fc:	0490b0ef          	jal	ra,1ed44 <__sprint_r>
   13500:	40051263          	bnez	a0,13904 <_vfprintf_r+0x1f98>
   13504:	10c10613          	addi	a2,sp,268
   13508:	ff0a8a93          	addi	s5,s5,-16
   1350c:	00060d13          	mv	s10,a2
   13510:	e1dff06f          	j	1332c <_vfprintf_r+0x19c0>
   13514:	0e0c0263          	beqz	s8,135f8 <_vfprintf_r+0x1c8c>
   13518:	fffc0c13          	addi	s8,s8,-1
   1351c:	03c12783          	lw	a5,60(sp)
   13520:	03412703          	lw	a4,52(sp)
   13524:	008d0d13          	addi	s10,s10,8
   13528:	fefd2c23          	sw	a5,-8(s10)
   1352c:	03412783          	lw	a5,52(sp)
   13530:	fefd2e23          	sw	a5,-4(s10)
   13534:	0ec12783          	lw	a5,236(sp)
   13538:	00e787b3          	add	a5,a5,a4
   1353c:	0ef12623          	sw	a5,236(sp)
   13540:	0e812783          	lw	a5,232(sp)
   13544:	00178793          	addi	a5,a5,1
   13548:	0ef12423          	sw	a5,232(sp)
   1354c:	00fb5e63          	ble	a5,s6,13568 <_vfprintf_r+0x1bfc>
   13550:	0e410613          	addi	a2,sp,228
   13554:	00090593          	mv	a1,s2
   13558:	00098513          	mv	a0,s3
   1355c:	7e80b0ef          	jal	ra,1ed44 <__sprint_r>
   13560:	3a051263          	bnez	a0,13904 <_vfprintf_r+0x1f98>
   13564:	10c10d13          	addi	s10,sp,268
   13568:	01412783          	lw	a5,20(sp)
   1356c:	415d8733          	sub	a4,s11,s5
   13570:	0007c783          	lbu	a5,0(a5)
   13574:	00f75463          	ble	a5,a4,1357c <_vfprintf_r+0x1c10>
   13578:	00070793          	mv	a5,a4
   1357c:	04f05663          	blez	a5,135c8 <_vfprintf_r+0x1c5c>
   13580:	0ec12703          	lw	a4,236(sp)
   13584:	015d2023          	sw	s5,0(s10)
   13588:	00fd2223          	sw	a5,4(s10)
   1358c:	00e78733          	add	a4,a5,a4
   13590:	0ee12623          	sw	a4,236(sp)
   13594:	0e812703          	lw	a4,232(sp)
   13598:	008d0d13          	addi	s10,s10,8
   1359c:	00170713          	addi	a4,a4,1
   135a0:	0ee12423          	sw	a4,232(sp)
   135a4:	02eb5263          	ble	a4,s6,135c8 <_vfprintf_r+0x1c5c>
   135a8:	0e410613          	addi	a2,sp,228
   135ac:	00090593          	mv	a1,s2
   135b0:	00098513          	mv	a0,s3
   135b4:	00f12623          	sw	a5,12(sp)
   135b8:	78c0b0ef          	jal	ra,1ed44 <__sprint_r>
   135bc:	34051463          	bnez	a0,13904 <_vfprintf_r+0x1f98>
   135c0:	00c12783          	lw	a5,12(sp)
   135c4:	10c10d13          	addi	s10,sp,268
   135c8:	00078713          	mv	a4,a5
   135cc:	0007d463          	bgez	a5,135d4 <_vfprintf_r+0x1c68>
   135d0:	00000713          	li	a4,0
   135d4:	01412783          	lw	a5,20(sp)
   135d8:	01000813          	li	a6,16
   135dc:	0007c783          	lbu	a5,0(a5)
   135e0:	40e787b3          	sub	a5,a5,a4
   135e4:	06f04663          	bgtz	a5,13650 <_vfprintf_r+0x1ce4>
   135e8:	01412783          	lw	a5,20(sp)
   135ec:	0007c783          	lbu	a5,0(a5)
   135f0:	00fa8ab3          	add	s5,s5,a5
   135f4:	d9dff06f          	j	13390 <_vfprintf_r+0x1a24>
   135f8:	01412783          	lw	a5,20(sp)
   135fc:	fffb8b93          	addi	s7,s7,-1
   13600:	fff78793          	addi	a5,a5,-1
   13604:	00f12a23          	sw	a5,20(sp)
   13608:	f15ff06f          	j	1351c <_vfprintf_r+0x1bb0>
   1360c:	01068693          	addi	a3,a3,16
   13610:	010d2223          	sw	a6,4(s10)
   13614:	0ed12623          	sw	a3,236(sp)
   13618:	0ee12423          	sw	a4,232(sp)
   1361c:	02eb5663          	ble	a4,s6,13648 <_vfprintf_r+0x1cdc>
   13620:	0e410613          	addi	a2,sp,228
   13624:	00090593          	mv	a1,s2
   13628:	00098513          	mv	a0,s3
   1362c:	05012423          	sw	a6,72(sp)
   13630:	00f12623          	sw	a5,12(sp)
   13634:	7100b0ef          	jal	ra,1ed44 <__sprint_r>
   13638:	2c051663          	bnez	a0,13904 <_vfprintf_r+0x1f98>
   1363c:	04812803          	lw	a6,72(sp)
   13640:	00c12783          	lw	a5,12(sp)
   13644:	10c10613          	addi	a2,sp,268
   13648:	ff078793          	addi	a5,a5,-16
   1364c:	00060d13          	mv	s10,a2
   13650:	01812583          	lw	a1,24(sp)
   13654:	0e812703          	lw	a4,232(sp)
   13658:	0ec12683          	lw	a3,236(sp)
   1365c:	00bd2023          	sw	a1,0(s10)
   13660:	00170713          	addi	a4,a4,1
   13664:	008d0613          	addi	a2,s10,8
   13668:	faf842e3          	blt	a6,a5,1360c <_vfprintf_r+0x1ca0>
   1366c:	00fd2223          	sw	a5,4(s10)
   13670:	00d787b3          	add	a5,a5,a3
   13674:	0ef12623          	sw	a5,236(sp)
   13678:	0ee12423          	sw	a4,232(sp)
   1367c:	00060d13          	mv	s10,a2
   13680:	f6eb54e3          	ble	a4,s6,135e8 <_vfprintf_r+0x1c7c>
   13684:	0e410613          	addi	a2,sp,228
   13688:	00090593          	mv	a1,s2
   1368c:	00098513          	mv	a0,s3
   13690:	6b40b0ef          	jal	ra,1ed44 <__sprint_r>
   13694:	26051863          	bnez	a0,13904 <_vfprintf_r+0x1f98>
   13698:	10c10d13          	addi	s10,sp,268
   1369c:	f4dff06f          	j	135e8 <_vfprintf_r+0x1c7c>
   136a0:	0e812783          	lw	a5,232(sp)
   136a4:	00100713          	li	a4,1
   136a8:	009d2023          	sw	s1,0(s10)
   136ac:	001d8d93          	addi	s11,s11,1
   136b0:	00178793          	addi	a5,a5,1
   136b4:	008d0b93          	addi	s7,s10,8
   136b8:	01474663          	blt	a4,s4,136c4 <_vfprintf_r+0x1d58>
   136bc:	00147693          	andi	a3,s0,1
   136c0:	1c068663          	beqz	a3,1388c <_vfprintf_r+0x1f20>
   136c4:	00100713          	li	a4,1
   136c8:	00ed2223          	sw	a4,4(s10)
   136cc:	0fb12623          	sw	s11,236(sp)
   136d0:	0ef12423          	sw	a5,232(sp)
   136d4:	00700713          	li	a4,7
   136d8:	00f75e63          	ble	a5,a4,136f4 <_vfprintf_r+0x1d88>
   136dc:	0e410613          	addi	a2,sp,228
   136e0:	00090593          	mv	a1,s2
   136e4:	00098513          	mv	a0,s3
   136e8:	65c0b0ef          	jal	ra,1ed44 <__sprint_r>
   136ec:	20051c63          	bnez	a0,13904 <_vfprintf_r+0x1f98>
   136f0:	10c10b93          	addi	s7,sp,268
   136f4:	03812783          	lw	a5,56(sp)
   136f8:	02412703          	lw	a4,36(sp)
   136fc:	008b8b93          	addi	s7,s7,8
   13700:	fefbac23          	sw	a5,-8(s7)
   13704:	02412783          	lw	a5,36(sp)
   13708:	fefbae23          	sw	a5,-4(s7)
   1370c:	0ec12783          	lw	a5,236(sp)
   13710:	00e787b3          	add	a5,a5,a4
   13714:	0ef12623          	sw	a5,236(sp)
   13718:	0e812783          	lw	a5,232(sp)
   1371c:	00700713          	li	a4,7
   13720:	00178793          	addi	a5,a5,1
   13724:	0ef12423          	sw	a5,232(sp)
   13728:	00f75e63          	ble	a5,a4,13744 <_vfprintf_r+0x1dd8>
   1372c:	0e410613          	addi	a2,sp,228
   13730:	00090593          	mv	a1,s2
   13734:	00098513          	mv	a0,s3
   13738:	60c0b0ef          	jal	ra,1ed44 <__sprint_r>
   1373c:	1c051463          	bnez	a0,13904 <_vfprintf_r+0x1f98>
   13740:	10c10b93          	addi	s7,sp,268
   13744:	0f012783          	lw	a5,240(sp)
   13748:	0a010593          	addi	a1,sp,160
   1374c:	0b010513          	addi	a0,sp,176
   13750:	0af12823          	sw	a5,176(sp)
   13754:	0f412783          	lw	a5,244(sp)
   13758:	fffa0a93          	addi	s5,s4,-1
   1375c:	0a012023          	sw	zero,160(sp)
   13760:	0af12a23          	sw	a5,180(sp)
   13764:	0f812783          	lw	a5,248(sp)
   13768:	0a012223          	sw	zero,164(sp)
   1376c:	0a012423          	sw	zero,168(sp)
   13770:	0af12c23          	sw	a5,184(sp)
   13774:	0fc12783          	lw	a5,252(sp)
   13778:	0a012623          	sw	zero,172(sp)
   1377c:	0af12e23          	sw	a5,188(sp)
   13780:	720130ef          	jal	ra,26ea0 <__eqtf2>
   13784:	08050663          	beqz	a0,13810 <_vfprintf_r+0x1ea4>
   13788:	0ec12783          	lw	a5,236(sp)
   1378c:	0e812703          	lw	a4,232(sp)
   13790:	00148493          	addi	s1,s1,1
   13794:	fff78793          	addi	a5,a5,-1
   13798:	014787b3          	add	a5,a5,s4
   1379c:	00170713          	addi	a4,a4,1
   137a0:	009ba023          	sw	s1,0(s7)
   137a4:	015ba223          	sw	s5,4(s7)
   137a8:	0ef12623          	sw	a5,236(sp)
   137ac:	0ee12423          	sw	a4,232(sp)
   137b0:	00700793          	li	a5,7
   137b4:	008b8b93          	addi	s7,s7,8
   137b8:	00e7de63          	ble	a4,a5,137d4 <_vfprintf_r+0x1e68>
   137bc:	0e410613          	addi	a2,sp,228
   137c0:	00090593          	mv	a1,s2
   137c4:	00098513          	mv	a0,s3
   137c8:	57c0b0ef          	jal	ra,1ed44 <__sprint_r>
   137cc:	12051c63          	bnez	a0,13904 <_vfprintf_r+0x1f98>
   137d0:	10c10b93          	addi	s7,sp,268
   137d4:	0d410793          	addi	a5,sp,212
   137d8:	00fba023          	sw	a5,0(s7)
   137dc:	04012783          	lw	a5,64(sp)
   137e0:	04012703          	lw	a4,64(sp)
   137e4:	008b8d13          	addi	s10,s7,8
   137e8:	00fba223          	sw	a5,4(s7)
   137ec:	0ec12783          	lw	a5,236(sp)
   137f0:	00e787b3          	add	a5,a5,a4
   137f4:	0ef12623          	sw	a5,236(sp)
   137f8:	0e812783          	lw	a5,232(sp)
   137fc:	00700713          	li	a4,7
   13800:	00178793          	addi	a5,a5,1
   13804:	0ef12423          	sw	a5,232(sp)
   13808:	a2f758e3          	ble	a5,a4,13238 <_vfprintf_r+0x18cc>
   1380c:	879fe06f          	j	12084 <_vfprintf_r+0x718>
   13810:	fd5052e3          	blez	s5,137d4 <_vfprintf_r+0x1e68>
   13814:	01000493          	li	s1,16
   13818:	00700c13          	li	s8,7
   1381c:	01812603          	lw	a2,24(sp)
   13820:	0e812703          	lw	a4,232(sp)
   13824:	0ec12783          	lw	a5,236(sp)
   13828:	00cba023          	sw	a2,0(s7)
   1382c:	00170713          	addi	a4,a4,1
   13830:	008b8693          	addi	a3,s7,8
   13834:	0354c063          	blt	s1,s5,13854 <_vfprintf_r+0x1ee8>
   13838:	00fa87b3          	add	a5,s5,a5
   1383c:	015ba223          	sw	s5,4(s7)
   13840:	0ef12623          	sw	a5,236(sp)
   13844:	0ee12423          	sw	a4,232(sp)
   13848:	00700793          	li	a5,7
   1384c:	00068b93          	mv	s7,a3
   13850:	f69ff06f          	j	137b8 <_vfprintf_r+0x1e4c>
   13854:	01078793          	addi	a5,a5,16
   13858:	009ba223          	sw	s1,4(s7)
   1385c:	0ef12623          	sw	a5,236(sp)
   13860:	0ee12423          	sw	a4,232(sp)
   13864:	00ec5e63          	ble	a4,s8,13880 <_vfprintf_r+0x1f14>
   13868:	0e410613          	addi	a2,sp,228
   1386c:	00090593          	mv	a1,s2
   13870:	00098513          	mv	a0,s3
   13874:	4d00b0ef          	jal	ra,1ed44 <__sprint_r>
   13878:	08051663          	bnez	a0,13904 <_vfprintf_r+0x1f98>
   1387c:	10c10693          	addi	a3,sp,268
   13880:	ff0a8a93          	addi	s5,s5,-16
   13884:	00068b93          	mv	s7,a3
   13888:	f95ff06f          	j	1381c <_vfprintf_r+0x1eb0>
   1388c:	00ed2223          	sw	a4,4(s10)
   13890:	0fb12623          	sw	s11,236(sp)
   13894:	0ef12423          	sw	a5,232(sp)
   13898:	00700713          	li	a4,7
   1389c:	f2f75ce3          	ble	a5,a4,137d4 <_vfprintf_r+0x1e68>
   138a0:	f1dff06f          	j	137bc <_vfprintf_r+0x1e50>
   138a4:	02c12783          	lw	a5,44(sp)
   138a8:	03012703          	lw	a4,48(sp)
   138ac:	40e78433          	sub	s0,a5,a4
   138b0:	988058e3          	blez	s0,13240 <_vfprintf_r+0x18d4>
   138b4:	0002b4b7          	lui	s1,0x2b
   138b8:	01000a93          	li	s5,16
   138bc:	a7848493          	addi	s1,s1,-1416 # 2aa78 <blanks.4376>
   138c0:	00700b93          	li	s7,7
   138c4:	0e812783          	lw	a5,232(sp)
   138c8:	009d2023          	sw	s1,0(s10)
   138cc:	0ec12703          	lw	a4,236(sp)
   138d0:	00178793          	addi	a5,a5,1
   138d4:	048ac663          	blt	s5,s0,13920 <_vfprintf_r+0x1fb4>
   138d8:	008d2223          	sw	s0,4(s10)
   138dc:	00e40433          	add	s0,s0,a4
   138e0:	0e812623          	sw	s0,236(sp)
   138e4:	0ef12423          	sw	a5,232(sp)
   138e8:	00700713          	li	a4,7
   138ec:	94f75ae3          	ble	a5,a4,13240 <_vfprintf_r+0x18d4>
   138f0:	0e410613          	addi	a2,sp,228
   138f4:	00090593          	mv	a1,s2
   138f8:	00098513          	mv	a0,s3
   138fc:	4480b0ef          	jal	ra,1ed44 <__sprint_r>
   13900:	940500e3          	beqz	a0,13240 <_vfprintf_r+0x18d4>
   13904:	01012783          	lw	a5,16(sp)
   13908:	00079463          	bnez	a5,13910 <_vfprintf_r+0x1fa4>
   1390c:	9d1fe06f          	j	122dc <_vfprintf_r+0x970>
   13910:	00078593          	mv	a1,a5
   13914:	00098513          	mv	a0,s3
   13918:	7b9010ef          	jal	ra,158d0 <_free_r>
   1391c:	9c1fe06f          	j	122dc <_vfprintf_r+0x970>
   13920:	01070713          	addi	a4,a4,16
   13924:	015d2223          	sw	s5,4(s10)
   13928:	0ee12623          	sw	a4,236(sp)
   1392c:	0ef12423          	sw	a5,232(sp)
   13930:	008d0d13          	addi	s10,s10,8
   13934:	00fbde63          	ble	a5,s7,13950 <_vfprintf_r+0x1fe4>
   13938:	0e410613          	addi	a2,sp,228
   1393c:	00090593          	mv	a1,s2
   13940:	00098513          	mv	a0,s3
   13944:	4000b0ef          	jal	ra,1ed44 <__sprint_r>
   13948:	fa051ee3          	bnez	a0,13904 <_vfprintf_r+0x1f98>
   1394c:	10c10d13          	addi	s10,sp,268
   13950:	ff040413          	addi	s0,s0,-16
   13954:	f71ff06f          	j	138c4 <_vfprintf_r+0x1f58>
   13958:	01012583          	lw	a1,16(sp)
   1395c:	00098513          	mv	a0,s3
   13960:	771010ef          	jal	ra,158d0 <_free_r>
   13964:	921ff06f          	j	13284 <_vfprintf_r+0x1918>
   13968:	0ec12783          	lw	a5,236(sp)
   1396c:	00079463          	bnez	a5,13974 <_vfprintf_r+0x2008>
   13970:	96dfe06f          	j	122dc <_vfprintf_r+0x970>
   13974:	0e410613          	addi	a2,sp,228
   13978:	00090593          	mv	a1,s2
   1397c:	00098513          	mv	a0,s3
   13980:	3c40b0ef          	jal	ra,1ed44 <__sprint_r>
   13984:	959fe06f          	j	122dc <_vfprintf_r+0x970>

00013988 <vfprintf>:
   13988:	00060693          	mv	a3,a2
   1398c:	00058613          	mv	a2,a1
   13990:	00050593          	mv	a1,a0
   13994:	8681a503          	lw	a0,-1944(gp) # 2ca20 <_impure_ptr>
   13998:	fd5fd06f          	j	1196c <_vfprintf_r>

0001399c <__sbprintf>:
   1399c:	00c5d783          	lhu	a5,12(a1)
   139a0:	b8010113          	addi	sp,sp,-1152
   139a4:	46812c23          	sw	s0,1144(sp)
   139a8:	ffd7f793          	andi	a5,a5,-3
   139ac:	00f11a23          	sh	a5,20(sp)
   139b0:	0645a783          	lw	a5,100(a1)
   139b4:	00058413          	mv	s0,a1
   139b8:	46912a23          	sw	s1,1140(sp)
   139bc:	06f12623          	sw	a5,108(sp)
   139c0:	00e5d783          	lhu	a5,14(a1)
   139c4:	47212823          	sw	s2,1136(sp)
   139c8:	46112e23          	sw	ra,1148(sp)
   139cc:	00f11b23          	sh	a5,22(sp)
   139d0:	01c5a783          	lw	a5,28(a1)
   139d4:	00050913          	mv	s2,a0
   139d8:	02012023          	sw	zero,32(sp)
   139dc:	02f12223          	sw	a5,36(sp)
   139e0:	0245a783          	lw	a5,36(a1)
   139e4:	00810593          	addi	a1,sp,8
   139e8:	02f12623          	sw	a5,44(sp)
   139ec:	07010793          	addi	a5,sp,112
   139f0:	00f12423          	sw	a5,8(sp)
   139f4:	00f12c23          	sw	a5,24(sp)
   139f8:	40000793          	li	a5,1024
   139fc:	00f12823          	sw	a5,16(sp)
   13a00:	00f12e23          	sw	a5,28(sp)
   13a04:	f69fd0ef          	jal	ra,1196c <_vfprintf_r>
   13a08:	00050493          	mv	s1,a0
   13a0c:	00054c63          	bltz	a0,13a24 <__sbprintf+0x88>
   13a10:	00810593          	addi	a1,sp,8
   13a14:	00090513          	mv	a0,s2
   13a18:	111010ef          	jal	ra,15328 <_fflush_r>
   13a1c:	00050463          	beqz	a0,13a24 <__sbprintf+0x88>
   13a20:	fff00493          	li	s1,-1
   13a24:	01415783          	lhu	a5,20(sp)
   13a28:	0407f793          	andi	a5,a5,64
   13a2c:	00078863          	beqz	a5,13a3c <__sbprintf+0xa0>
   13a30:	00c45783          	lhu	a5,12(s0)
   13a34:	0407e793          	ori	a5,a5,64
   13a38:	00f41623          	sh	a5,12(s0)
   13a3c:	47c12083          	lw	ra,1148(sp)
   13a40:	47812403          	lw	s0,1144(sp)
   13a44:	00048513          	mv	a0,s1
   13a48:	47012903          	lw	s2,1136(sp)
   13a4c:	47412483          	lw	s1,1140(sp)
   13a50:	48010113          	addi	sp,sp,1152
   13a54:	00008067          	ret

00013a58 <__svfscanf_r>:
   13a58:	00c59703          	lh	a4,12(a1)
   13a5c:	af010113          	addi	sp,sp,-1296
   13a60:	fffff337          	lui	t1,0xfffff
   13a64:	4f312e23          	sw	s3,1276(sp)
   13a68:	4f512a23          	sw	s5,1268(sp)
   13a6c:	4f712623          	sw	s7,1260(sp)
   13a70:	50112623          	sw	ra,1292(sp)
   13a74:	50812423          	sw	s0,1288(sp)
   13a78:	50912223          	sw	s1,1284(sp)
   13a7c:	51212023          	sw	s2,1280(sp)
   13a80:	4f412c23          	sw	s4,1272(sp)
   13a84:	4f612823          	sw	s6,1264(sp)
   13a88:	4f812423          	sw	s8,1256(sp)
   13a8c:	4f912223          	sw	s9,1252(sp)
   13a90:	4fa12023          	sw	s10,1248(sp)
   13a94:	4db12e23          	sw	s11,1244(sp)
   13a98:	00610133          	add	sp,sp,t1
   13a9c:	00c12223          	sw	a2,4(sp)
   13aa0:	01271793          	slli	a5,a4,0x12
   13aa4:	00050993          	mv	s3,a0
   13aa8:	00058b93          	mv	s7,a1
   13aac:	00068a93          	mv	s5,a3
   13ab0:	0207c263          	bltz	a5,13ad4 <__svfscanf_r+0x7c>
   13ab4:	00002637          	lui	a2,0x2
   13ab8:	0645a683          	lw	a3,100(a1)
   13abc:	00c76733          	or	a4,a4,a2
   13ac0:	00e59623          	sh	a4,12(a1)
   13ac4:	ffffe737          	lui	a4,0xffffe
   13ac8:	fff70713          	addi	a4,a4,-1 # ffffdfff <__global_pointer$+0xfffd0e47>
   13acc:	00e6f733          	and	a4,a3,a4
   13ad0:	06e5a223          	sw	a4,100(a1)
   13ad4:	000017b7          	lui	a5,0x1
   13ad8:	04010713          	addi	a4,sp,64
   13adc:	49078793          	addi	a5,a5,1168 # 1490 <sulp-0xebe4>
   13ae0:	00e787b3          	add	a5,a5,a4
   13ae4:	fffff737          	lui	a4,0xfffff
   13ae8:	c9070713          	addi	a4,a4,-880 # ffffec90 <__global_pointer$+0xfffd1ad8>
   13aec:	00e787b3          	add	a5,a5,a4
   13af0:	0002b737          	lui	a4,0x2b
   13af4:	00f12423          	sw	a5,8(sp)
   13af8:	b0c70793          	addi	a5,a4,-1268 # 2ab0c <basefix.4425>
   13afc:	00012023          	sw	zero,0(sp)
   13b00:	00000a13          	li	s4,0
   13b04:	00000913          	li	s2,0
   13b08:	00000b13          	li	s6,0
   13b0c:	00f12a23          	sw	a5,20(sp)
   13b10:	00412783          	lw	a5,4(sp)
   13b14:	0007c703          	lbu	a4,0(a5)
   13b18:	00178793          	addi	a5,a5,1
   13b1c:	00f12223          	sw	a5,4(sp)
   13b20:	04e12a23          	sw	a4,84(sp)
   13b24:	22070a63          	beqz	a4,13d58 <__svfscanf_r+0x300>
   13b28:	74c040ef          	jal	ra,18274 <__locale_ctype_ptr>
   13b2c:	05412703          	lw	a4,84(sp)
   13b30:	00e50533          	add	a0,a0,a4
   13b34:	00154c83          	lbu	s9,1(a0)
   13b38:	008cfc93          	andi	s9,s9,8
   13b3c:	040c8c63          	beqz	s9,13b94 <__svfscanf_r+0x13c>
   13b40:	004ba703          	lw	a4,4(s7)
   13b44:	02e05e63          	blez	a4,13b80 <__svfscanf_r+0x128>
   13b48:	72c040ef          	jal	ra,18274 <__locale_ctype_ptr>
   13b4c:	000ba703          	lw	a4,0(s7)
   13b50:	00074683          	lbu	a3,0(a4)
   13b54:	00d50533          	add	a0,a0,a3
   13b58:	00154683          	lbu	a3,1(a0)
   13b5c:	0086f693          	andi	a3,a3,8
   13b60:	fa0688e3          	beqz	a3,13b10 <__svfscanf_r+0xb8>
   13b64:	004ba683          	lw	a3,4(s7)
   13b68:	00170713          	addi	a4,a4,1
   13b6c:	00190913          	addi	s2,s2,1
   13b70:	fff68693          	addi	a3,a3,-1
   13b74:	00dba223          	sw	a3,4(s7)
   13b78:	00eba023          	sw	a4,0(s7)
   13b7c:	fc5ff06f          	j	13b40 <__svfscanf_r+0xe8>
   13b80:	000b8593          	mv	a1,s7
   13b84:	00098513          	mv	a0,s3
   13b88:	634060ef          	jal	ra,1a1bc <__srefill_r>
   13b8c:	fa050ee3          	beqz	a0,13b48 <__svfscanf_r+0xf0>
   13b90:	f81ff06f          	j	13b10 <__svfscanf_r+0xb8>
   13b94:	02500693          	li	a3,37
   13b98:	1ad71263          	bne	a4,a3,13d3c <__svfscanf_r+0x2e4>
   13b9c:	00412583          	lw	a1,4(sp)
   13ba0:	00000413          	li	s0,0
   13ba4:	00000493          	li	s1,0
   13ba8:	06100d93          	li	s11,97
   13bac:	06c00d13          	li	s10,108
   13bb0:	07300713          	li	a4,115
   13bb4:	07500693          	li	a3,117
   13bb8:	06900613          	li	a2,105
   13bbc:	06a00393          	li	t2,106
   13bc0:	04400813          	li	a6,68
   13bc4:	04f00893          	li	a7,79
   13bc8:	04700293          	li	t0,71
   13bcc:	04c00f93          	li	t6,76
   13bd0:	03900313          	li	t1,57
   13bd4:	03000e13          	li	t3,48
   13bd8:	02500e93          	li	t4,37
   13bdc:	02a00f13          	li	t5,42
   13be0:	00412783          	lw	a5,4(sp)
   13be4:	0005cc03          	lbu	s8,0(a1)
   13be8:	00178793          	addi	a5,a5,1
   13bec:	00f12223          	sw	a5,4(sp)
   13bf0:	2fbc0c63          	beq	s8,s11,13ee8 <__svfscanf_r+0x490>
   13bf4:	098dee63          	bltu	s11,s8,13c90 <__svfscanf_r+0x238>
   13bf8:	2b0c0463          	beq	s8,a6,13ea0 <__svfscanf_r+0x448>
   13bfc:	05886c63          	bltu	a6,s8,13c54 <__svfscanf_r+0x1fc>
   13c00:	01836e63          	bltu	t1,s8,13c1c <__svfscanf_r+0x1c4>
   13c04:	23cc7263          	bleu	t3,s8,13e28 <__svfscanf_r+0x3d0>
   13c08:	13dc0a63          	beq	s8,t4,13d3c <__svfscanf_r+0x2e4>
   13c0c:	1dec0a63          	beq	s8,t5,13de0 <__svfscanf_r+0x388>
   13c10:	000c1e63          	bnez	s8,13c2c <__svfscanf_r+0x1d4>
   13c14:	fff00b13          	li	s6,-1
   13c18:	1400006f          	j	13d58 <__svfscanf_r+0x300>
   13c1c:	04100713          	li	a4,65
   13c20:	2cec0463          	beq	s8,a4,13ee8 <__svfscanf_r+0x490>
   13c24:	04300713          	li	a4,67
   13c28:	42ec0e63          	beq	s8,a4,14064 <__svfscanf_r+0x60c>
   13c2c:	648040ef          	jal	ra,18274 <__locale_ctype_ptr>
   13c30:	01850533          	add	a0,a0,s8
   13c34:	00154703          	lbu	a4,1(a0)
   13c38:	00100613          	li	a2,1
   13c3c:	0001c6b7          	lui	a3,0x1c
   13c40:	00377713          	andi	a4,a4,3
   13c44:	00c71463          	bne	a4,a2,13c4c <__svfscanf_r+0x1f4>
   13c48:	00146413          	ori	s0,s0,1
   13c4c:	43c68793          	addi	a5,a3,1084 # 1c43c <_strtol_r>
   13c50:	0700006f          	j	13cc0 <__svfscanf_r+0x268>
   13c54:	251c0a63          	beq	s8,a7,13ea8 <__svfscanf_r+0x450>
   13c58:	0188ea63          	bltu	a7,s8,13c6c <__svfscanf_r+0x214>
   13c5c:	2982f663          	bleu	s8,t0,13ee8 <__svfscanf_r+0x490>
   13c60:	fdfc16e3          	bne	s8,t6,13c2c <__svfscanf_r+0x1d4>
   13c64:	00246413          	ori	s0,s0,2
   13c68:	0cc0006f          	j	13d34 <__svfscanf_r+0x2dc>
   13c6c:	05800713          	li	a4,88
   13c70:	26ec0063          	beq	s8,a4,13ed0 <__svfscanf_r+0x478>
   13c74:	05b00713          	li	a4,91
   13c78:	3aec0c63          	beq	s8,a4,14030 <__svfscanf_r+0x5d8>
   13c7c:	05300713          	li	a4,83
   13c80:	faec16e3          	bne	s8,a4,13c2c <__svfscanf_r+0x1d4>
   13c84:	00146413          	ori	s0,s0,1
   13c88:	00200c13          	li	s8,2
   13c8c:	2600006f          	j	13eec <__svfscanf_r+0x494>
   13c90:	15ac0c63          	beq	s8,s10,13de8 <__svfscanf_r+0x390>
   13c94:	058d6463          	bltu	s10,s8,13cdc <__svfscanf_r+0x284>
   13c98:	06700793          	li	a5,103
   13c9c:	0387e863          	bltu	a5,s8,13ccc <__svfscanf_r+0x274>
   13ca0:	06500713          	li	a4,101
   13ca4:	24ec7263          	bleu	a4,s8,13ee8 <__svfscanf_r+0x490>
   13ca8:	06300713          	li	a4,99
   13cac:	3aec0e63          	beq	s8,a4,14068 <__svfscanf_r+0x610>
   13cb0:	06400713          	li	a4,100
   13cb4:	f6ec1ce3          	bne	s8,a4,13c2c <__svfscanf_r+0x1d4>
   13cb8:	0001c737          	lui	a4,0x1c
   13cbc:	43c70793          	addi	a5,a4,1084 # 1c43c <_strtol_r>
   13cc0:	00f12023          	sw	a5,0(sp)
   13cc4:	00a00a13          	li	s4,10
   13cc8:	1f40006f          	j	13ebc <__svfscanf_r+0x464>
   13ccc:	3ecc0463          	beq	s8,a2,140b4 <__svfscanf_r+0x65c>
   13cd0:	12cc6a63          	bltu	s8,a2,13e04 <__svfscanf_r+0x3ac>
   13cd4:	f87c08e3          	beq	s8,t2,13c64 <__svfscanf_r+0x20c>
   13cd8:	f55ff06f          	j	13c2c <__svfscanf_r+0x1d4>
   13cdc:	faec06e3          	beq	s8,a4,13c88 <__svfscanf_r+0x230>
   13ce0:	03876e63          	bltu	a4,s8,13d1c <__svfscanf_r+0x2c4>
   13ce4:	06f00713          	li	a4,111
   13ce8:	1cec0263          	beq	s8,a4,13eac <__svfscanf_r+0x454>
   13cec:	07000713          	li	a4,112
   13cf0:	38ec0263          	beq	s8,a4,14074 <__svfscanf_r+0x61c>
   13cf4:	06e00713          	li	a4,110
   13cf8:	f2ec1ae3          	bne	s8,a4,13c2c <__svfscanf_r+0x1d4>
   13cfc:	01047713          	andi	a4,s0,16
   13d00:	e00718e3          	bnez	a4,13b10 <__svfscanf_r+0xb8>
   13d04:	00847693          	andi	a3,s0,8
   13d08:	000aa703          	lw	a4,0(s5)
   13d0c:	004a8a93          	addi	s5,s5,4
   13d10:	36068663          	beqz	a3,1407c <__svfscanf_r+0x624>
   13d14:	01270023          	sb	s2,0(a4)
   13d18:	df9ff06f          	j	13b10 <__svfscanf_r+0xb8>
   13d1c:	1adc0463          	beq	s8,a3,13ec4 <__svfscanf_r+0x46c>
   13d20:	00dc6a63          	bltu	s8,a3,13d34 <__svfscanf_r+0x2dc>
   13d24:	07800793          	li	a5,120
   13d28:	1afc0463          	beq	s8,a5,13ed0 <__svfscanf_r+0x478>
   13d2c:	07a00793          	li	a5,122
   13d30:	eefc1ee3          	bne	s8,a5,13c2c <__svfscanf_r+0x1d4>
   13d34:	00412583          	lw	a1,4(sp)
   13d38:	ea9ff06f          	j	13be0 <__svfscanf_r+0x188>
   13d3c:	004ba703          	lw	a4,4(s7)
   13d40:	06e05063          	blez	a4,13da0 <__svfscanf_r+0x348>
   13d44:	000ba703          	lw	a4,0(s7)
   13d48:	00412783          	lw	a5,4(sp)
   13d4c:	00074603          	lbu	a2,0(a4)
   13d50:	fff7c683          	lbu	a3,-1(a5)
   13d54:	06d60863          	beq	a2,a3,13dc4 <__svfscanf_r+0x36c>
   13d58:	00001337          	lui	t1,0x1
   13d5c:	00610133          	add	sp,sp,t1
   13d60:	50c12083          	lw	ra,1292(sp)
   13d64:	000b0513          	mv	a0,s6
   13d68:	50812403          	lw	s0,1288(sp)
   13d6c:	50412483          	lw	s1,1284(sp)
   13d70:	50012903          	lw	s2,1280(sp)
   13d74:	4fc12983          	lw	s3,1276(sp)
   13d78:	4f812a03          	lw	s4,1272(sp)
   13d7c:	4f412a83          	lw	s5,1268(sp)
   13d80:	4f012b03          	lw	s6,1264(sp)
   13d84:	4ec12b83          	lw	s7,1260(sp)
   13d88:	4e812c03          	lw	s8,1256(sp)
   13d8c:	4e412c83          	lw	s9,1252(sp)
   13d90:	4e012d03          	lw	s10,1248(sp)
   13d94:	4dc12d83          	lw	s11,1244(sp)
   13d98:	51010113          	addi	sp,sp,1296
   13d9c:	00008067          	ret
   13da0:	000b8593          	mv	a1,s7
   13da4:	00098513          	mv	a0,s3
   13da8:	414060ef          	jal	ra,1a1bc <__srefill_r>
   13dac:	f8050ce3          	beqz	a0,13d44 <__svfscanf_r+0x2ec>
   13db0:	e60b02e3          	beqz	s6,13c14 <__svfscanf_r+0x1bc>
   13db4:	00cbd783          	lhu	a5,12(s7)
   13db8:	0407f793          	andi	a5,a5,64
   13dbc:	f8078ee3          	beqz	a5,13d58 <__svfscanf_r+0x300>
   13dc0:	e55ff06f          	j	13c14 <__svfscanf_r+0x1bc>
   13dc4:	004ba683          	lw	a3,4(s7)
   13dc8:	00170713          	addi	a4,a4,1
   13dcc:	00eba023          	sw	a4,0(s7)
   13dd0:	fff68693          	addi	a3,a3,-1
   13dd4:	00dba223          	sw	a3,4(s7)
   13dd8:	00190913          	addi	s2,s2,1
   13ddc:	d35ff06f          	j	13b10 <__svfscanf_r+0xb8>
   13de0:	01046413          	ori	s0,s0,16
   13de4:	f51ff06f          	j	13d34 <__svfscanf_r+0x2dc>
   13de8:	0015c503          	lbu	a0,1(a1)
   13dec:	01a51863          	bne	a0,s10,13dfc <__svfscanf_r+0x3a4>
   13df0:	00258793          	addi	a5,a1,2
   13df4:	00f12223          	sw	a5,4(sp)
   13df8:	e6dff06f          	j	13c64 <__svfscanf_r+0x20c>
   13dfc:	00146413          	ori	s0,s0,1
   13e00:	f35ff06f          	j	13d34 <__svfscanf_r+0x2dc>
   13e04:	0015c503          	lbu	a0,1(a1)
   13e08:	06800793          	li	a5,104
   13e0c:	00f51a63          	bne	a0,a5,13e20 <__svfscanf_r+0x3c8>
   13e10:	00258793          	addi	a5,a1,2
   13e14:	00f12223          	sw	a5,4(sp)
   13e18:	00846413          	ori	s0,s0,8
   13e1c:	f19ff06f          	j	13d34 <__svfscanf_r+0x2dc>
   13e20:	00446413          	ori	s0,s0,4
   13e24:	f11ff06f          	j	13d34 <__svfscanf_r+0x2dc>
   13e28:	00048513          	mv	a0,s1
   13e2c:	00a00593          	li	a1,10
   13e30:	03e12e23          	sw	t5,60(sp)
   13e34:	03d12c23          	sw	t4,56(sp)
   13e38:	03c12a23          	sw	t3,52(sp)
   13e3c:	02612823          	sw	t1,48(sp)
   13e40:	03f12623          	sw	t6,44(sp)
   13e44:	02512423          	sw	t0,40(sp)
   13e48:	03112223          	sw	a7,36(sp)
   13e4c:	03012023          	sw	a6,32(sp)
   13e50:	00712e23          	sw	t2,28(sp)
   13e54:	00c12c23          	sw	a2,24(sp)
   13e58:	00d12823          	sw	a3,16(sp)
   13e5c:	00e12623          	sw	a4,12(sp)
   13e60:	db0fd0ef          	jal	ra,11410 <__mulsi3>
   13e64:	fd050513          	addi	a0,a0,-48
   13e68:	00ac04b3          	add	s1,s8,a0
   13e6c:	00c12703          	lw	a4,12(sp)
   13e70:	01012683          	lw	a3,16(sp)
   13e74:	01812603          	lw	a2,24(sp)
   13e78:	01c12383          	lw	t2,28(sp)
   13e7c:	02012803          	lw	a6,32(sp)
   13e80:	02412883          	lw	a7,36(sp)
   13e84:	02812283          	lw	t0,40(sp)
   13e88:	02c12f83          	lw	t6,44(sp)
   13e8c:	03012303          	lw	t1,48(sp)
   13e90:	03412e03          	lw	t3,52(sp)
   13e94:	03812e83          	lw	t4,56(sp)
   13e98:	03c12f03          	lw	t5,60(sp)
   13e9c:	e99ff06f          	j	13d34 <__svfscanf_r+0x2dc>
   13ea0:	00146413          	ori	s0,s0,1
   13ea4:	e15ff06f          	j	13cb8 <__svfscanf_r+0x260>
   13ea8:	00146413          	ori	s0,s0,1
   13eac:	0001d7b7          	lui	a5,0x1d
   13eb0:	ac078793          	addi	a5,a5,-1344 # 1cac0 <_strtoul_r>
   13eb4:	00f12023          	sw	a5,0(sp)
   13eb8:	00800a13          	li	s4,8
   13ebc:	00300c13          	li	s8,3
   13ec0:	02c0006f          	j	13eec <__svfscanf_r+0x494>
   13ec4:	0001d7b7          	lui	a5,0x1d
   13ec8:	ac078793          	addi	a5,a5,-1344 # 1cac0 <_strtoul_r>
   13ecc:	df5ff06f          	j	13cc0 <__svfscanf_r+0x268>
   13ed0:	20046413          	ori	s0,s0,512
   13ed4:	0001d7b7          	lui	a5,0x1d
   13ed8:	ac078793          	addi	a5,a5,-1344 # 1cac0 <_strtoul_r>
   13edc:	00f12023          	sw	a5,0(sp)
   13ee0:	01000a13          	li	s4,16
   13ee4:	fd9ff06f          	j	13ebc <__svfscanf_r+0x464>
   13ee8:	00400c13          	li	s8,4
   13eec:	004ba703          	lw	a4,4(s7)
   13ef0:	1ce05c63          	blez	a4,140c8 <__svfscanf_r+0x670>
   13ef4:	04047713          	andi	a4,s0,64
   13ef8:	02071063          	bnez	a4,13f18 <__svfscanf_r+0x4c0>
   13efc:	378040ef          	jal	ra,18274 <__locale_ctype_ptr>
   13f00:	000ba703          	lw	a4,0(s7)
   13f04:	00074683          	lbu	a3,0(a4)
   13f08:	00d50533          	add	a0,a0,a3
   13f0c:	00154683          	lbu	a3,1(a0)
   13f10:	0086f693          	andi	a3,a3,8
   13f14:	1c069463          	bnez	a3,140dc <__svfscanf_r+0x684>
   13f18:	00200713          	li	a4,2
   13f1c:	46ec0e63          	beq	s8,a4,14398 <__svfscanf_r+0x940>
   13f20:	1f874863          	blt	a4,s8,14110 <__svfscanf_r+0x6b8>
   13f24:	00100713          	li	a4,1
   13f28:	38ec0463          	beq	s8,a4,142b0 <__svfscanf_r+0x858>
   13f2c:	00049463          	bnez	s1,13f34 <__svfscanf_r+0x4dc>
   13f30:	00100493          	li	s1,1
   13f34:	01047c13          	andi	s8,s0,16
   13f38:	00147413          	andi	s0,s0,1
   13f3c:	2e040663          	beqz	s0,14228 <__svfscanf_r+0x7d0>
   13f40:	fffff7b7          	lui	a5,0xfffff
   13f44:	b8878513          	addi	a0,a5,-1144 # ffffeb88 <__global_pointer$+0xfffd19d0>
   13f48:	000017b7          	lui	a5,0x1
   13f4c:	04010713          	addi	a4,sp,64
   13f50:	49078793          	addi	a5,a5,1168 # 1490 <sulp-0xebe4>
   13f54:	00e787b3          	add	a5,a5,a4
   13f58:	00800613          	li	a2,8
   13f5c:	00000593          	li	a1,0
   13f60:	00a78533          	add	a0,a5,a0
   13f64:	f24fd0ef          	jal	ra,11688 <memset>
   13f68:	00000c93          	li	s9,0
   13f6c:	000c1663          	bnez	s8,13f78 <__svfscanf_r+0x520>
   13f70:	000aac83          	lw	s9,0(s5)
   13f74:	004a8a93          	addi	s5,s5,4
   13f78:	000016b7          	lui	a3,0x1
   13f7c:	49068793          	addi	a5,a3,1168 # 1490 <sulp-0xebe4>
   13f80:	04010613          	addi	a2,sp,64
   13f84:	00c787b3          	add	a5,a5,a2
   13f88:	fffff637          	lui	a2,0xfffff
   13f8c:	00c787b3          	add	a5,a5,a2
   13f90:	00f12623          	sw	a5,12(sp)
   13f94:	49068793          	addi	a5,a3,1168
   13f98:	04010693          	addi	a3,sp,64
   13f9c:	b8860413          	addi	s0,a2,-1144 # ffffeb88 <__global_pointer$+0xfffd19d0>
   13fa0:	00d787b3          	add	a5,a5,a3
   13fa4:	00000713          	li	a4,0
   13fa8:	00878433          	add	s0,a5,s0
   13fac:	fff00d13          	li	s10,-1
   13fb0:	00e12823          	sw	a4,16(sp)
   13fb4:	29c040ef          	jal	ra,18250 <__locale_mb_cur_max>
   13fb8:	01012703          	lw	a4,16(sp)
   13fbc:	dee50ae3          	beq	a0,a4,13db0 <__svfscanf_r+0x358>
   13fc0:	000ba683          	lw	a3,0(s7)
   13fc4:	00c12783          	lw	a5,12(sp)
   13fc8:	00170d93          	addi	s11,a4,1
   13fcc:	0006c603          	lbu	a2,0(a3)
   13fd0:	00e78733          	add	a4,a5,a4
   13fd4:	00168693          	addi	a3,a3,1
   13fd8:	c8c70823          	sb	a2,-880(a4)
   13fdc:	004ba703          	lw	a4,4(s7)
   13fe0:	00812603          	lw	a2,8(sp)
   13fe4:	00dba023          	sw	a3,0(s7)
   13fe8:	fff70713          	addi	a4,a4,-1
   13fec:	00eba223          	sw	a4,4(s7)
   13ff0:	000d8693          	mv	a3,s11
   13ff4:	00040713          	mv	a4,s0
   13ff8:	000c8593          	mv	a1,s9
   13ffc:	00098513          	mv	a0,s3
   14000:	271040ef          	jal	ra,18a70 <_mbrtowc_r>
   14004:	dba506e3          	beq	a0,s10,13db0 <__svfscanf_r+0x358>
   14008:	1e051263          	bnez	a0,141ec <__svfscanf_r+0x794>
   1400c:	000c1463          	bnez	s8,14014 <__svfscanf_r+0x5bc>
   14010:	000ca023          	sw	zero,0(s9)
   14014:	01b90933          	add	s2,s2,s11
   14018:	fff48493          	addi	s1,s1,-1
   1401c:	00000d93          	li	s11,0
   14020:	1c0c1a63          	bnez	s8,141f4 <__svfscanf_r+0x79c>
   14024:	004c8c93          	addi	s9,s9,4
   14028:	000c0d93          	mv	s11,s8
   1402c:	1c80006f          	j	141f4 <__svfscanf_r+0x79c>
   14030:	fffff7b7          	lui	a5,0xfffff
   14034:	b9078513          	addi	a0,a5,-1136 # ffffeb90 <__global_pointer$+0xfffd19d8>
   14038:	000017b7          	lui	a5,0x1
   1403c:	04010713          	addi	a4,sp,64
   14040:	00412583          	lw	a1,4(sp)
   14044:	49078793          	addi	a5,a5,1168 # 1490 <sulp-0xebe4>
   14048:	00e787b3          	add	a5,a5,a4
   1404c:	00a78533          	add	a0,a5,a0
   14050:	384060ef          	jal	ra,1a3d4 <__sccl>
   14054:	00a12223          	sw	a0,4(sp)
   14058:	04046413          	ori	s0,s0,64
   1405c:	00100c13          	li	s8,1
   14060:	e8dff06f          	j	13eec <__svfscanf_r+0x494>
   14064:	00146413          	ori	s0,s0,1
   14068:	04046413          	ori	s0,s0,64
   1406c:	00000c13          	li	s8,0
   14070:	e7dff06f          	j	13eec <__svfscanf_r+0x494>
   14074:	22046413          	ori	s0,s0,544
   14078:	e5dff06f          	j	13ed4 <__svfscanf_r+0x47c>
   1407c:	00447693          	andi	a3,s0,4
   14080:	00068663          	beqz	a3,1408c <__svfscanf_r+0x634>
   14084:	01271023          	sh	s2,0(a4)
   14088:	a89ff06f          	j	13b10 <__svfscanf_r+0xb8>
   1408c:	00147693          	andi	a3,s0,1
   14090:	00068663          	beqz	a3,1409c <__svfscanf_r+0x644>
   14094:	01272023          	sw	s2,0(a4)
   14098:	a79ff06f          	j	13b10 <__svfscanf_r+0xb8>
   1409c:	00247413          	andi	s0,s0,2
   140a0:	fe040ae3          	beqz	s0,14094 <__svfscanf_r+0x63c>
   140a4:	41f95693          	srai	a3,s2,0x1f
   140a8:	01272023          	sw	s2,0(a4)
   140ac:	00d72223          	sw	a3,4(a4)
   140b0:	a61ff06f          	j	13b10 <__svfscanf_r+0xb8>
   140b4:	0001c737          	lui	a4,0x1c
   140b8:	43c70793          	addi	a5,a4,1084 # 1c43c <_strtol_r>
   140bc:	00f12023          	sw	a5,0(sp)
   140c0:	00000a13          	li	s4,0
   140c4:	df9ff06f          	j	13ebc <__svfscanf_r+0x464>
   140c8:	000b8593          	mv	a1,s7
   140cc:	00098513          	mv	a0,s3
   140d0:	0ec060ef          	jal	ra,1a1bc <__srefill_r>
   140d4:	e20500e3          	beqz	a0,13ef4 <__svfscanf_r+0x49c>
   140d8:	cd9ff06f          	j	13db0 <__svfscanf_r+0x358>
   140dc:	004ba683          	lw	a3,4(s7)
   140e0:	00190913          	addi	s2,s2,1
   140e4:	fff68693          	addi	a3,a3,-1
   140e8:	00dba223          	sw	a3,4(s7)
   140ec:	00d05863          	blez	a3,140fc <__svfscanf_r+0x6a4>
   140f0:	00170713          	addi	a4,a4,1
   140f4:	00eba023          	sw	a4,0(s7)
   140f8:	e05ff06f          	j	13efc <__svfscanf_r+0x4a4>
   140fc:	000b8593          	mv	a1,s7
   14100:	00098513          	mv	a0,s3
   14104:	0b8060ef          	jal	ra,1a1bc <__srefill_r>
   14108:	de050ae3          	beqz	a0,13efc <__svfscanf_r+0x4a4>
   1410c:	ca5ff06f          	j	13db0 <__svfscanf_r+0x358>
   14110:	00300713          	li	a4,3
   14114:	4eec0863          	beq	s8,a4,14604 <__svfscanf_r+0xbac>
   14118:	00400713          	li	a4,4
   1411c:	e0ec18e3          	bne	s8,a4,13f2c <__svfscanf_r+0x4d4>
   14120:	00098513          	mv	a0,s3
   14124:	080040ef          	jal	ra,181a4 <_localeconv_r>
   14128:	00052783          	lw	a5,0(a0)
   1412c:	000016b7          	lui	a3,0x1
   14130:	fff48713          	addi	a4,s1,-1
   14134:	00f12c23          	sw	a5,24(sp)
   14138:	36c68613          	addi	a2,a3,876 # 136c <sulp-0xed08>
   1413c:	00000893          	li	a7,0
   14140:	00e67a63          	bleu	a4,a2,14154 <__svfscanf_r+0x6fc>
   14144:	fffff7b7          	lui	a5,0xfffff
   14148:	c9378893          	addi	a7,a5,-877 # ffffec93 <__global_pointer$+0xfffd1adb>
   1414c:	011488b3          	add	a7,s1,a7
   14150:	36d68493          	addi	s1,a3,877
   14154:	000017b7          	lui	a5,0x1
   14158:	04010713          	addi	a4,sp,64
   1415c:	49078793          	addi	a5,a5,1168 # 1490 <sulp-0xebe4>
   14160:	00e787b3          	add	a5,a5,a4
   14164:	fffff737          	lui	a4,0xfffff
   14168:	c9070713          	addi	a4,a4,-880 # ffffec90 <__global_pointer$+0xfffd1ad8>
   1416c:	78046413          	ori	s0,s0,1920
   14170:	00000613          	li	a2,0
   14174:	00000d93          	li	s11,0
   14178:	00012823          	sw	zero,16(sp)
   1417c:	00000c13          	li	s8,0
   14180:	00012623          	sw	zero,12(sp)
   14184:	00e78d33          	add	s10,a5,a4
   14188:	04e00313          	li	t1,78
   1418c:	00100e13          	li	t3,1
   14190:	00400393          	li	t2,4
   14194:	00200e93          	li	t4,2
   14198:	70000f13          	li	t5,1792
   1419c:	40000293          	li	t0,1024
   141a0:	06600f93          	li	t6,102
   141a4:	000ba583          	lw	a1,0(s7)
   141a8:	0005c683          	lbu	a3,0(a1)
   141ac:	04668ae3          	beq	a3,t1,14a00 <__svfscanf_r+0xfa8>
   141b0:	74d36463          	bltu	t1,a3,148f8 <__svfscanf_r+0xea0>
   141b4:	03900513          	li	a0,57
   141b8:	6ed56063          	bltu	a0,a3,14898 <__svfscanf_r+0xe40>
   141bc:	03100513          	li	a0,49
   141c0:	02a6f4e3          	bleu	a0,a3,149e8 <__svfscanf_r+0xf90>
   141c4:	02d00513          	li	a0,45
   141c8:	00a68a63          	beq	a3,a0,141dc <__svfscanf_r+0x784>
   141cc:	03000513          	li	a0,48
   141d0:	7ca68a63          	beq	a3,a0,149a4 <__svfscanf_r+0xf4c>
   141d4:	02b00513          	li	a0,43
   141d8:	6ca69a63          	bne	a3,a0,148ac <__svfscanf_r+0xe54>
   141dc:	08047513          	andi	a0,s0,128
   141e0:	04050ce3          	beqz	a0,14a38 <__svfscanf_r+0xfe0>
   141e4:	f7f47413          	andi	s0,s0,-129
   141e8:	00d0006f          	j	149f4 <__svfscanf_r+0xf9c>
   141ec:	ffe00713          	li	a4,-2
   141f0:	e2e512e3          	bne	a0,a4,14014 <__svfscanf_r+0x5bc>
   141f4:	004ba703          	lw	a4,4(s7)
   141f8:	02e04263          	bgtz	a4,1421c <__svfscanf_r+0x7c4>
   141fc:	000b8593          	mv	a1,s7
   14200:	00098513          	mv	a0,s3
   14204:	7b9050ef          	jal	ra,1a1bc <__srefill_r>
   14208:	00050a63          	beqz	a0,1421c <__svfscanf_r+0x7c4>
   1420c:	ba0d92e3          	bnez	s11,13db0 <__svfscanf_r+0x358>
   14210:	900c10e3          	bnez	s8,13b10 <__svfscanf_r+0xb8>
   14214:	001b0b13          	addi	s6,s6,1
   14218:	8f9ff06f          	j	13b10 <__svfscanf_r+0xb8>
   1421c:	fe048ae3          	beqz	s1,14210 <__svfscanf_r+0x7b8>
   14220:	000d8713          	mv	a4,s11
   14224:	d8dff06f          	j	13fb0 <__svfscanf_r+0x558>
   14228:	040c0c63          	beqz	s8,14280 <__svfscanf_r+0x828>
   1422c:	00000413          	li	s0,0
   14230:	004ba703          	lw	a4,4(s7)
   14234:	000ba503          	lw	a0,0(s7)
   14238:	02975863          	ble	s1,a4,14268 <__svfscanf_r+0x810>
   1423c:	00e40433          	add	s0,s0,a4
   14240:	40e484b3          	sub	s1,s1,a4
   14244:	00e50733          	add	a4,a0,a4
   14248:	00eba023          	sw	a4,0(s7)
   1424c:	000b8593          	mv	a1,s7
   14250:	00098513          	mv	a0,s3
   14254:	769050ef          	jal	ra,1a1bc <__srefill_r>
   14258:	fc050ce3          	beqz	a0,14230 <__svfscanf_r+0x7d8>
   1425c:	b4040ae3          	beqz	s0,13db0 <__svfscanf_r+0x358>
   14260:	00890933          	add	s2,s2,s0
   14264:	8adff06f          	j	13b10 <__svfscanf_r+0xb8>
   14268:	40970733          	sub	a4,a4,s1
   1426c:	00950533          	add	a0,a0,s1
   14270:	00940433          	add	s0,s0,s1
   14274:	00eba223          	sw	a4,4(s7)
   14278:	00aba023          	sw	a0,0(s7)
   1427c:	fe5ff06f          	j	14260 <__svfscanf_r+0x808>
   14280:	000aa583          	lw	a1,0(s5)
   14284:	000b8713          	mv	a4,s7
   14288:	00048693          	mv	a3,s1
   1428c:	00100613          	li	a2,1
   14290:	00098513          	mv	a0,s3
   14294:	004a8413          	addi	s0,s5,4
   14298:	3c8010ef          	jal	ra,15660 <_fread_r>
   1429c:	b0050ae3          	beqz	a0,13db0 <__svfscanf_r+0x358>
   142a0:	00a90933          	add	s2,s2,a0
   142a4:	001b0b13          	addi	s6,s6,1
   142a8:	00040a93          	mv	s5,s0
   142ac:	865ff06f          	j	13b10 <__svfscanf_r+0xb8>
   142b0:	00049463          	bnez	s1,142b8 <__svfscanf_r+0x860>
   142b4:	fff00493          	li	s1,-1
   142b8:	01047413          	andi	s0,s0,16
   142bc:	0c041a63          	bnez	s0,14390 <__svfscanf_r+0x938>
   142c0:	000aa403          	lw	s0,0(s5)
   142c4:	004a8c13          	addi	s8,s5,4
   142c8:	009404b3          	add	s1,s0,s1
   142cc:	00040a93          	mv	s5,s0
   142d0:	000ba683          	lw	a3,0(s7)
   142d4:	4d010793          	addi	a5,sp,1232
   142d8:	0006c703          	lbu	a4,0(a3)
   142dc:	00e78733          	add	a4,a5,a4
   142e0:	b9074703          	lbu	a4,-1136(a4)
   142e4:	04070263          	beqz	a4,14328 <__svfscanf_r+0x8d0>
   142e8:	004ba703          	lw	a4,4(s7)
   142ec:	001a8a93          	addi	s5,s5,1
   142f0:	fff70713          	addi	a4,a4,-1
   142f4:	00eba223          	sw	a4,4(s7)
   142f8:	00168713          	addi	a4,a3,1
   142fc:	00eba023          	sw	a4,0(s7)
   14300:	0006c703          	lbu	a4,0(a3)
   14304:	feea8fa3          	sb	a4,-1(s5)
   14308:	029a8063          	beq	s5,s1,14328 <__svfscanf_r+0x8d0>
   1430c:	004ba703          	lw	a4,4(s7)
   14310:	fce040e3          	bgtz	a4,142d0 <__svfscanf_r+0x878>
   14314:	000b8593          	mv	a1,s7
   14318:	00098513          	mv	a0,s3
   1431c:	6a1050ef          	jal	ra,1a1bc <__srefill_r>
   14320:	fa0508e3          	beqz	a0,142d0 <__svfscanf_r+0x878>
   14324:	a95406e3          	beq	s0,s5,13db0 <__svfscanf_r+0x358>
   14328:	408a8433          	sub	s0,s5,s0
   1432c:	a20406e3          	beqz	s0,13d58 <__svfscanf_r+0x300>
   14330:	000a8023          	sb	zero,0(s5)
   14334:	001b0b13          	addi	s6,s6,1
   14338:	000c0a93          	mv	s5,s8
   1433c:	f25ff06f          	j	14260 <__svfscanf_r+0x808>
   14340:	004ba683          	lw	a3,4(s7)
   14344:	00170713          	addi	a4,a4,1
   14348:	00140413          	addi	s0,s0,1
   1434c:	fff68693          	addi	a3,a3,-1
   14350:	00dba223          	sw	a3,4(s7)
   14354:	00eba023          	sw	a4,0(s7)
   14358:	f08484e3          	beq	s1,s0,14260 <__svfscanf_r+0x808>
   1435c:	00d04a63          	bgtz	a3,14370 <__svfscanf_r+0x918>
   14360:	000b8593          	mv	a1,s7
   14364:	00098513          	mv	a0,s3
   14368:	655050ef          	jal	ra,1a1bc <__srefill_r>
   1436c:	ee051ae3          	bnez	a0,14260 <__svfscanf_r+0x808>
   14370:	000ba703          	lw	a4,0(s7)
   14374:	4d010793          	addi	a5,sp,1232
   14378:	00074683          	lbu	a3,0(a4)
   1437c:	00d786b3          	add	a3,a5,a3
   14380:	b906c683          	lbu	a3,-1136(a3)
   14384:	fa069ee3          	bnez	a3,14340 <__svfscanf_r+0x8e8>
   14388:	ec041ce3          	bnez	s0,14260 <__svfscanf_r+0x808>
   1438c:	9cdff06f          	j	13d58 <__svfscanf_r+0x300>
   14390:	00000413          	li	s0,0
   14394:	fddff06f          	j	14370 <__svfscanf_r+0x918>
   14398:	00049463          	bnez	s1,143a0 <__svfscanf_r+0x948>
   1439c:	fff00493          	li	s1,-1
   143a0:	00147c13          	andi	s8,s0,1
   143a4:	01047413          	andi	s0,s0,16
   143a8:	180c0663          	beqz	s8,14534 <__svfscanf_r+0xadc>
   143ac:	fffff7b7          	lui	a5,0xfffff
   143b0:	b8878513          	addi	a0,a5,-1144 # ffffeb88 <__global_pointer$+0xfffd19d0>
   143b4:	000017b7          	lui	a5,0x1
   143b8:	49078793          	addi	a5,a5,1168 # 1490 <sulp-0xebe4>
   143bc:	04010713          	addi	a4,sp,64
   143c0:	00e787b3          	add	a5,a5,a4
   143c4:	00800613          	li	a2,8
   143c8:	00000593          	li	a1,0
   143cc:	00a78533          	add	a0,a5,a0
   143d0:	ab8fd0ef          	jal	ra,11688 <memset>
   143d4:	0c041e63          	bnez	s0,144b0 <__svfscanf_r+0xa58>
   143d8:	000aac03          	lw	s8,0(s5)
   143dc:	004a8a93          	addi	s5,s5,4
   143e0:	00001737          	lui	a4,0x1
   143e4:	49070793          	addi	a5,a4,1168 # 1490 <sulp-0xebe4>
   143e8:	04010693          	addi	a3,sp,64
   143ec:	00d787b3          	add	a5,a5,a3
   143f0:	fffff6b7          	lui	a3,0xfffff
   143f4:	00d787b3          	add	a5,a5,a3
   143f8:	00f12623          	sw	a5,12(sp)
   143fc:	49070793          	addi	a5,a4,1168
   14400:	04010713          	addi	a4,sp,64
   14404:	b8868c93          	addi	s9,a3,-1144 # ffffeb88 <__global_pointer$+0xfffd19d0>
   14408:	00e787b3          	add	a5,a5,a4
   1440c:	00000d13          	li	s10,0
   14410:	01978cb3          	add	s9,a5,s9
   14414:	661030ef          	jal	ra,18274 <__locale_ctype_ptr>
   14418:	000ba683          	lw	a3,0(s7)
   1441c:	0006c683          	lbu	a3,0(a3)
   14420:	00d50533          	add	a0,a0,a3
   14424:	00154683          	lbu	a3,1(a0)
   14428:	0086f693          	andi	a3,a3,8
   1442c:	06069c63          	bnez	a3,144a4 <__svfscanf_r+0xa4c>
   14430:	06048a63          	beqz	s1,144a4 <__svfscanf_r+0xa4c>
   14434:	61d030ef          	jal	ra,18250 <__locale_mb_cur_max>
   14438:	97a50ce3          	beq	a0,s10,13db0 <__svfscanf_r+0x358>
   1443c:	000ba683          	lw	a3,0(s7)
   14440:	00c12783          	lw	a5,12(sp)
   14444:	001d0d93          	addi	s11,s10,1
   14448:	0006c603          	lbu	a2,0(a3)
   1444c:	01a78733          	add	a4,a5,s10
   14450:	00168693          	addi	a3,a3,1
   14454:	c8c70823          	sb	a2,-880(a4)
   14458:	004ba703          	lw	a4,4(s7)
   1445c:	00812603          	lw	a2,8(sp)
   14460:	00dba023          	sw	a3,0(s7)
   14464:	fff70713          	addi	a4,a4,-1
   14468:	00eba223          	sw	a4,4(s7)
   1446c:	000d8693          	mv	a3,s11
   14470:	000c8713          	mv	a4,s9
   14474:	000c0593          	mv	a1,s8
   14478:	00098513          	mv	a0,s3
   1447c:	5f4040ef          	jal	ra,18a70 <_mbrtowc_r>
   14480:	fff00793          	li	a5,-1
   14484:	92f506e3          	beq	a0,a5,13db0 <__svfscanf_r+0x358>
   14488:	04051463          	bnez	a0,144d0 <__svfscanf_r+0xa78>
   1448c:	000c2023          	sw	zero,0(s8)
   14490:	000c2503          	lw	a0,0(s8)
   14494:	451010ef          	jal	ra,160e4 <iswspace>
   14498:	00050d13          	mv	s10,a0
   1449c:	08050063          	beqz	a0,1451c <__svfscanf_r+0xac4>
   144a0:	040d9e63          	bnez	s11,144fc <__svfscanf_r+0xaa4>
   144a4:	e6041663          	bnez	s0,13b10 <__svfscanf_r+0xb8>
   144a8:	000c2023          	sw	zero,0(s8)
   144ac:	d69ff06f          	j	14214 <__svfscanf_r+0x7bc>
   144b0:	fffff7b7          	lui	a5,0xfffff
   144b4:	b8478c13          	addi	s8,a5,-1148 # ffffeb84 <__global_pointer$+0xfffd19cc>
   144b8:	000017b7          	lui	a5,0x1
   144bc:	49078793          	addi	a5,a5,1168 # 1490 <sulp-0xebe4>
   144c0:	04010713          	addi	a4,sp,64
   144c4:	00e787b3          	add	a5,a5,a4
   144c8:	01878c33          	add	s8,a5,s8
   144cc:	f15ff06f          	j	143e0 <__svfscanf_r+0x988>
   144d0:	ffe00693          	li	a3,-2
   144d4:	000d8d13          	mv	s10,s11
   144d8:	fad51ce3          	bne	a0,a3,14490 <__svfscanf_r+0xa38>
   144dc:	004ba683          	lw	a3,4(s7)
   144e0:	f2d04ae3          	bgtz	a3,14414 <__svfscanf_r+0x9bc>
   144e4:	000b8593          	mv	a1,s7
   144e8:	00098513          	mv	a0,s3
   144ec:	4d1050ef          	jal	ra,1a1bc <__srefill_r>
   144f0:	f20502e3          	beqz	a0,14414 <__svfscanf_r+0x9bc>
   144f4:	8a0d1ee3          	bnez	s10,13db0 <__svfscanf_r+0x358>
   144f8:	fadff06f          	j	144a4 <__svfscanf_r+0xa4c>
   144fc:	00812783          	lw	a5,8(sp)
   14500:	fffd8d93          	addi	s11,s11,-1
   14504:	000b8613          	mv	a2,s7
   14508:	01b78733          	add	a4,a5,s11
   1450c:	00074583          	lbu	a1,0(a4)
   14510:	00098513          	mv	a0,s3
   14514:	6900a0ef          	jal	ra,1eba4 <_ungetc_r>
   14518:	f89ff06f          	j	144a0 <__svfscanf_r+0xa48>
   1451c:	01b90933          	add	s2,s2,s11
   14520:	fff48493          	addi	s1,s1,-1
   14524:	fa041ce3          	bnez	s0,144dc <__svfscanf_r+0xa84>
   14528:	004c0c13          	addi	s8,s8,4
   1452c:	00040d13          	mv	s10,s0
   14530:	fadff06f          	j	144dc <__svfscanf_r+0xa84>
   14534:	0a041663          	bnez	s0,145e0 <__svfscanf_r+0xb88>
   14538:	000aac03          	lw	s8,0(s5)
   1453c:	004a8413          	addi	s0,s5,4
   14540:	009c04b3          	add	s1,s8,s1
   14544:	000c0a93          	mv	s5,s8
   14548:	52d030ef          	jal	ra,18274 <__locale_ctype_ptr>
   1454c:	000ba683          	lw	a3,0(s7)
   14550:	0006c703          	lbu	a4,0(a3)
   14554:	00e50533          	add	a0,a0,a4
   14558:	00154703          	lbu	a4,1(a0)
   1455c:	00877713          	andi	a4,a4,8
   14560:	04071063          	bnez	a4,145a0 <__svfscanf_r+0xb48>
   14564:	004ba703          	lw	a4,4(s7)
   14568:	001a8a93          	addi	s5,s5,1
   1456c:	fff70713          	addi	a4,a4,-1
   14570:	00eba223          	sw	a4,4(s7)
   14574:	00168713          	addi	a4,a3,1
   14578:	00eba023          	sw	a4,0(s7)
   1457c:	0006c703          	lbu	a4,0(a3)
   14580:	feea8fa3          	sb	a4,-1(s5)
   14584:	009a8e63          	beq	s5,s1,145a0 <__svfscanf_r+0xb48>
   14588:	004ba703          	lw	a4,4(s7)
   1458c:	fae04ee3          	bgtz	a4,14548 <__svfscanf_r+0xaf0>
   14590:	000b8593          	mv	a1,s7
   14594:	00098513          	mv	a0,s3
   14598:	425050ef          	jal	ra,1a1bc <__srefill_r>
   1459c:	fa0506e3          	beqz	a0,14548 <__svfscanf_r+0xaf0>
   145a0:	000a8023          	sb	zero,0(s5)
   145a4:	418a8ab3          	sub	s5,s5,s8
   145a8:	01590933          	add	s2,s2,s5
   145ac:	cf9ff06f          	j	142a4 <__svfscanf_r+0x84c>
   145b0:	004ba683          	lw	a3,4(s7)
   145b4:	00170713          	addi	a4,a4,1
   145b8:	001c0c13          	addi	s8,s8,1
   145bc:	fff68693          	addi	a3,a3,-1
   145c0:	00dba223          	sw	a3,4(s7)
   145c4:	00eba023          	sw	a4,0(s7)
   145c8:	03848a63          	beq	s1,s8,145fc <__svfscanf_r+0xba4>
   145cc:	00d04a63          	bgtz	a3,145e0 <__svfscanf_r+0xb88>
   145d0:	000b8593          	mv	a1,s7
   145d4:	00098513          	mv	a0,s3
   145d8:	3e5050ef          	jal	ra,1a1bc <__srefill_r>
   145dc:	02051063          	bnez	a0,145fc <__svfscanf_r+0xba4>
   145e0:	495030ef          	jal	ra,18274 <__locale_ctype_ptr>
   145e4:	000ba703          	lw	a4,0(s7)
   145e8:	00074683          	lbu	a3,0(a4)
   145ec:	00d50533          	add	a0,a0,a3
   145f0:	00154683          	lbu	a3,1(a0)
   145f4:	0086f693          	andi	a3,a3,8
   145f8:	fa068ce3          	beqz	a3,145b0 <__svfscanf_r+0xb58>
   145fc:	01890933          	add	s2,s2,s8
   14600:	d10ff06f          	j	13b10 <__svfscanf_r+0xb8>
   14604:	000016b7          	lui	a3,0x1
   14608:	fff48713          	addi	a4,s1,-1
   1460c:	36c68613          	addi	a2,a3,876 # 136c <sulp-0xed08>
   14610:	00000d13          	li	s10,0
   14614:	00e67a63          	bleu	a4,a2,14628 <__svfscanf_r+0xbd0>
   14618:	fffff7b7          	lui	a5,0xfffff
   1461c:	c9378d13          	addi	s10,a5,-877 # ffffec93 <__global_pointer$+0xfffd1adb>
   14620:	01a48d33          	add	s10,s1,s10
   14624:	36d68493          	addi	s1,a3,877
   14628:	00001db7          	lui	s11,0x1
   1462c:	00812c83          	lw	s9,8(sp)
   14630:	d80d8713          	addi	a4,s11,-640 # d80 <sulp-0xf2f4>
   14634:	fffff7b7          	lui	a5,0xfffff
   14638:	00e46433          	or	s0,s0,a4
   1463c:	00000c13          	li	s8,0
   14640:	03900893          	li	a7,57
   14644:	05800813          	li	a6,88
   14648:	47f78613          	addi	a2,a5,1151 # fffff47f <__global_pointer$+0xfffd22c7>
   1464c:	800d8d93          	addi	s11,s11,-2048
   14650:	000ba683          	lw	a3,0(s7)
   14654:	0006c703          	lbu	a4,0(a3)
   14658:	08e8ea63          	bltu	a7,a4,146ec <__svfscanf_r+0xc94>
   1465c:	03800593          	li	a1,56
   14660:	14b77c63          	bleu	a1,a4,147b8 <__svfscanf_r+0xd60>
   14664:	03000593          	li	a1,48
   14668:	0cb70a63          	beq	a4,a1,1473c <__svfscanf_r+0xce4>
   1466c:	12e5ea63          	bltu	a1,a4,147a0 <__svfscanf_r+0xd48>
   14670:	02b00593          	li	a1,43
   14674:	16b70063          	beq	a4,a1,147d4 <__svfscanf_r+0xd7c>
   14678:	02d00593          	li	a1,45
   1467c:	14b70c63          	beq	a4,a1,147d4 <__svfscanf_r+0xd7c>
   14680:	10047713          	andi	a4,s0,256
   14684:	02070663          	beqz	a4,146b0 <__svfscanf_r+0xc58>
   14688:	00812783          	lw	a5,8(sp)
   1468c:	0197fe63          	bleu	s9,a5,146a8 <__svfscanf_r+0xc50>
   14690:	fffcc583          	lbu	a1,-1(s9)
   14694:	fffc8493          	addi	s1,s9,-1
   14698:	000b8613          	mv	a2,s7
   1469c:	00098513          	mv	a0,s3
   146a0:	5040a0ef          	jal	ra,1eba4 <_ungetc_r>
   146a4:	00048c93          	mv	s9,s1
   146a8:	00812783          	lw	a5,8(sp)
   146ac:	eafc8663          	beq	s9,a5,13d58 <__svfscanf_r+0x300>
   146b0:	01047713          	andi	a4,s0,16
   146b4:	16071a63          	bnez	a4,14828 <__svfscanf_r+0xdd0>
   146b8:	00812583          	lw	a1,8(sp)
   146bc:	00012783          	lw	a5,0(sp)
   146c0:	000a0693          	mv	a3,s4
   146c4:	00000613          	li	a2,0
   146c8:	00098513          	mv	a0,s3
   146cc:	000c8023          	sb	zero,0(s9)
   146d0:	000780e7          	jalr	a5
   146d4:	02047713          	andi	a4,s0,32
   146d8:	004a8493          	addi	s1,s5,4
   146dc:	12070a63          	beqz	a4,14810 <__svfscanf_r+0xdb8>
   146e0:	000aa703          	lw	a4,0(s5)
   146e4:	00a72023          	sw	a0,0(a4)
   146e8:	1380006f          	j	14820 <__svfscanf_r+0xdc8>
   146ec:	03070a63          	beq	a4,a6,14720 <__svfscanf_r+0xcc8>
   146f0:	00e86c63          	bltu	a6,a4,14708 <__svfscanf_r+0xcb0>
   146f4:	fbf70593          	addi	a1,a4,-65
   146f8:	00500513          	li	a0,5
   146fc:	f8b562e3          	bltu	a0,a1,14680 <__svfscanf_r+0xc28>
   14700:	00a00593          	li	a1,10
   14704:	0c80006f          	j	147cc <__svfscanf_r+0xd74>
   14708:	06100593          	li	a1,97
   1470c:	f6b76ae3          	bltu	a4,a1,14680 <__svfscanf_r+0xc28>
   14710:	06600593          	li	a1,102
   14714:	fee5f6e3          	bleu	a4,a1,14700 <__svfscanf_r+0xca8>
   14718:	07800593          	li	a1,120
   1471c:	f6b712e3          	bne	a4,a1,14680 <__svfscanf_r+0xc28>
   14720:	60047593          	andi	a1,s0,1536
   14724:	20000513          	li	a0,512
   14728:	f4a59ce3          	bne	a1,a0,14680 <__svfscanf_r+0xc28>
   1472c:	dff47413          	andi	s0,s0,-513
   14730:	50046413          	ori	s0,s0,1280
   14734:	01000a13          	li	s4,16
   14738:	0240006f          	j	1475c <__svfscanf_r+0xd04>
   1473c:	01b475b3          	and	a1,s0,s11
   14740:	00058e63          	beqz	a1,1475c <__svfscanf_r+0xd04>
   14744:	000a1663          	bnez	s4,14750 <__svfscanf_r+0xcf8>
   14748:	20046413          	ori	s0,s0,512
   1474c:	00800a13          	li	s4,8
   14750:	40047593          	andi	a1,s0,1024
   14754:	00058a63          	beqz	a1,14768 <__svfscanf_r+0xd10>
   14758:	a7f47413          	andi	s0,s0,-1409
   1475c:	00ec8023          	sb	a4,0(s9)
   14760:	001c8c93          	addi	s9,s9,1
   14764:	0180006f          	j	1477c <__svfscanf_r+0xd24>
   14768:	c7f47413          	andi	s0,s0,-897
   1476c:	000d0663          	beqz	s10,14778 <__svfscanf_r+0xd20>
   14770:	fffd0d13          	addi	s10,s10,-1
   14774:	00148493          	addi	s1,s1,1
   14778:	001c0c13          	addi	s8,s8,1
   1477c:	004ba703          	lw	a4,4(s7)
   14780:	fff70713          	addi	a4,a4,-1
   14784:	00eba223          	sw	a4,4(s7)
   14788:	04e05e63          	blez	a4,147e4 <__svfscanf_r+0xd8c>
   1478c:	00168693          	addi	a3,a3,1
   14790:	00dba023          	sw	a3,0(s7)
   14794:	fff48493          	addi	s1,s1,-1
   14798:	ea049ce3          	bnez	s1,14650 <__svfscanf_r+0xbf8>
   1479c:	ee5ff06f          	j	14680 <__svfscanf_r+0xc28>
   147a0:	01412783          	lw	a5,20(sp)
   147a4:	001a1a13          	slli	s4,s4,0x1
   147a8:	01478a33          	add	s4,a5,s4
   147ac:	000a1a03          	lh	s4,0(s4)
   147b0:	00c47433          	and	s0,s0,a2
   147b4:	fa9ff06f          	j	1475c <__svfscanf_r+0xd04>
   147b8:	01412783          	lw	a5,20(sp)
   147bc:	001a1a13          	slli	s4,s4,0x1
   147c0:	00800593          	li	a1,8
   147c4:	01478a33          	add	s4,a5,s4
   147c8:	000a1a03          	lh	s4,0(s4)
   147cc:	ff45c2e3          	blt	a1,s4,147b0 <__svfscanf_r+0xd58>
   147d0:	eb1ff06f          	j	14680 <__svfscanf_r+0xc28>
   147d4:	08047593          	andi	a1,s0,128
   147d8:	ea0584e3          	beqz	a1,14680 <__svfscanf_r+0xc28>
   147dc:	f7f47413          	andi	s0,s0,-129
   147e0:	f7dff06f          	j	1475c <__svfscanf_r+0xd04>
   147e4:	000b8593          	mv	a1,s7
   147e8:	00098513          	mv	a0,s3
   147ec:	00c12c23          	sw	a2,24(sp)
   147f0:	01012823          	sw	a6,16(sp)
   147f4:	01112623          	sw	a7,12(sp)
   147f8:	1c5050ef          	jal	ra,1a1bc <__srefill_r>
   147fc:	00c12883          	lw	a7,12(sp)
   14800:	01012803          	lw	a6,16(sp)
   14804:	01812603          	lw	a2,24(sp)
   14808:	f80506e3          	beqz	a0,14794 <__svfscanf_r+0xd3c>
   1480c:	e75ff06f          	j	14680 <__svfscanf_r+0xc28>
   14810:	00847713          	andi	a4,s0,8
   14814:	02070263          	beqz	a4,14838 <__svfscanf_r+0xde0>
   14818:	000aa703          	lw	a4,0(s5)
   1481c:	00a70023          	sb	a0,0(a4)
   14820:	001b0b13          	addi	s6,s6,1
   14824:	00048a93          	mv	s5,s1
   14828:	00812783          	lw	a5,8(sp)
   1482c:	40fc8cb3          	sub	s9,s9,a5
   14830:	018c8c33          	add	s8,s9,s8
   14834:	dc9ff06f          	j	145fc <__svfscanf_r+0xba4>
   14838:	00447713          	andi	a4,s0,4
   1483c:	00070863          	beqz	a4,1484c <__svfscanf_r+0xdf4>
   14840:	000aa703          	lw	a4,0(s5)
   14844:	00a71023          	sh	a0,0(a4)
   14848:	fd9ff06f          	j	14820 <__svfscanf_r+0xdc8>
   1484c:	00147713          	andi	a4,s0,1
   14850:	e80718e3          	bnez	a4,146e0 <__svfscanf_r+0xc88>
   14854:	00247413          	andi	s0,s0,2
   14858:	e80404e3          	beqz	s0,146e0 <__svfscanf_r+0xc88>
   1485c:	0001d7b7          	lui	a5,0x1d
   14860:	ac078713          	addi	a4,a5,-1344 # 1cac0 <_strtoul_r>
   14864:	00012783          	lw	a5,0(sp)
   14868:	000a0693          	mv	a3,s4
   1486c:	00000613          	li	a2,0
   14870:	00812583          	lw	a1,8(sp)
   14874:	00098513          	mv	a0,s3
   14878:	00e79c63          	bne	a5,a4,14890 <__svfscanf_r+0xe38>
   1487c:	7f1070ef          	jal	ra,1c86c <_strtoull_r>
   14880:	000aa703          	lw	a4,0(s5)
   14884:	00a72023          	sw	a0,0(a4)
   14888:	00b72223          	sw	a1,4(a4)
   1488c:	f95ff06f          	j	14820 <__svfscanf_r+0xdc8>
   14890:	13d070ef          	jal	ra,1c1cc <_strtoll_r>
   14894:	fedff06f          	j	14880 <__svfscanf_r+0xe28>
   14898:	04500513          	li	a0,69
   1489c:	08a68c63          	beq	a3,a0,14934 <__svfscanf_r+0xedc>
   148a0:	02d56663          	bltu	a0,a3,148cc <__svfscanf_r+0xe74>
   148a4:	04100513          	li	a0,65
   148a8:	18a68663          	beq	a3,a0,14a34 <__svfscanf_r+0xfdc>
   148ac:	01812783          	lw	a5,24(sp)
   148b0:	0007c503          	lbu	a0,0(a5)
   148b4:	18d51263          	bne	a0,a3,14a38 <__svfscanf_r+0xfe0>
   148b8:	20047513          	andi	a0,s0,512
   148bc:	16050e63          	beqz	a0,14a38 <__svfscanf_r+0xfe0>
   148c0:	d7f47413          	andi	s0,s0,-641
   148c4:	01812623          	sw	s8,12(sp)
   148c8:	12c0006f          	j	149f4 <__svfscanf_r+0xf9c>
   148cc:	04600513          	li	a0,70
   148d0:	1ca68263          	beq	a3,a0,14a94 <__svfscanf_r+0x103c>
   148d4:	04900513          	li	a0,73
   148d8:	fca69ae3          	bne	a3,a0,148ac <__svfscanf_r+0xe54>
   148dc:	1a0c9463          	bnez	s9,14a84 <__svfscanf_r+0x102c>
   148e0:	140c1e63          	bnez	s8,14a3c <__svfscanf_r+0xfe4>
   148e4:	70047513          	andi	a0,s0,1792
   148e8:	15e51c63          	bne	a0,t5,14a40 <__svfscanf_r+0xfe8>
   148ec:	87f47413          	andi	s0,s0,-1921
   148f0:	00100c93          	li	s9,1
   148f4:	1000006f          	j	149f4 <__svfscanf_r+0xf9c>
   148f8:	19f68e63          	beq	a3,t6,14a94 <__svfscanf_r+0x103c>
   148fc:	06dfea63          	bltu	t6,a3,14970 <__svfscanf_r+0xf18>
   14900:	05900513          	li	a0,89
   14904:	08a68863          	beq	a3,a0,14994 <__svfscanf_r+0xf3c>
   14908:	00d56e63          	bltu	a0,a3,14924 <__svfscanf_r+0xecc>
   1490c:	05400513          	li	a0,84
   14910:	f8a69ee3          	bne	a3,a0,148ac <__svfscanf_r+0xe54>
   14914:	00600513          	li	a0,6
   14918:	12ac9063          	bne	s9,a0,14a38 <__svfscanf_r+0xfe0>
   1491c:	00700c93          	li	s9,7
   14920:	0d40006f          	j	149f4 <__svfscanf_r+0xf9c>
   14924:	06100513          	li	a0,97
   14928:	10a68663          	beq	a3,a0,14a34 <__svfscanf_r+0xfdc>
   1492c:	06500513          	li	a0,101
   14930:	f6a69ee3          	bne	a3,a0,148ac <__svfscanf_r+0xe54>
   14934:	50047513          	andi	a0,s0,1280
   14938:	00550863          	beq	a0,t0,14948 <__svfscanf_r+0xef0>
   1493c:	40047513          	andi	a0,s0,1024
   14940:	0e050c63          	beqz	a0,14a38 <__svfscanf_r+0xfe0>
   14944:	0e0c0e63          	beqz	s8,14a40 <__svfscanf_r+0xfe8>
   14948:	20047513          	andi	a0,s0,512
   1494c:	00051a63          	bnez	a0,14960 <__svfscanf_r+0xf08>
   14950:	00c12783          	lw	a5,12(sp)
   14954:	000d0d93          	mv	s11,s10
   14958:	40fc07b3          	sub	a5,s8,a5
   1495c:	00f12823          	sw	a5,16(sp)
   14960:	87f47413          	andi	s0,s0,-1921
   14964:	18046413          	ori	s0,s0,384
   14968:	00000c13          	li	s8,0
   1496c:	0880006f          	j	149f4 <__svfscanf_r+0xf9c>
   14970:	06e00513          	li	a0,110
   14974:	08a68663          	beq	a3,a0,14a00 <__svfscanf_r+0xfa8>
   14978:	00d56663          	bltu	a0,a3,14984 <__svfscanf_r+0xf2c>
   1497c:	06900513          	li	a0,105
   14980:	f59ff06f          	j	148d8 <__svfscanf_r+0xe80>
   14984:	07400513          	li	a0,116
   14988:	f8a686e3          	beq	a3,a0,14914 <__svfscanf_r+0xebc>
   1498c:	07900513          	li	a0,121
   14990:	f0a69ee3          	bne	a3,a0,148ac <__svfscanf_r+0xe54>
   14994:	00700513          	li	a0,7
   14998:	0aac9063          	bne	s9,a0,14a38 <__svfscanf_r+0xfe0>
   1499c:	00800c93          	li	s9,8
   149a0:	0540006f          	j	149f4 <__svfscanf_r+0xf9c>
   149a4:	10047513          	andi	a0,s0,256
   149a8:	04050063          	beqz	a0,149e8 <__svfscanf_r+0xf90>
   149ac:	f7f47413          	andi	s0,s0,-129
   149b0:	001c0c13          	addi	s8,s8,1
   149b4:	00088663          	beqz	a7,149c0 <__svfscanf_r+0xf68>
   149b8:	fff88893          	addi	a7,a7,-1
   149bc:	00148493          	addi	s1,s1,1
   149c0:	004ba683          	lw	a3,4(s7)
   149c4:	fff48493          	addi	s1,s1,-1
   149c8:	00190913          	addi	s2,s2,1
   149cc:	fff68693          	addi	a3,a3,-1
   149d0:	00dba223          	sw	a3,4(s7)
   149d4:	0cd05e63          	blez	a3,14ab0 <__svfscanf_r+0x1058>
   149d8:	00158593          	addi	a1,a1,1
   149dc:	00bba023          	sw	a1,0(s7)
   149e0:	fc049263          	bnez	s1,141a4 <__svfscanf_r+0x74c>
   149e4:	0540006f          	j	14a38 <__svfscanf_r+0xfe0>
   149e8:	01960533          	add	a0,a2,s9
   149ec:	04051663          	bnez	a0,14a38 <__svfscanf_r+0xfe0>
   149f0:	e7f47413          	andi	s0,s0,-385
   149f4:	00dd0023          	sb	a3,0(s10)
   149f8:	001d0d13          	addi	s10,s10,1
   149fc:	fc5ff06f          	j	149c0 <__svfscanf_r+0xf68>
   14a00:	00061e63          	bnez	a2,14a1c <__svfscanf_r+0xfc4>
   14a04:	000c1e63          	bnez	s8,14a20 <__svfscanf_r+0xfc8>
   14a08:	70047513          	andi	a0,s0,1792
   14a0c:	01e51a63          	bne	a0,t5,14a20 <__svfscanf_r+0xfc8>
   14a10:	87f47413          	andi	s0,s0,-1921
   14a14:	00100613          	li	a2,1
   14a18:	fddff06f          	j	149f4 <__svfscanf_r+0xf9c>
   14a1c:	09d60263          	beq	a2,t4,14aa0 <__svfscanf_r+0x1048>
   14a20:	01cc8463          	beq	s9,t3,14a28 <__svfscanf_r+0xfd0>
   14a24:	007c9a63          	bne	s9,t2,14a38 <__svfscanf_r+0xfe0>
   14a28:	001c8c93          	addi	s9,s9,1
   14a2c:	0ffcfc93          	andi	s9,s9,255
   14a30:	fc5ff06f          	j	149f4 <__svfscanf_r+0xf9c>
   14a34:	07c60a63          	beq	a2,t3,14aa8 <__svfscanf_r+0x1050>
   14a38:	000c0463          	beqz	s8,14a40 <__svfscanf_r+0xfe8>
   14a3c:	eff47413          	andi	s0,s0,-257
   14a40:	fff60613          	addi	a2,a2,-1
   14a44:	00100693          	li	a3,1
   14a48:	0cc6e263          	bltu	a3,a2,14b0c <__svfscanf_r+0x10b4>
   14a4c:	000017b7          	lui	a5,0x1
   14a50:	fffff437          	lui	s0,0xfffff
   14a54:	49078793          	addi	a5,a5,1168 # 1490 <sulp-0xebe4>
   14a58:	04010713          	addi	a4,sp,64
   14a5c:	c9040413          	addi	s0,s0,-880 # ffffec90 <__global_pointer$+0xfffd1ad8>
   14a60:	00e787b3          	add	a5,a5,a4
   14a64:	00878433          	add	s0,a5,s0
   14a68:	afa47863          	bleu	s10,s0,13d58 <__svfscanf_r+0x300>
   14a6c:	fffd0d13          	addi	s10,s10,-1
   14a70:	000d4583          	lbu	a1,0(s10)
   14a74:	000b8613          	mv	a2,s7
   14a78:	00098513          	mv	a0,s3
   14a7c:	1280a0ef          	jal	ra,1eba4 <_ungetc_r>
   14a80:	fe9ff06f          	j	14a68 <__svfscanf_r+0x1010>
   14a84:	ffdc8513          	addi	a0,s9,-3
   14a88:	0fd57513          	andi	a0,a0,253
   14a8c:	f8050ee3          	beqz	a0,14a28 <__svfscanf_r+0xfd0>
   14a90:	fa9ff06f          	j	14a38 <__svfscanf_r+0xfe0>
   14a94:	fbdc92e3          	bne	s9,t4,14a38 <__svfscanf_r+0xfe0>
   14a98:	00300c93          	li	s9,3
   14a9c:	f59ff06f          	j	149f4 <__svfscanf_r+0xf9c>
   14aa0:	00300613          	li	a2,3
   14aa4:	f51ff06f          	j	149f4 <__svfscanf_r+0xf9c>
   14aa8:	00200613          	li	a2,2
   14aac:	f49ff06f          	j	149f4 <__svfscanf_r+0xf9c>
   14ab0:	000b8593          	mv	a1,s7
   14ab4:	00098513          	mv	a0,s3
   14ab8:	03f12e23          	sw	t6,60(sp)
   14abc:	02512c23          	sw	t0,56(sp)
   14ac0:	03e12a23          	sw	t5,52(sp)
   14ac4:	03d12823          	sw	t4,48(sp)
   14ac8:	02712623          	sw	t2,44(sp)
   14acc:	03c12423          	sw	t3,40(sp)
   14ad0:	02612223          	sw	t1,36(sp)
   14ad4:	02c12023          	sw	a2,32(sp)
   14ad8:	01112e23          	sw	a7,28(sp)
   14adc:	6e0050ef          	jal	ra,1a1bc <__srefill_r>
   14ae0:	01c12883          	lw	a7,28(sp)
   14ae4:	02012603          	lw	a2,32(sp)
   14ae8:	02412303          	lw	t1,36(sp)
   14aec:	02812e03          	lw	t3,40(sp)
   14af0:	02c12383          	lw	t2,44(sp)
   14af4:	03012e83          	lw	t4,48(sp)
   14af8:	03412f03          	lw	t5,52(sp)
   14afc:	03812283          	lw	t0,56(sp)
   14b00:	03c12f83          	lw	t6,60(sp)
   14b04:	ec050ee3          	beqz	a0,149e0 <__svfscanf_r+0xf88>
   14b08:	f31ff06f          	j	14a38 <__svfscanf_r+0xfe0>
   14b0c:	fffc8693          	addi	a3,s9,-1
   14b10:	00600613          	li	a2,6
   14b14:	08d66263          	bltu	a2,a3,14b98 <__svfscanf_r+0x1140>
   14b18:	00200693          	li	a3,2
   14b1c:	0d96e263          	bltu	a3,s9,14be0 <__svfscanf_r+0x1188>
   14b20:	000017b7          	lui	a5,0x1
   14b24:	fffff437          	lui	s0,0xfffff
   14b28:	49078793          	addi	a5,a5,1168 # 1490 <sulp-0xebe4>
   14b2c:	04010713          	addi	a4,sp,64
   14b30:	c9040413          	addi	s0,s0,-880 # ffffec90 <__global_pointer$+0xfffd1ad8>
   14b34:	00e787b3          	add	a5,a5,a4
   14b38:	00878433          	add	s0,a5,s0
   14b3c:	a1a47e63          	bleu	s10,s0,13d58 <__svfscanf_r+0x300>
   14b40:	fffd0d13          	addi	s10,s10,-1
   14b44:	000d4583          	lbu	a1,0(s10)
   14b48:	000b8613          	mv	a2,s7
   14b4c:	00098513          	mv	a0,s3
   14b50:	0540a0ef          	jal	ra,1eba4 <_ungetc_r>
   14b54:	fe9ff06f          	j	14b3c <__svfscanf_r+0x10e4>
   14b58:	fff6c583          	lbu	a1,-1(a3)
   14b5c:	000b8613          	mv	a2,s7
   14b60:	fff68693          	addi	a3,a3,-1
   14b64:	00098513          	mv	a0,s3
   14b68:	01112e23          	sw	a7,28(sp)
   14b6c:	00d12c23          	sw	a3,24(sp)
   14b70:	0340a0ef          	jal	ra,1eba4 <_ungetc_r>
   14b74:	01812683          	lw	a3,24(sp)
   14b78:	01c12883          	lw	a7,28(sp)
   14b7c:	fff48493          	addi	s1,s1,-1
   14b80:	0ff4f493          	andi	s1,s1,255
   14b84:	fd149ae3          	bne	s1,a7,14b58 <__svfscanf_r+0x1100>
   14b88:	ffdc8c93          	addi	s9,s9,-3
   14b8c:	0ffcfc93          	andi	s9,s9,255
   14b90:	419d0d33          	sub	s10,s10,s9
   14b94:	41990933          	sub	s2,s2,s9
   14b98:	10047693          	andi	a3,s0,256
   14b9c:	08068e63          	beqz	a3,14c38 <__svfscanf_r+0x11e0>
   14ba0:	40047693          	andi	a3,s0,1024
   14ba4:	04068663          	beqz	a3,14bf0 <__svfscanf_r+0x1198>
   14ba8:	000017b7          	lui	a5,0x1
   14bac:	fffff437          	lui	s0,0xfffff
   14bb0:	49078793          	addi	a5,a5,1168 # 1490 <sulp-0xebe4>
   14bb4:	04010713          	addi	a4,sp,64
   14bb8:	c9040413          	addi	s0,s0,-880 # ffffec90 <__global_pointer$+0xfffd1ad8>
   14bbc:	00e787b3          	add	a5,a5,a4
   14bc0:	00878433          	add	s0,a5,s0
   14bc4:	99a47a63          	bleu	s10,s0,13d58 <__svfscanf_r+0x300>
   14bc8:	fffd0d13          	addi	s10,s10,-1
   14bcc:	000d4583          	lbu	a1,0(s10)
   14bd0:	000b8613          	mv	a2,s7
   14bd4:	00098513          	mv	a0,s3
   14bd8:	7cd090ef          	jal	ra,1eba4 <_ungetc_r>
   14bdc:	fe9ff06f          	j	14bc4 <__svfscanf_r+0x116c>
   14be0:	000c8493          	mv	s1,s9
   14be4:	000d0693          	mv	a3,s10
   14be8:	00200893          	li	a7,2
   14bec:	f91ff06f          	j	14b7c <__svfscanf_r+0x1124>
   14bf0:	fffd4583          	lbu	a1,-1(s10)
   14bf4:	06500693          	li	a3,101
   14bf8:	fffd0493          	addi	s1,s10,-1
   14bfc:	fff90c93          	addi	s9,s2,-1
   14c00:	02d58263          	beq	a1,a3,14c24 <__svfscanf_r+0x11cc>
   14c04:	04500693          	li	a3,69
   14c08:	00d58e63          	beq	a1,a3,14c24 <__svfscanf_r+0x11cc>
   14c0c:	000b8613          	mv	a2,s7
   14c10:	00098513          	mv	a0,s3
   14c14:	791090ef          	jal	ra,1eba4 <_ungetc_r>
   14c18:	ffed4583          	lbu	a1,-2(s10)
   14c1c:	ffed0493          	addi	s1,s10,-2
   14c20:	ffe90c93          	addi	s9,s2,-2
   14c24:	000b8613          	mv	a2,s7
   14c28:	00098513          	mv	a0,s3
   14c2c:	779090ef          	jal	ra,1eba4 <_ungetc_r>
   14c30:	000c8913          	mv	s2,s9
   14c34:	00048d13          	mv	s10,s1
   14c38:	01047693          	andi	a3,s0,16
   14c3c:	00068463          	beqz	a3,14c44 <__svfscanf_r+0x11ec>
   14c40:	ed1fe06f          	j	13b10 <__svfscanf_r+0xb8>
   14c44:	000d0023          	sb	zero,0(s10)
   14c48:	60047693          	andi	a3,s0,1536
   14c4c:	40000613          	li	a2,1024
   14c50:	06c69e63          	bne	a3,a2,14ccc <__svfscanf_r+0x1274>
   14c54:	00c12783          	lw	a5,12(sp)
   14c58:	40fc0c33          	sub	s8,s8,a5
   14c5c:	41800633          	neg	a2,s8
   14c60:	080c1a63          	bnez	s8,14cf4 <__svfscanf_r+0x129c>
   14c64:	00247493          	andi	s1,s0,2
   14c68:	0c048063          	beqz	s1,14d28 <__svfscanf_r+0x12d0>
   14c6c:	fffff7b7          	lui	a5,0xfffff
   14c70:	b7078513          	addi	a0,a5,-1168 # ffffeb70 <__global_pointer$+0xfffd19b8>
   14c74:	000017b7          	lui	a5,0x1
   14c78:	04010713          	addi	a4,sp,64
   14c7c:	00812603          	lw	a2,8(sp)
   14c80:	49078793          	addi	a5,a5,1168 # 1490 <sulp-0xebe4>
   14c84:	00e787b3          	add	a5,a5,a4
   14c88:	00000693          	li	a3,0
   14c8c:	00098593          	mv	a1,s3
   14c90:	00a78533          	add	a0,a5,a0
   14c94:	17c070ef          	jal	ra,1be10 <_strtold_r>
   14c98:	04012583          	lw	a1,64(sp)
   14c9c:	04412603          	lw	a2,68(sp)
   14ca0:	04812683          	lw	a3,72(sp)
   14ca4:	04c12703          	lw	a4,76(sp)
   14ca8:	00000d13          	li	s10,0
   14cac:	00000d93          	li	s11,0
   14cb0:	00147413          	andi	s0,s0,1
   14cb4:	000aac03          	lw	s8,0(s5)
   14cb8:	004a8a93          	addi	s5,s5,4
   14cbc:	08040c63          	beqz	s0,14d54 <__svfscanf_r+0x12fc>
   14cc0:	01ac2023          	sw	s10,0(s8)
   14cc4:	01bc2223          	sw	s11,4(s8)
   14cc8:	d4cff06f          	j	14214 <__svfscanf_r+0x7bc>
   14ccc:	01012783          	lw	a5,16(sp)
   14cd0:	f8078ae3          	beqz	a5,14c64 <__svfscanf_r+0x120c>
   14cd4:	00000613          	li	a2,0
   14cd8:	00a00693          	li	a3,10
   14cdc:	001d8593          	addi	a1,s11,1
   14ce0:	00098513          	mv	a0,s3
   14ce4:	758070ef          	jal	ra,1c43c <_strtol_r>
   14ce8:	01012783          	lw	a5,16(sp)
   14cec:	000d8d13          	mv	s10,s11
   14cf0:	40f50633          	sub	a2,a0,a5
   14cf4:	000017b7          	lui	a5,0x1
   14cf8:	48378713          	addi	a4,a5,1155 # 1483 <sulp-0xebf1>
   14cfc:	04010693          	addi	a3,sp,64
   14d00:	00e686b3          	add	a3,a3,a4
   14d04:	00dd6863          	bltu	s10,a3,14d14 <__svfscanf_r+0x12bc>
   14d08:	48278793          	addi	a5,a5,1154
   14d0c:	04010713          	addi	a4,sp,64
   14d10:	00f70d33          	add	s10,a4,a5
   14d14:	0002b5b7          	lui	a1,0x2b
   14d18:	b3058593          	addi	a1,a1,-1232 # 2ab30 <basefix.4425+0x24>
   14d1c:	000d0513          	mv	a0,s10
   14d20:	085050ef          	jal	ra,1a5a4 <sprintf>
   14d24:	f41ff06f          	j	14c64 <__svfscanf_r+0x120c>
   14d28:	00812583          	lw	a1,8(sp)
   14d2c:	00000613          	li	a2,0
   14d30:	00098513          	mv	a0,s3
   14d34:	5f5060ef          	jal	ra,1bb28 <_strtod_r>
   14d38:	00058d93          	mv	s11,a1
   14d3c:	00050d13          	mv	s10,a0
   14d40:	00000593          	li	a1,0
   14d44:	00000613          	li	a2,0
   14d48:	00000693          	li	a3,0
   14d4c:	00000713          	li	a4,0
   14d50:	f61ff06f          	j	14cb0 <__svfscanf_r+0x1258>
   14d54:	00048c63          	beqz	s1,14d6c <__svfscanf_r+0x1314>
   14d58:	00bc2023          	sw	a1,0(s8)
   14d5c:	00cc2223          	sw	a2,4(s8)
   14d60:	00dc2423          	sw	a3,8(s8)
   14d64:	00ec2623          	sw	a4,12(s8)
   14d68:	cacff06f          	j	14214 <__svfscanf_r+0x7bc>
   14d6c:	000d0613          	mv	a2,s10
   14d70:	000d8693          	mv	a3,s11
   14d74:	000d0513          	mv	a0,s10
   14d78:	000d8593          	mv	a1,s11
   14d7c:	671110ef          	jal	ra,26bec <__unorddf2>
   14d80:	00050a63          	beqz	a0,14d94 <__svfscanf_r+0x133c>
   14d84:	00000513          	li	a0,0
   14d88:	6f8050ef          	jal	ra,1a480 <nanf>
   14d8c:	00ac2023          	sw	a0,0(s8)
   14d90:	c84ff06f          	j	14214 <__svfscanf_r+0x7bc>
   14d94:	000d0513          	mv	a0,s10
   14d98:	000d8593          	mv	a1,s11
   14d9c:	408150ef          	jal	ra,2a1a4 <__truncdfsf2>
   14da0:	fedff06f          	j	14d8c <__svfscanf_r+0x1334>

00014da4 <vfscanf>:
   14da4:	fe010113          	addi	sp,sp,-32
   14da8:	00812c23          	sw	s0,24(sp)
   14dac:	8681a403          	lw	s0,-1944(gp) # 2ca20 <_impure_ptr>
   14db0:	00912a23          	sw	s1,20(sp)
   14db4:	00112e23          	sw	ra,28(sp)
   14db8:	00050493          	mv	s1,a0
   14dbc:	00060693          	mv	a3,a2
   14dc0:	02040263          	beqz	s0,14de4 <vfscanf+0x40>
   14dc4:	03842783          	lw	a5,56(s0)
   14dc8:	00079e63          	bnez	a5,14de4 <vfscanf+0x40>
   14dcc:	00040513          	mv	a0,s0
   14dd0:	00b12423          	sw	a1,8(sp)
   14dd4:	00c12623          	sw	a2,12(sp)
   14dd8:	6ec000ef          	jal	ra,154c4 <__sinit>
   14ddc:	00c12683          	lw	a3,12(sp)
   14de0:	00812583          	lw	a1,8(sp)
   14de4:	00040513          	mv	a0,s0
   14de8:	01812403          	lw	s0,24(sp)
   14dec:	01c12083          	lw	ra,28(sp)
   14df0:	00058613          	mv	a2,a1
   14df4:	00048593          	mv	a1,s1
   14df8:	01412483          	lw	s1,20(sp)
   14dfc:	02010113          	addi	sp,sp,32
   14e00:	c59fe06f          	j	13a58 <__svfscanf_r>

00014e04 <__svfscanf>:
   14e04:	00060693          	mv	a3,a2
   14e08:	00058613          	mv	a2,a1
   14e0c:	00050593          	mv	a1,a0
   14e10:	8681a503          	lw	a0,-1944(gp) # 2ca20 <_impure_ptr>
   14e14:	c45fe06f          	j	13a58 <__svfscanf_r>

00014e18 <_vfscanf_r>:
   14e18:	fe010113          	addi	sp,sp,-32
   14e1c:	00812c23          	sw	s0,24(sp)
   14e20:	00112e23          	sw	ra,28(sp)
   14e24:	00050413          	mv	s0,a0
   14e28:	02050463          	beqz	a0,14e50 <_vfscanf_r+0x38>
   14e2c:	03852783          	lw	a5,56(a0)
   14e30:	02079063          	bnez	a5,14e50 <_vfscanf_r+0x38>
   14e34:	00d12623          	sw	a3,12(sp)
   14e38:	00c12423          	sw	a2,8(sp)
   14e3c:	00b12223          	sw	a1,4(sp)
   14e40:	684000ef          	jal	ra,154c4 <__sinit>
   14e44:	00c12683          	lw	a3,12(sp)
   14e48:	00812603          	lw	a2,8(sp)
   14e4c:	00412583          	lw	a1,4(sp)
   14e50:	00040513          	mv	a0,s0
   14e54:	01812403          	lw	s0,24(sp)
   14e58:	01c12083          	lw	ra,28(sp)
   14e5c:	02010113          	addi	sp,sp,32
   14e60:	bf9fe06f          	j	13a58 <__svfscanf_r>

00014e64 <__swsetup_r>:
   14e64:	ff010113          	addi	sp,sp,-16
   14e68:	00912223          	sw	s1,4(sp)
   14e6c:	00050493          	mv	s1,a0
   14e70:	8681a503          	lw	a0,-1944(gp) # 2ca20 <_impure_ptr>
   14e74:	00812423          	sw	s0,8(sp)
   14e78:	00112623          	sw	ra,12(sp)
   14e7c:	00058413          	mv	s0,a1
   14e80:	00050863          	beqz	a0,14e90 <__swsetup_r+0x2c>
   14e84:	03852783          	lw	a5,56(a0)
   14e88:	00079463          	bnez	a5,14e90 <__swsetup_r+0x2c>
   14e8c:	638000ef          	jal	ra,154c4 <__sinit>
   14e90:	00c41703          	lh	a4,12(s0)
   14e94:	01071793          	slli	a5,a4,0x10
   14e98:	0107d793          	srli	a5,a5,0x10
   14e9c:	0087f693          	andi	a3,a5,8
   14ea0:	06069e63          	bnez	a3,14f1c <__swsetup_r+0xb8>
   14ea4:	0107f693          	andi	a3,a5,16
   14ea8:	02069663          	bnez	a3,14ed4 <__swsetup_r+0x70>
   14eac:	00900793          	li	a5,9
   14eb0:	00f4a023          	sw	a5,0(s1)
   14eb4:	04076713          	ori	a4,a4,64
   14eb8:	00e41623          	sh	a4,12(s0)
   14ebc:	fff00513          	li	a0,-1
   14ec0:	00c12083          	lw	ra,12(sp)
   14ec4:	00812403          	lw	s0,8(sp)
   14ec8:	00412483          	lw	s1,4(sp)
   14ecc:	01010113          	addi	sp,sp,16
   14ed0:	00008067          	ret
   14ed4:	0047f793          	andi	a5,a5,4
   14ed8:	02078c63          	beqz	a5,14f10 <__swsetup_r+0xac>
   14edc:	03042583          	lw	a1,48(s0)
   14ee0:	00058c63          	beqz	a1,14ef8 <__swsetup_r+0x94>
   14ee4:	04040793          	addi	a5,s0,64
   14ee8:	00f58663          	beq	a1,a5,14ef4 <__swsetup_r+0x90>
   14eec:	00048513          	mv	a0,s1
   14ef0:	1e1000ef          	jal	ra,158d0 <_free_r>
   14ef4:	02042823          	sw	zero,48(s0)
   14ef8:	00c45783          	lhu	a5,12(s0)
   14efc:	00042223          	sw	zero,4(s0)
   14f00:	fdb7f793          	andi	a5,a5,-37
   14f04:	00f41623          	sh	a5,12(s0)
   14f08:	01042783          	lw	a5,16(s0)
   14f0c:	00f42023          	sw	a5,0(s0)
   14f10:	00c45783          	lhu	a5,12(s0)
   14f14:	0087e793          	ori	a5,a5,8
   14f18:	00f41623          	sh	a5,12(s0)
   14f1c:	01042783          	lw	a5,16(s0)
   14f20:	02079063          	bnez	a5,14f40 <__swsetup_r+0xdc>
   14f24:	00c45783          	lhu	a5,12(s0)
   14f28:	20000713          	li	a4,512
   14f2c:	2807f793          	andi	a5,a5,640
   14f30:	00e78863          	beq	a5,a4,14f40 <__swsetup_r+0xdc>
   14f34:	00040593          	mv	a1,s0
   14f38:	00048513          	mv	a0,s1
   14f3c:	400030ef          	jal	ra,1833c <__smakebuf_r>
   14f40:	00c45783          	lhu	a5,12(s0)
   14f44:	0017f713          	andi	a4,a5,1
   14f48:	02070c63          	beqz	a4,14f80 <__swsetup_r+0x11c>
   14f4c:	01442783          	lw	a5,20(s0)
   14f50:	00042423          	sw	zero,8(s0)
   14f54:	40f007b3          	neg	a5,a5
   14f58:	00f42c23          	sw	a5,24(s0)
   14f5c:	01042783          	lw	a5,16(s0)
   14f60:	00000513          	li	a0,0
   14f64:	f4079ee3          	bnez	a5,14ec0 <__swsetup_r+0x5c>
   14f68:	00c41783          	lh	a5,12(s0)
   14f6c:	0807f713          	andi	a4,a5,128
   14f70:	f40708e3          	beqz	a4,14ec0 <__swsetup_r+0x5c>
   14f74:	0407e793          	ori	a5,a5,64
   14f78:	00f41623          	sh	a5,12(s0)
   14f7c:	f41ff06f          	j	14ebc <__swsetup_r+0x58>
   14f80:	0027f793          	andi	a5,a5,2
   14f84:	00000713          	li	a4,0
   14f88:	00079463          	bnez	a5,14f90 <__swsetup_r+0x12c>
   14f8c:	01442703          	lw	a4,20(s0)
   14f90:	00e42423          	sw	a4,8(s0)
   14f94:	fc9ff06f          	j	14f5c <__swsetup_r+0xf8>

00014f98 <__register_exitproc>:
   14f98:	8641a703          	lw	a4,-1948(gp) # 2ca1c <_global_impure_ptr>
   14f9c:	00050313          	mv	t1,a0
   14fa0:	14872783          	lw	a5,328(a4)
   14fa4:	00079663          	bnez	a5,14fb0 <__register_exitproc+0x18>
   14fa8:	14c70793          	addi	a5,a4,332
   14fac:	14f72423          	sw	a5,328(a4)
   14fb0:	0047a703          	lw	a4,4(a5)
   14fb4:	01f00813          	li	a6,31
   14fb8:	fff00513          	li	a0,-1
   14fbc:	04e84a63          	blt	a6,a4,15010 <__register_exitproc+0x78>
   14fc0:	00271893          	slli	a7,a4,0x2
   14fc4:	02030c63          	beqz	t1,14ffc <__register_exitproc+0x64>
   14fc8:	01178533          	add	a0,a5,a7
   14fcc:	08c52423          	sw	a2,136(a0)
   14fd0:	1887a803          	lw	a6,392(a5)
   14fd4:	00100613          	li	a2,1
   14fd8:	00e61633          	sll	a2,a2,a4
   14fdc:	00c86833          	or	a6,a6,a2
   14fe0:	1907a423          	sw	a6,392(a5)
   14fe4:	10d52423          	sw	a3,264(a0)
   14fe8:	00200693          	li	a3,2
   14fec:	00d31863          	bne	t1,a3,14ffc <__register_exitproc+0x64>
   14ff0:	18c7a683          	lw	a3,396(a5)
   14ff4:	00c6e633          	or	a2,a3,a2
   14ff8:	18c7a623          	sw	a2,396(a5)
   14ffc:	00170713          	addi	a4,a4,1
   15000:	00e7a223          	sw	a4,4(a5)
   15004:	011787b3          	add	a5,a5,a7
   15008:	00b7a423          	sw	a1,8(a5)
   1500c:	00000513          	li	a0,0
   15010:	00008067          	ret

00015014 <__call_exitprocs>:
   15014:	fd010113          	addi	sp,sp,-48
   15018:	01312e23          	sw	s3,28(sp)
   1501c:	8641a983          	lw	s3,-1948(gp) # 2ca1c <_global_impure_ptr>
   15020:	01412c23          	sw	s4,24(sp)
   15024:	01512a23          	sw	s5,20(sp)
   15028:	01612823          	sw	s6,16(sp)
   1502c:	02112623          	sw	ra,44(sp)
   15030:	02812423          	sw	s0,40(sp)
   15034:	02912223          	sw	s1,36(sp)
   15038:	03212023          	sw	s2,32(sp)
   1503c:	01712623          	sw	s7,12(sp)
   15040:	00050a93          	mv	s5,a0
   15044:	00058a13          	mv	s4,a1
   15048:	00100b13          	li	s6,1
   1504c:	1489a483          	lw	s1,328(s3)
   15050:	00048c63          	beqz	s1,15068 <__call_exitprocs+0x54>
   15054:	0044a403          	lw	s0,4(s1)
   15058:	fff40913          	addi	s2,s0,-1
   1505c:	00241413          	slli	s0,s0,0x2
   15060:	00848433          	add	s0,s1,s0
   15064:	02095863          	bgez	s2,15094 <__call_exitprocs+0x80>
   15068:	02c12083          	lw	ra,44(sp)
   1506c:	02812403          	lw	s0,40(sp)
   15070:	02412483          	lw	s1,36(sp)
   15074:	02012903          	lw	s2,32(sp)
   15078:	01c12983          	lw	s3,28(sp)
   1507c:	01812a03          	lw	s4,24(sp)
   15080:	01412a83          	lw	s5,20(sp)
   15084:	01012b03          	lw	s6,16(sp)
   15088:	00c12b83          	lw	s7,12(sp)
   1508c:	03010113          	addi	sp,sp,48
   15090:	00008067          	ret
   15094:	000a0c63          	beqz	s4,150ac <__call_exitprocs+0x98>
   15098:	10442783          	lw	a5,260(s0)
   1509c:	01478863          	beq	a5,s4,150ac <__call_exitprocs+0x98>
   150a0:	fff90913          	addi	s2,s2,-1
   150a4:	ffc40413          	addi	s0,s0,-4
   150a8:	fbdff06f          	j	15064 <__call_exitprocs+0x50>
   150ac:	0044a703          	lw	a4,4(s1)
   150b0:	00442783          	lw	a5,4(s0)
   150b4:	fff70713          	addi	a4,a4,-1
   150b8:	03271c63          	bne	a4,s2,150f0 <__call_exitprocs+0xdc>
   150bc:	0124a223          	sw	s2,4(s1)
   150c0:	fe0780e3          	beqz	a5,150a0 <__call_exitprocs+0x8c>
   150c4:	1884a683          	lw	a3,392(s1)
   150c8:	012b1733          	sll	a4,s6,s2
   150cc:	0044ab83          	lw	s7,4(s1)
   150d0:	00d776b3          	and	a3,a4,a3
   150d4:	02069263          	bnez	a3,150f8 <__call_exitprocs+0xe4>
   150d8:	000780e7          	jalr	a5
   150dc:	0044a703          	lw	a4,4(s1)
   150e0:	1489a783          	lw	a5,328(s3)
   150e4:	f77714e3          	bne	a4,s7,1504c <__call_exitprocs+0x38>
   150e8:	faf48ce3          	beq	s1,a5,150a0 <__call_exitprocs+0x8c>
   150ec:	f61ff06f          	j	1504c <__call_exitprocs+0x38>
   150f0:	00042223          	sw	zero,4(s0)
   150f4:	fcdff06f          	j	150c0 <__call_exitprocs+0xac>
   150f8:	18c4a683          	lw	a3,396(s1)
   150fc:	08442583          	lw	a1,132(s0)
   15100:	00d77733          	and	a4,a4,a3
   15104:	00071863          	bnez	a4,15114 <__call_exitprocs+0x100>
   15108:	000a8513          	mv	a0,s5
   1510c:	000780e7          	jalr	a5
   15110:	fcdff06f          	j	150dc <__call_exitprocs+0xc8>
   15114:	00058513          	mv	a0,a1
   15118:	000780e7          	jalr	a5
   1511c:	fc1ff06f          	j	150dc <__call_exitprocs+0xc8>

00015120 <__sflush_r>:
   15120:	00c59783          	lh	a5,12(a1)
   15124:	fe010113          	addi	sp,sp,-32
   15128:	00812c23          	sw	s0,24(sp)
   1512c:	01079713          	slli	a4,a5,0x10
   15130:	01075713          	srli	a4,a4,0x10
   15134:	00912a23          	sw	s1,20(sp)
   15138:	00112e23          	sw	ra,28(sp)
   1513c:	01212823          	sw	s2,16(sp)
   15140:	01312623          	sw	s3,12(sp)
   15144:	00877693          	andi	a3,a4,8
   15148:	00050493          	mv	s1,a0
   1514c:	00058413          	mv	s0,a1
   15150:	16069c63          	bnez	a3,152c8 <__sflush_r+0x1a8>
   15154:	00001737          	lui	a4,0x1
   15158:	80070713          	addi	a4,a4,-2048 # 800 <sulp-0xf874>
   1515c:	00e7e7b3          	or	a5,a5,a4
   15160:	0045a703          	lw	a4,4(a1)
   15164:	00f59623          	sh	a5,12(a1)
   15168:	02e04663          	bgtz	a4,15194 <__sflush_r+0x74>
   1516c:	03c5a703          	lw	a4,60(a1)
   15170:	02e04263          	bgtz	a4,15194 <__sflush_r+0x74>
   15174:	00000513          	li	a0,0
   15178:	01c12083          	lw	ra,28(sp)
   1517c:	01812403          	lw	s0,24(sp)
   15180:	01412483          	lw	s1,20(sp)
   15184:	01012903          	lw	s2,16(sp)
   15188:	00c12983          	lw	s3,12(sp)
   1518c:	02010113          	addi	sp,sp,32
   15190:	00008067          	ret
   15194:	02842703          	lw	a4,40(s0)
   15198:	fc070ee3          	beqz	a4,15174 <__sflush_r+0x54>
   1519c:	0004a903          	lw	s2,0(s1)
   151a0:	01379693          	slli	a3,a5,0x13
   151a4:	0004a023          	sw	zero,0(s1)
   151a8:	01c42583          	lw	a1,28(s0)
   151ac:	0c06d863          	bgez	a3,1527c <__sflush_r+0x15c>
   151b0:	05042603          	lw	a2,80(s0)
   151b4:	00c45783          	lhu	a5,12(s0)
   151b8:	0047f793          	andi	a5,a5,4
   151bc:	00078e63          	beqz	a5,151d8 <__sflush_r+0xb8>
   151c0:	00442783          	lw	a5,4(s0)
   151c4:	40f60633          	sub	a2,a2,a5
   151c8:	03042783          	lw	a5,48(s0)
   151cc:	00078663          	beqz	a5,151d8 <__sflush_r+0xb8>
   151d0:	03c42783          	lw	a5,60(s0)
   151d4:	40f60633          	sub	a2,a2,a5
   151d8:	02842783          	lw	a5,40(s0)
   151dc:	01c42583          	lw	a1,28(s0)
   151e0:	00000693          	li	a3,0
   151e4:	00048513          	mv	a0,s1
   151e8:	000780e7          	jalr	a5
   151ec:	fff00793          	li	a5,-1
   151f0:	00c45683          	lhu	a3,12(s0)
   151f4:	02f51263          	bne	a0,a5,15218 <__sflush_r+0xf8>
   151f8:	0004a783          	lw	a5,0(s1)
   151fc:	01d00713          	li	a4,29
   15200:	0af76c63          	bltu	a4,a5,152b8 <__sflush_r+0x198>
   15204:	20400737          	lui	a4,0x20400
   15208:	00170713          	addi	a4,a4,1 # 20400001 <__global_pointer$+0x203d2e49>
   1520c:	00f75733          	srl	a4,a4,a5
   15210:	00177713          	andi	a4,a4,1
   15214:	0a070263          	beqz	a4,152b8 <__sflush_r+0x198>
   15218:	fffff7b7          	lui	a5,0xfffff
   1521c:	7ff78793          	addi	a5,a5,2047 # fffff7ff <__global_pointer$+0xfffd2647>
   15220:	01042703          	lw	a4,16(s0)
   15224:	00d7f7b3          	and	a5,a5,a3
   15228:	01079793          	slli	a5,a5,0x10
   1522c:	4107d793          	srai	a5,a5,0x10
   15230:	00e42023          	sw	a4,0(s0)
   15234:	00f41623          	sh	a5,12(s0)
   15238:	00042223          	sw	zero,4(s0)
   1523c:	01379713          	slli	a4,a5,0x13
   15240:	00075c63          	bgez	a4,15258 <__sflush_r+0x138>
   15244:	fff00793          	li	a5,-1
   15248:	00f51663          	bne	a0,a5,15254 <__sflush_r+0x134>
   1524c:	0004a783          	lw	a5,0(s1)
   15250:	00079463          	bnez	a5,15258 <__sflush_r+0x138>
   15254:	04a42823          	sw	a0,80(s0)
   15258:	03042583          	lw	a1,48(s0)
   1525c:	0124a023          	sw	s2,0(s1)
   15260:	f0058ae3          	beqz	a1,15174 <__sflush_r+0x54>
   15264:	04040793          	addi	a5,s0,64
   15268:	00f58663          	beq	a1,a5,15274 <__sflush_r+0x154>
   1526c:	00048513          	mv	a0,s1
   15270:	660000ef          	jal	ra,158d0 <_free_r>
   15274:	02042823          	sw	zero,48(s0)
   15278:	efdff06f          	j	15174 <__sflush_r+0x54>
   1527c:	00000613          	li	a2,0
   15280:	00100693          	li	a3,1
   15284:	00048513          	mv	a0,s1
   15288:	000700e7          	jalr	a4
   1528c:	fff00793          	li	a5,-1
   15290:	00050613          	mv	a2,a0
   15294:	f2f510e3          	bne	a0,a5,151b4 <__sflush_r+0x94>
   15298:	0004a783          	lw	a5,0(s1)
   1529c:	f0078ce3          	beqz	a5,151b4 <__sflush_r+0x94>
   152a0:	01d00713          	li	a4,29
   152a4:	00e78663          	beq	a5,a4,152b0 <__sflush_r+0x190>
   152a8:	01600713          	li	a4,22
   152ac:	06e79263          	bne	a5,a4,15310 <__sflush_r+0x1f0>
   152b0:	0124a023          	sw	s2,0(s1)
   152b4:	ec1ff06f          	j	15174 <__sflush_r+0x54>
   152b8:	0406e793          	ori	a5,a3,64
   152bc:	00f41623          	sh	a5,12(s0)
   152c0:	fff00513          	li	a0,-1
   152c4:	eb5ff06f          	j	15178 <__sflush_r+0x58>
   152c8:	0105a983          	lw	s3,16(a1)
   152cc:	ea0984e3          	beqz	s3,15174 <__sflush_r+0x54>
   152d0:	0005a903          	lw	s2,0(a1)
   152d4:	00377713          	andi	a4,a4,3
   152d8:	0135a023          	sw	s3,0(a1)
   152dc:	41390933          	sub	s2,s2,s3
   152e0:	00000793          	li	a5,0
   152e4:	00071463          	bnez	a4,152ec <__sflush_r+0x1cc>
   152e8:	0145a783          	lw	a5,20(a1)
   152ec:	00f42423          	sw	a5,8(s0)
   152f0:	e92052e3          	blez	s2,15174 <__sflush_r+0x54>
   152f4:	02442783          	lw	a5,36(s0)
   152f8:	01c42583          	lw	a1,28(s0)
   152fc:	00090693          	mv	a3,s2
   15300:	00098613          	mv	a2,s3
   15304:	00048513          	mv	a0,s1
   15308:	000780e7          	jalr	a5
   1530c:	00a04863          	bgtz	a0,1531c <__sflush_r+0x1fc>
   15310:	00c45783          	lhu	a5,12(s0)
   15314:	0407e793          	ori	a5,a5,64
   15318:	fa5ff06f          	j	152bc <__sflush_r+0x19c>
   1531c:	00a989b3          	add	s3,s3,a0
   15320:	40a90933          	sub	s2,s2,a0
   15324:	fcdff06f          	j	152f0 <__sflush_r+0x1d0>

00015328 <_fflush_r>:
   15328:	fe010113          	addi	sp,sp,-32
   1532c:	00812c23          	sw	s0,24(sp)
   15330:	00112e23          	sw	ra,28(sp)
   15334:	00050413          	mv	s0,a0
   15338:	00050c63          	beqz	a0,15350 <_fflush_r+0x28>
   1533c:	03852783          	lw	a5,56(a0)
   15340:	00079863          	bnez	a5,15350 <_fflush_r+0x28>
   15344:	00b12623          	sw	a1,12(sp)
   15348:	17c000ef          	jal	ra,154c4 <__sinit>
   1534c:	00c12583          	lw	a1,12(sp)
   15350:	00c59783          	lh	a5,12(a1)
   15354:	00078c63          	beqz	a5,1536c <_fflush_r+0x44>
   15358:	00040513          	mv	a0,s0
   1535c:	01812403          	lw	s0,24(sp)
   15360:	01c12083          	lw	ra,28(sp)
   15364:	02010113          	addi	sp,sp,32
   15368:	db9ff06f          	j	15120 <__sflush_r>
   1536c:	01c12083          	lw	ra,28(sp)
   15370:	01812403          	lw	s0,24(sp)
   15374:	00000513          	li	a0,0
   15378:	02010113          	addi	sp,sp,32
   1537c:	00008067          	ret

00015380 <fflush>:
   15380:	00050593          	mv	a1,a0
   15384:	00051a63          	bnez	a0,15398 <fflush+0x18>
