
input:     file format elf32-littleriscv


Disassembly of section .text:

00010074 <sulp>:
   10074:	fe010113          	addi	sp,sp,-32
   10078:	00812c23          	sw	s0,24(sp)
   1007c:	00050713          	mv	a4,a0
   10080:	00058413          	mv	s0,a1
   10084:	00070513          	mv	a0,a4
   10088:	00040593          	mv	a1,s0
   1008c:	00c12623          	sw	a2,12(sp)
   10090:	00112e23          	sw	ra,28(sp)
   10094:	448080ef          	jal	ra,184dc <__ulp>
   10098:	00c12603          	lw	a2,12(sp)
   1009c:	00050813          	mv	a6,a0
   100a0:	00058893          	mv	a7,a1
   100a4:	02060e63          	beqz	a2,100e0 <sulp+0x6c>
   100a8:	01445413          	srli	s0,s0,0x14
   100ac:	7ff47413          	andi	s0,s0,2047
   100b0:	06b00793          	li	a5,107
   100b4:	408787b3          	sub	a5,a5,s0
   100b8:	02f05463          	blez	a5,100e0 <sulp+0x6c>
   100bc:	01479793          	slli	a5,a5,0x14
   100c0:	3ff00737          	lui	a4,0x3ff00
   100c4:	00000813          	li	a6,0
   100c8:	00e78733          	add	a4,a5,a4
   100cc:	00080613          	mv	a2,a6
   100d0:	00070693          	mv	a3,a4
   100d4:	159140ef          	jal	ra,24a2c <__muldf3>
   100d8:	00050813          	mv	a6,a0
   100dc:	00058893          	mv	a7,a1
   100e0:	01c12083          	lw	ra,28(sp)
   100e4:	01812403          	lw	s0,24(sp)
   100e8:	00080513          	mv	a0,a6
   100ec:	00088593          	mv	a1,a7
   100f0:	02010113          	addi	sp,sp,32
   100f4:	00008067          	ret

000100f8 <main>:
   100f8:	00029537          	lui	a0,0x29
   100fc:	fe010113          	addi	sp,sp,-32
   10100:	59050513          	addi	a0,a0,1424 # 29590 <__clzsi2+0x54>
   10104:	00112e23          	sw	ra,28(sp)
   10108:	4f8000ef          	jal	ra,10600 <puts>
   1010c:	00029537          	lui	a0,0x29
   10110:	00c10593          	addi	a1,sp,12
   10114:	5b050513          	addi	a0,a0,1456 # 295b0 <__clzsi2+0x74>
   10118:	4f4000ef          	jal	ra,1060c <scanf>
   1011c:	00c12583          	lw	a1,12(sp)
   10120:	00029537          	lui	a0,0x29
   10124:	5b450513          	addi	a0,a0,1460 # 295b4 <__clzsi2+0x78>
   10128:	3c4000ef          	jal	ra,104ec <printf>
   1012c:	01c12083          	lw	ra,28(sp)
   10130:	00000513          	li	a0,0
   10134:	02010113          	addi	sp,sp,32
   10138:	00008067          	ret

0001013c <_start>:
   1013c:	0001c197          	auipc	gp,0x1c
   10140:	5dc18193          	addi	gp,gp,1500 # 2c718 <__global_pointer$>
   10144:	0001c517          	auipc	a0,0x1c
   10148:	e4850513          	addi	a0,a0,-440 # 2bf8c <_edata>
   1014c:	0001c617          	auipc	a2,0x1c
   10150:	ea460613          	addi	a2,a2,-348 # 2bff0 <_end>
   10154:	40a60633          	sub	a2,a2,a0
   10158:	00000593          	li	a1,0
   1015c:	274000ef          	jal	ra,103d0 <memset>
   10160:	00000517          	auipc	a0,0x0
   10164:	16050513          	addi	a0,a0,352 # 102c0 <__libc_fini_array>
   10168:	114000ef          	jal	ra,1027c <atexit>
   1016c:	1c4000ef          	jal	ra,10330 <__libc_init_array>
   10170:	00012503          	lw	a0,0(sp)
   10174:	00410593          	addi	a1,sp,4
   10178:	00000613          	li	a2,0
   1017c:	f7dff0ef          	jal	ra,100f8 <main>
   10180:	1100006f          	j	10290 <exit>

00010184 <_fini>:
   10184:	00008067          	ret

00010188 <deregister_tm_clones>:
   10188:	0002c537          	lui	a0,0x2c
   1018c:	0002c7b7          	lui	a5,0x2c
   10190:	f1850713          	addi	a4,a0,-232 # 2bf18 <__TMC_END__>
   10194:	f1878793          	addi	a5,a5,-232 # 2bf18 <__TMC_END__>
   10198:	00e78c63          	beq	a5,a4,101b0 <deregister_tm_clones+0x28>
   1019c:	00000337          	lui	t1,0x0
   101a0:	00030313          	mv	t1,t1
   101a4:	00030663          	beqz	t1,101b0 <deregister_tm_clones+0x28>
   101a8:	f1850513          	addi	a0,a0,-232
   101ac:	00030067          	jr	t1
   101b0:	00008067          	ret

000101b4 <register_tm_clones>:
   101b4:	0002c7b7          	lui	a5,0x2c
   101b8:	0002c537          	lui	a0,0x2c
   101bc:	f1878593          	addi	a1,a5,-232 # 2bf18 <__TMC_END__>
   101c0:	f1850793          	addi	a5,a0,-232 # 2bf18 <__TMC_END__>
   101c4:	40f585b3          	sub	a1,a1,a5
   101c8:	4025d593          	srai	a1,a1,0x2
   101cc:	01f5d793          	srli	a5,a1,0x1f
   101d0:	00b785b3          	add	a1,a5,a1
   101d4:	4015d593          	srai	a1,a1,0x1
   101d8:	00058c63          	beqz	a1,101f0 <register_tm_clones+0x3c>
   101dc:	00000337          	lui	t1,0x0
   101e0:	00030313          	mv	t1,t1
   101e4:	00030663          	beqz	t1,101f0 <register_tm_clones+0x3c>
   101e8:	f1850513          	addi	a0,a0,-232
   101ec:	00030067          	jr	t1
   101f0:	00008067          	ret

000101f4 <__do_global_dtors_aux>:
   101f4:	8901c703          	lbu	a4,-1904(gp) # 2bfa8 <completed.5148>
   101f8:	04071663          	bnez	a4,10244 <__do_global_dtors_aux+0x50>
   101fc:	ff010113          	addi	sp,sp,-16
   10200:	00812423          	sw	s0,8(sp)
   10204:	00112623          	sw	ra,12(sp)
   10208:	00078413          	mv	s0,a5
   1020c:	f7dff0ef          	jal	ra,10188 <deregister_tm_clones>
   10210:	000007b7          	lui	a5,0x0
   10214:	00078793          	mv	a5,a5
   10218:	00078a63          	beqz	a5,1022c <__do_global_dtors_aux+0x38>
   1021c:	0002a537          	lui	a0,0x2a
   10220:	3fc50513          	addi	a0,a0,1020 # 2a3fc <__EH_FRAME_BEGIN__>
   10224:	ffff0097          	auipc	ra,0xffff0
   10228:	ddc080e7          	jalr	-548(ra) # 0 <sulp-0x10074>
   1022c:	00100793          	li	a5,1
   10230:	88f18823          	sb	a5,-1904(gp) # 2bfa8 <completed.5148>
   10234:	00c12083          	lw	ra,12(sp)
   10238:	00812403          	lw	s0,8(sp)
   1023c:	01010113          	addi	sp,sp,16
   10240:	00008067          	ret
   10244:	00008067          	ret

00010248 <frame_dummy>:
   10248:	000007b7          	lui	a5,0x0
   1024c:	00078793          	mv	a5,a5
   10250:	02078463          	beqz	a5,10278 <frame_dummy+0x30>
   10254:	0002a537          	lui	a0,0x2a
   10258:	ff010113          	addi	sp,sp,-16
   1025c:	89418593          	addi	a1,gp,-1900 # 2bfac <object.5153>
   10260:	3fc50513          	addi	a0,a0,1020 # 2a3fc <__EH_FRAME_BEGIN__>
   10264:	00112623          	sw	ra,12(sp)
   10268:	ffff0097          	auipc	ra,0xffff0
   1026c:	d98080e7          	jalr	-616(ra) # 0 <sulp-0x10074>
   10270:	00c12083          	lw	ra,12(sp)
   10274:	01010113          	addi	sp,sp,16
   10278:	f3dff06f          	j	101b4 <register_tm_clones>

0001027c <atexit>:
   1027c:	00050593          	mv	a1,a0
   10280:	00000693          	li	a3,0
   10284:	00000613          	li	a2,0
   10288:	00000513          	li	a0,0
   1028c:	2550306f          	j	13ce0 <__register_exitproc>

00010290 <exit>:
   10290:	ff010113          	addi	sp,sp,-16
   10294:	00000593          	li	a1,0
   10298:	00812423          	sw	s0,8(sp)
   1029c:	00112623          	sw	ra,12(sp)
   102a0:	00050413          	mv	s0,a0
   102a4:	2b9030ef          	jal	ra,13d5c <__call_exitprocs>
   102a8:	8641a503          	lw	a0,-1948(gp) # 2bf7c <_global_impure_ptr>
   102ac:	03c52783          	lw	a5,60(a0)
   102b0:	00078463          	beqz	a5,102b8 <exit+0x28>
   102b4:	000780e7          	jalr	a5
   102b8:	00040513          	mv	a0,s0
   102bc:	1d9120ef          	jal	ra,22c94 <_exit>

000102c0 <__libc_fini_array>:
   102c0:	ff010113          	addi	sp,sp,-16
   102c4:	0002b7b7          	lui	a5,0x2b
   102c8:	0002b737          	lui	a4,0x2b
   102cc:	00812423          	sw	s0,8(sp)
   102d0:	56470713          	addi	a4,a4,1380 # 2b564 <__init_array_end>
   102d4:	56878413          	addi	s0,a5,1384 # 2b568 <__fini_array_end>
   102d8:	40e40433          	sub	s0,s0,a4
   102dc:	00912223          	sw	s1,4(sp)
   102e0:	01212023          	sw	s2,0(sp)
   102e4:	00112623          	sw	ra,12(sp)
   102e8:	40245413          	srai	s0,s0,0x2
   102ec:	00000493          	li	s1,0
   102f0:	56878913          	addi	s2,a5,1384
   102f4:	00941e63          	bne	s0,s1,10310 <__libc_fini_array+0x50>
   102f8:	00812403          	lw	s0,8(sp)
   102fc:	00c12083          	lw	ra,12(sp)
   10300:	00412483          	lw	s1,4(sp)
   10304:	00012903          	lw	s2,0(sp)
   10308:	01010113          	addi	sp,sp,16
   1030c:	e79ff06f          	j	10184 <_fini>
   10310:	ffc00593          	li	a1,-4
   10314:	00048513          	mv	a0,s1
   10318:	0c4190ef          	jal	ra,293dc <__mulsi3>
   1031c:	00a90533          	add	a0,s2,a0
   10320:	ffc52783          	lw	a5,-4(a0)
   10324:	00148493          	addi	s1,s1,1
   10328:	000780e7          	jalr	a5
   1032c:	fc9ff06f          	j	102f4 <__libc_fini_array+0x34>

00010330 <__libc_init_array>:
   10330:	ff010113          	addi	sp,sp,-16
   10334:	00812423          	sw	s0,8(sp)
   10338:	00912223          	sw	s1,4(sp)
   1033c:	0002b437          	lui	s0,0x2b
   10340:	0002b4b7          	lui	s1,0x2b
   10344:	56048793          	addi	a5,s1,1376 # 2b560 <__frame_dummy_init_array_entry>
   10348:	56040413          	addi	s0,s0,1376 # 2b560 <__frame_dummy_init_array_entry>
   1034c:	40f40433          	sub	s0,s0,a5
   10350:	01212023          	sw	s2,0(sp)
   10354:	00112623          	sw	ra,12(sp)
   10358:	40245413          	srai	s0,s0,0x2
   1035c:	56048493          	addi	s1,s1,1376
   10360:	00000913          	li	s2,0
   10364:	04891263          	bne	s2,s0,103a8 <__libc_init_array+0x78>
   10368:	0002b4b7          	lui	s1,0x2b
   1036c:	e19ff0ef          	jal	ra,10184 <_fini>
   10370:	0002b437          	lui	s0,0x2b
   10374:	56048793          	addi	a5,s1,1376 # 2b560 <__frame_dummy_init_array_entry>
   10378:	56440413          	addi	s0,s0,1380 # 2b564 <__init_array_end>
   1037c:	40f40433          	sub	s0,s0,a5
   10380:	40245413          	srai	s0,s0,0x2
   10384:	56048493          	addi	s1,s1,1376
   10388:	00000913          	li	s2,0
   1038c:	02891863          	bne	s2,s0,103bc <__libc_init_array+0x8c>
   10390:	00c12083          	lw	ra,12(sp)
   10394:	00812403          	lw	s0,8(sp)
   10398:	00412483          	lw	s1,4(sp)
   1039c:	00012903          	lw	s2,0(sp)
   103a0:	01010113          	addi	sp,sp,16
   103a4:	00008067          	ret
   103a8:	0004a783          	lw	a5,0(s1)
   103ac:	00190913          	addi	s2,s2,1
   103b0:	00448493          	addi	s1,s1,4
   103b4:	000780e7          	jalr	a5
   103b8:	fadff06f          	j	10364 <__libc_init_array+0x34>
   103bc:	0004a783          	lw	a5,0(s1)
   103c0:	00190913          	addi	s2,s2,1
   103c4:	00448493          	addi	s1,s1,4
   103c8:	000780e7          	jalr	a5
   103cc:	fc1ff06f          	j	1038c <__libc_init_array+0x5c>

000103d0 <memset>:
   103d0:	00f00813          	li	a6,15
   103d4:	00050713          	mv	a4,a0
   103d8:	02c87e63          	bleu	a2,a6,10414 <memset+0x44>
   103dc:	00f77793          	andi	a5,a4,15
   103e0:	0a079063          	bnez	a5,10480 <memset+0xb0>
   103e4:	08059263          	bnez	a1,10468 <memset+0x98>
   103e8:	ff067693          	andi	a3,a2,-16
   103ec:	00f67613          	andi	a2,a2,15
   103f0:	00e686b3          	add	a3,a3,a4
   103f4:	00b72023          	sw	a1,0(a4)
   103f8:	00b72223          	sw	a1,4(a4)
   103fc:	00b72423          	sw	a1,8(a4)
   10400:	00b72623          	sw	a1,12(a4)
   10404:	01070713          	addi	a4,a4,16
   10408:	fed766e3          	bltu	a4,a3,103f4 <memset+0x24>
   1040c:	00061463          	bnez	a2,10414 <memset+0x44>
   10410:	00008067          	ret
   10414:	40c806b3          	sub	a3,a6,a2
   10418:	00269693          	slli	a3,a3,0x2
   1041c:	00000297          	auipc	t0,0x0
   10420:	005686b3          	add	a3,a3,t0
   10424:	00c68067          	jr	12(a3)
   10428:	00b70723          	sb	a1,14(a4)
   1042c:	00b706a3          	sb	a1,13(a4)
   10430:	00b70623          	sb	a1,12(a4)
   10434:	00b705a3          	sb	a1,11(a4)
   10438:	00b70523          	sb	a1,10(a4)
   1043c:	00b704a3          	sb	a1,9(a4)
   10440:	00b70423          	sb	a1,8(a4)
   10444:	00b703a3          	sb	a1,7(a4)
   10448:	00b70323          	sb	a1,6(a4)
   1044c:	00b702a3          	sb	a1,5(a4)
   10450:	00b70223          	sb	a1,4(a4)
   10454:	00b701a3          	sb	a1,3(a4)
   10458:	00b70123          	sb	a1,2(a4)
   1045c:	00b700a3          	sb	a1,1(a4)
   10460:	00b70023          	sb	a1,0(a4)
   10464:	00008067          	ret
   10468:	0ff5f593          	andi	a1,a1,255
   1046c:	00859693          	slli	a3,a1,0x8
   10470:	00d5e5b3          	or	a1,a1,a3
   10474:	01059693          	slli	a3,a1,0x10
   10478:	00d5e5b3          	or	a1,a1,a3
   1047c:	f6dff06f          	j	103e8 <memset+0x18>
   10480:	00279693          	slli	a3,a5,0x2
   10484:	00000297          	auipc	t0,0x0
   10488:	005686b3          	add	a3,a3,t0
   1048c:	00008293          	mv	t0,ra
   10490:	fa0680e7          	jalr	-96(a3)
   10494:	00028093          	mv	ra,t0
   10498:	ff078793          	addi	a5,a5,-16
   1049c:	40f70733          	sub	a4,a4,a5
   104a0:	00f60633          	add	a2,a2,a5
   104a4:	f6c878e3          	bleu	a2,a6,10414 <memset+0x44>
   104a8:	f3dff06f          	j	103e4 <memset+0x14>

000104ac <_printf_r>:
   104ac:	fc010113          	addi	sp,sp,-64
   104b0:	02c12423          	sw	a2,40(sp)
   104b4:	02d12623          	sw	a3,44(sp)
   104b8:	02e12823          	sw	a4,48(sp)
   104bc:	02f12a23          	sw	a5,52(sp)
   104c0:	03012c23          	sw	a6,56(sp)
   104c4:	03112e23          	sw	a7,60(sp)
   104c8:	00058613          	mv	a2,a1
   104cc:	00852583          	lw	a1,8(a0)
   104d0:	02810693          	addi	a3,sp,40
   104d4:	00112e23          	sw	ra,28(sp)
   104d8:	00d12623          	sw	a3,12(sp)
   104dc:	1d8000ef          	jal	ra,106b4 <_vfprintf_r>
   104e0:	01c12083          	lw	ra,28(sp)
   104e4:	04010113          	addi	sp,sp,64
   104e8:	00008067          	ret

000104ec <printf>:
   104ec:	fc010113          	addi	sp,sp,-64
   104f0:	02f12a23          	sw	a5,52(sp)
   104f4:	8681a783          	lw	a5,-1944(gp) # 2bf80 <_impure_ptr>
   104f8:	02c12423          	sw	a2,40(sp)
   104fc:	02d12623          	sw	a3,44(sp)
   10500:	02b12223          	sw	a1,36(sp)
   10504:	02e12823          	sw	a4,48(sp)
   10508:	03012c23          	sw	a6,56(sp)
   1050c:	03112e23          	sw	a7,60(sp)
   10510:	0087a583          	lw	a1,8(a5)
   10514:	02410693          	addi	a3,sp,36
   10518:	00050613          	mv	a2,a0
   1051c:	00078513          	mv	a0,a5
   10520:	00112e23          	sw	ra,28(sp)
   10524:	00d12623          	sw	a3,12(sp)
   10528:	18c000ef          	jal	ra,106b4 <_vfprintf_r>
   1052c:	01c12083          	lw	ra,28(sp)
   10530:	04010113          	addi	sp,sp,64
   10534:	00008067          	ret

00010538 <_puts_r>:
   10538:	fc010113          	addi	sp,sp,-64
   1053c:	02812c23          	sw	s0,56(sp)
   10540:	00050413          	mv	s0,a0
   10544:	00058513          	mv	a0,a1
   10548:	00b12623          	sw	a1,12(sp)
   1054c:	02112e23          	sw	ra,60(sp)
   10550:	148000ef          	jal	ra,10698 <strlen>
   10554:	000297b7          	lui	a5,0x29
   10558:	5c878793          	addi	a5,a5,1480 # 295c8 <__clzsi2+0x8c>
   1055c:	02f12423          	sw	a5,40(sp)
   10560:	00100793          	li	a5,1
   10564:	02f12623          	sw	a5,44(sp)
   10568:	02010793          	addi	a5,sp,32
   1056c:	00c12583          	lw	a1,12(sp)
   10570:	00f12a23          	sw	a5,20(sp)
   10574:	00200793          	li	a5,2
   10578:	00f12c23          	sw	a5,24(sp)
   1057c:	03842783          	lw	a5,56(s0)
   10580:	02a12223          	sw	a0,36(sp)
   10584:	00150513          	addi	a0,a0,1
   10588:	02b12023          	sw	a1,32(sp)
   1058c:	00a12e23          	sw	a0,28(sp)
   10590:	00842583          	lw	a1,8(s0)
   10594:	00079a63          	bnez	a5,105a8 <_puts_r+0x70>
   10598:	00040513          	mv	a0,s0
   1059c:	00b12623          	sw	a1,12(sp)
   105a0:	46d030ef          	jal	ra,1420c <__sinit>
   105a4:	00c12583          	lw	a1,12(sp)
   105a8:	00c59783          	lh	a5,12(a1)
   105ac:	01279713          	slli	a4,a5,0x12
   105b0:	02074263          	bltz	a4,105d4 <_puts_r+0x9c>
   105b4:	000026b7          	lui	a3,0x2
   105b8:	0645a703          	lw	a4,100(a1)
   105bc:	00d7e7b3          	or	a5,a5,a3
   105c0:	00f59623          	sh	a5,12(a1)
   105c4:	ffffe7b7          	lui	a5,0xffffe
   105c8:	fff78793          	addi	a5,a5,-1 # ffffdfff <__global_pointer$+0xfffd18e7>
   105cc:	00f777b3          	and	a5,a4,a5
   105d0:	06f5a223          	sw	a5,100(a1)
   105d4:	01410613          	addi	a2,sp,20
   105d8:	00040513          	mv	a0,s0
   105dc:	298040ef          	jal	ra,14874 <__sfvwrite_r>
   105e0:	fff00793          	li	a5,-1
   105e4:	00051463          	bnez	a0,105ec <_puts_r+0xb4>
   105e8:	00a00793          	li	a5,10
   105ec:	03c12083          	lw	ra,60(sp)
   105f0:	03812403          	lw	s0,56(sp)
   105f4:	00078513          	mv	a0,a5
   105f8:	04010113          	addi	sp,sp,64
   105fc:	00008067          	ret

00010600 <puts>:
   10600:	00050593          	mv	a1,a0
   10604:	8681a503          	lw	a0,-1944(gp) # 2bf80 <_impure_ptr>
   10608:	f31ff06f          	j	10538 <_puts_r>

0001060c <scanf>:
   1060c:	fc010113          	addi	sp,sp,-64
   10610:	02f12a23          	sw	a5,52(sp)
   10614:	8681a783          	lw	a5,-1944(gp) # 2bf80 <_impure_ptr>
   10618:	02c12423          	sw	a2,40(sp)
   1061c:	02d12623          	sw	a3,44(sp)
   10620:	02b12223          	sw	a1,36(sp)
   10624:	02e12823          	sw	a4,48(sp)
   10628:	03012c23          	sw	a6,56(sp)
   1062c:	03112e23          	sw	a7,60(sp)
   10630:	0047a583          	lw	a1,4(a5)
   10634:	02410693          	addi	a3,sp,36
   10638:	00050613          	mv	a2,a0
   1063c:	00078513          	mv	a0,a5
   10640:	00112e23          	sw	ra,28(sp)
   10644:	00d12623          	sw	a3,12(sp)
   10648:	518030ef          	jal	ra,13b60 <_vfscanf_r>
   1064c:	01c12083          	lw	ra,28(sp)
   10650:	04010113          	addi	sp,sp,64
   10654:	00008067          	ret

00010658 <_scanf_r>:
   10658:	fc010113          	addi	sp,sp,-64
   1065c:	02c12423          	sw	a2,40(sp)
   10660:	02d12623          	sw	a3,44(sp)
   10664:	02e12823          	sw	a4,48(sp)
   10668:	02f12a23          	sw	a5,52(sp)
   1066c:	03012c23          	sw	a6,56(sp)
   10670:	03112e23          	sw	a7,60(sp)
   10674:	00058613          	mv	a2,a1
   10678:	00452583          	lw	a1,4(a0)
   1067c:	02810693          	addi	a3,sp,40
   10680:	00112e23          	sw	ra,28(sp)
   10684:	00d12623          	sw	a3,12(sp)
   10688:	4d8030ef          	jal	ra,13b60 <_vfscanf_r>
   1068c:	01c12083          	lw	ra,28(sp)
   10690:	04010113          	addi	sp,sp,64
   10694:	00008067          	ret

00010698 <strlen>:
   10698:	00050793          	mv	a5,a0
   1069c:	00178793          	addi	a5,a5,1
   106a0:	fff7c703          	lbu	a4,-1(a5)
   106a4:	fe071ce3          	bnez	a4,1069c <strlen+0x4>
   106a8:	40a78533          	sub	a0,a5,a0
   106ac:	fff50513          	addi	a0,a0,-1
   106b0:	00008067          	ret

000106b4 <_vfprintf_r>:
   106b4:	e1010113          	addi	sp,sp,-496
   106b8:	1e112623          	sw	ra,492(sp)
   106bc:	1e912223          	sw	s1,484(sp)
   106c0:	1f212023          	sw	s2,480(sp)
   106c4:	1d312e23          	sw	s3,476(sp)
   106c8:	1d812423          	sw	s8,456(sp)
   106cc:	00058913          	mv	s2,a1
   106d0:	00060493          	mv	s1,a2
   106d4:	00068c13          	mv	s8,a3
   106d8:	1e812423          	sw	s0,488(sp)
   106dc:	1d412c23          	sw	s4,472(sp)
   106e0:	1d512a23          	sw	s5,468(sp)
   106e4:	1d612823          	sw	s6,464(sp)
   106e8:	1d712623          	sw	s7,460(sp)
   106ec:	1d912223          	sw	s9,452(sp)
   106f0:	1da12023          	sw	s10,448(sp)
   106f4:	1bb12e23          	sw	s11,444(sp)
   106f8:	00050993          	mv	s3,a0
   106fc:	7f0060ef          	jal	ra,16eec <_localeconv_r>
   10700:	00052783          	lw	a5,0(a0)
   10704:	00078513          	mv	a0,a5
   10708:	02f12c23          	sw	a5,56(sp)
   1070c:	f8dff0ef          	jal	ra,10698 <strlen>
   10710:	02a12223          	sw	a0,36(sp)
   10714:	0e012823          	sw	zero,240(sp)
   10718:	0e012a23          	sw	zero,244(sp)
   1071c:	0e012c23          	sw	zero,248(sp)
   10720:	0e012e23          	sw	zero,252(sp)
   10724:	00098a63          	beqz	s3,10738 <_vfprintf_r+0x84>
   10728:	0389a783          	lw	a5,56(s3)
   1072c:	00079663          	bnez	a5,10738 <_vfprintf_r+0x84>
   10730:	00098513          	mv	a0,s3
   10734:	2d9030ef          	jal	ra,1420c <__sinit>
   10738:	00c91783          	lh	a5,12(s2)
   1073c:	01279713          	slli	a4,a5,0x12
   10740:	02074263          	bltz	a4,10764 <_vfprintf_r+0xb0>
   10744:	000026b7          	lui	a3,0x2
   10748:	06492703          	lw	a4,100(s2)
   1074c:	00d7e7b3          	or	a5,a5,a3
   10750:	00f91623          	sh	a5,12(s2)
   10754:	ffffe7b7          	lui	a5,0xffffe
   10758:	fff78793          	addi	a5,a5,-1 # ffffdfff <__global_pointer$+0xfffd18e7>
   1075c:	00f777b3          	and	a5,a4,a5
   10760:	06f92223          	sw	a5,100(s2)
   10764:	00c95783          	lhu	a5,12(s2)
   10768:	0087f793          	andi	a5,a5,8
   1076c:	06078e63          	beqz	a5,107e8 <_vfprintf_r+0x134>
   10770:	01092783          	lw	a5,16(s2)
   10774:	06078a63          	beqz	a5,107e8 <_vfprintf_r+0x134>
   10778:	00c95783          	lhu	a5,12(s2)
   1077c:	00a00713          	li	a4,10
   10780:	01a7f793          	andi	a5,a5,26
   10784:	08e79063          	bne	a5,a4,10804 <_vfprintf_r+0x150>
   10788:	00e91783          	lh	a5,14(s2)
   1078c:	0607cc63          	bltz	a5,10804 <_vfprintf_r+0x150>
   10790:	000c0693          	mv	a3,s8
   10794:	00048613          	mv	a2,s1
   10798:	00090593          	mv	a1,s2
   1079c:	00098513          	mv	a0,s3
   107a0:	745010ef          	jal	ra,126e4 <__sbprintf>
   107a4:	02a12423          	sw	a0,40(sp)
   107a8:	1ec12083          	lw	ra,492(sp)
   107ac:	1e812403          	lw	s0,488(sp)
   107b0:	02812503          	lw	a0,40(sp)
   107b4:	1e412483          	lw	s1,484(sp)
   107b8:	1e012903          	lw	s2,480(sp)
   107bc:	1dc12983          	lw	s3,476(sp)
   107c0:	1d812a03          	lw	s4,472(sp)
   107c4:	1d412a83          	lw	s5,468(sp)
   107c8:	1d012b03          	lw	s6,464(sp)
   107cc:	1cc12b83          	lw	s7,460(sp)
   107d0:	1c812c03          	lw	s8,456(sp)
   107d4:	1c412c83          	lw	s9,452(sp)
   107d8:	1c012d03          	lw	s10,448(sp)
   107dc:	1bc12d83          	lw	s11,444(sp)
   107e0:	1f010113          	addi	sp,sp,496
   107e4:	00008067          	ret
   107e8:	00090593          	mv	a1,s2
   107ec:	00098513          	mv	a0,s3
   107f0:	3bc030ef          	jal	ra,13bac <__swsetup_r>
   107f4:	f80502e3          	beqz	a0,10778 <_vfprintf_r+0xc4>
   107f8:	fff00793          	li	a5,-1
   107fc:	02f12423          	sw	a5,40(sp)
   10800:	fa9ff06f          	j	107a8 <_vfprintf_r+0xf4>
   10804:	000297b7          	lui	a5,0x29
   10808:	5cc78793          	addi	a5,a5,1484 # 295cc <__clzsi2+0x90>
   1080c:	06f12023          	sw	a5,96(sp)
   10810:	000297b7          	lui	a5,0x29
   10814:	10c10893          	addi	a7,sp,268
   10818:	74878793          	addi	a5,a5,1864 # 29748 <zeroes.4377>
   1081c:	0f112223          	sw	a7,228(sp)
   10820:	0e012623          	sw	zero,236(sp)
   10824:	0e012423          	sw	zero,232(sp)
   10828:	00000a13          	li	s4,0
   1082c:	00088d13          	mv	s10,a7
   10830:	04012223          	sw	zero,68(sp)
   10834:	04012023          	sw	zero,64(sp)
   10838:	00012a23          	sw	zero,20(sp)
   1083c:	02012a23          	sw	zero,52(sp)
   10840:	02012e23          	sw	zero,60(sp)
   10844:	02012423          	sw	zero,40(sp)
   10848:	00f12c23          	sw	a5,24(sp)
   1084c:	00048413          	mv	s0,s1
   10850:	02500713          	li	a4,37
   10854:	00044783          	lbu	a5,0(s0)
   10858:	00078463          	beqz	a5,10860 <_vfprintf_r+0x1ac>
   1085c:	0ce79263          	bne	a5,a4,10920 <_vfprintf_r+0x26c>
   10860:	40940ab3          	sub	s5,s0,s1
   10864:	040a8a63          	beqz	s5,108b8 <_vfprintf_r+0x204>
   10868:	0ec12783          	lw	a5,236(sp)
   1086c:	009d2023          	sw	s1,0(s10)
   10870:	015d2223          	sw	s5,4(s10)
   10874:	015787b3          	add	a5,a5,s5
   10878:	0ef12623          	sw	a5,236(sp)
   1087c:	0e812783          	lw	a5,232(sp)
   10880:	00700713          	li	a4,7
   10884:	008d0d13          	addi	s10,s10,8
   10888:	00178793          	addi	a5,a5,1
   1088c:	0ef12423          	sw	a5,232(sp)
   10890:	00f75e63          	ble	a5,a4,108ac <_vfprintf_r+0x1f8>
   10894:	0e410613          	addi	a2,sp,228
   10898:	00090593          	mv	a1,s2
   1089c:	00098513          	mv	a0,s3
   108a0:	1ec0d0ef          	jal	ra,1da8c <__sprint_r>
   108a4:	78051063          	bnez	a0,11024 <_vfprintf_r+0x970>
   108a8:	10c10d13          	addi	s10,sp,268
   108ac:	02812783          	lw	a5,40(sp)
   108b0:	015787b3          	add	a5,a5,s5
   108b4:	02f12423          	sw	a5,40(sp)
   108b8:	00044783          	lbu	a5,0(s0)
   108bc:	00079463          	bnez	a5,108c4 <_vfprintf_r+0x210>
   108c0:	5f10106f          	j	126b0 <_vfprintf_r+0x1ffc>
   108c4:	00140793          	addi	a5,s0,1
   108c8:	02f12023          	sw	a5,32(sp)
   108cc:	0c0103a3          	sb	zero,199(sp)
   108d0:	fff00b13          	li	s6,-1
   108d4:	02012623          	sw	zero,44(sp)
   108d8:	00000413          	li	s0,0
   108dc:	00900a93          	li	s5,9
   108e0:	05a00b93          	li	s7,90
   108e4:	02012783          	lw	a5,32(sp)
   108e8:	0007c783          	lbu	a5,0(a5)
   108ec:	00f12623          	sw	a5,12(sp)
   108f0:	02012783          	lw	a5,32(sp)
   108f4:	00178793          	addi	a5,a5,1
   108f8:	02f12023          	sw	a5,32(sp)
   108fc:	00c12783          	lw	a5,12(sp)
   10900:	fe078793          	addi	a5,a5,-32
   10904:	00fbf463          	bleu	a5,s7,1090c <_vfprintf_r+0x258>
   10908:	2ac0106f          	j	11bb4 <_vfprintf_r+0x1500>
   1090c:	06012703          	lw	a4,96(sp)
   10910:	00279793          	slli	a5,a5,0x2
   10914:	00e787b3          	add	a5,a5,a4
   10918:	0007a783          	lw	a5,0(a5)
   1091c:	00078067          	jr	a5
   10920:	00140413          	addi	s0,s0,1
   10924:	f31ff06f          	j	10854 <_vfprintf_r+0x1a0>
   10928:	000297b7          	lui	a5,0x29
   1092c:	7b478793          	addi	a5,a5,1972 # 297b4 <zeroes.4377+0x6c>
   10930:	04f12223          	sw	a5,68(sp)
   10934:	02047793          	andi	a5,s0,32
   10938:	00079463          	bnez	a5,10940 <_vfprintf_r+0x28c>
   1093c:	0ac0106f          	j	119e8 <_vfprintf_r+0x1334>
   10940:	007c0c13          	addi	s8,s8,7
   10944:	ff8c7c13          	andi	s8,s8,-8
   10948:	008c0793          	addi	a5,s8,8
   1094c:	000c2c83          	lw	s9,0(s8)
   10950:	004c2c03          	lw	s8,4(s8)
   10954:	00f12e23          	sw	a5,28(sp)
   10958:	00147793          	andi	a5,s0,1
   1095c:	02078063          	beqz	a5,1097c <_vfprintf_r+0x2c8>
   10960:	018ce7b3          	or	a5,s9,s8
   10964:	00078c63          	beqz	a5,1097c <_vfprintf_r+0x2c8>
   10968:	03000793          	li	a5,48
   1096c:	0cf10423          	sb	a5,200(sp)
   10970:	00c14783          	lbu	a5,12(sp)
   10974:	00246413          	ori	s0,s0,2
   10978:	0cf104a3          	sb	a5,201(sp)
   1097c:	bff47413          	andi	s0,s0,-1025
   10980:	00200793          	li	a5,2
   10984:	7010006f          	j	11884 <_vfprintf_r+0x11d0>
   10988:	00098513          	mv	a0,s3
   1098c:	560060ef          	jal	ra,16eec <_localeconv_r>
   10990:	00452783          	lw	a5,4(a0)
   10994:	00078513          	mv	a0,a5
   10998:	02f12e23          	sw	a5,60(sp)
   1099c:	cfdff0ef          	jal	ra,10698 <strlen>
   109a0:	02a12a23          	sw	a0,52(sp)
   109a4:	00098513          	mv	a0,s3
   109a8:	544060ef          	jal	ra,16eec <_localeconv_r>
   109ac:	00852783          	lw	a5,8(a0)
   109b0:	00f12a23          	sw	a5,20(sp)
   109b4:	03412783          	lw	a5,52(sp)
   109b8:	f20784e3          	beqz	a5,108e0 <_vfprintf_r+0x22c>
   109bc:	01412783          	lw	a5,20(sp)
   109c0:	f20780e3          	beqz	a5,108e0 <_vfprintf_r+0x22c>
   109c4:	0007c783          	lbu	a5,0(a5)
   109c8:	f0078ce3          	beqz	a5,108e0 <_vfprintf_r+0x22c>
   109cc:	40046413          	ori	s0,s0,1024
   109d0:	f11ff06f          	j	108e0 <_vfprintf_r+0x22c>
   109d4:	0c714783          	lbu	a5,199(sp)
   109d8:	f00794e3          	bnez	a5,108e0 <_vfprintf_r+0x22c>
   109dc:	02000793          	li	a5,32
   109e0:	0cf103a3          	sb	a5,199(sp)
   109e4:	efdff06f          	j	108e0 <_vfprintf_r+0x22c>
   109e8:	00146413          	ori	s0,s0,1
   109ec:	ef5ff06f          	j	108e0 <_vfprintf_r+0x22c>
   109f0:	000c2783          	lw	a5,0(s8)
   109f4:	004c0c13          	addi	s8,s8,4
   109f8:	02f12623          	sw	a5,44(sp)
   109fc:	ee07d2e3          	bgez	a5,108e0 <_vfprintf_r+0x22c>
   10a00:	40f007b3          	neg	a5,a5
   10a04:	02f12623          	sw	a5,44(sp)
   10a08:	00446413          	ori	s0,s0,4
   10a0c:	ed5ff06f          	j	108e0 <_vfprintf_r+0x22c>
   10a10:	02b00793          	li	a5,43
   10a14:	fcdff06f          	j	109e0 <_vfprintf_r+0x32c>
   10a18:	02012783          	lw	a5,32(sp)
   10a1c:	02a00713          	li	a4,42
   10a20:	00178c93          	addi	s9,a5,1
   10a24:	0007c783          	lbu	a5,0(a5)
   10a28:	00f12623          	sw	a5,12(sp)
   10a2c:	04e79863          	bne	a5,a4,10a7c <_vfprintf_r+0x3c8>
   10a30:	000c2b03          	lw	s6,0(s8)
   10a34:	004c0793          	addi	a5,s8,4
   10a38:	000b5463          	bgez	s6,10a40 <_vfprintf_r+0x38c>
   10a3c:	fff00b13          	li	s6,-1
   10a40:	00078c13          	mv	s8,a5
   10a44:	03912023          	sw	s9,32(sp)
   10a48:	e99ff06f          	j	108e0 <_vfprintf_r+0x22c>
   10a4c:	000b0513          	mv	a0,s6
   10a50:	00a00593          	li	a1,10
   10a54:	189180ef          	jal	ra,293dc <__mulsi3>
   10a58:	001c8c93          	addi	s9,s9,1
   10a5c:	fffcc783          	lbu	a5,-1(s9)
   10a60:	01b50b33          	add	s6,a0,s11
   10a64:	00f12623          	sw	a5,12(sp)
   10a68:	00c12783          	lw	a5,12(sp)
   10a6c:	fd078d93          	addi	s11,a5,-48
   10a70:	fdbafee3          	bleu	s11,s5,10a4c <_vfprintf_r+0x398>
   10a74:	03912023          	sw	s9,32(sp)
   10a78:	e85ff06f          	j	108fc <_vfprintf_r+0x248>
   10a7c:	00000b13          	li	s6,0
   10a80:	fe9ff06f          	j	10a68 <_vfprintf_r+0x3b4>
   10a84:	08046413          	ori	s0,s0,128
   10a88:	e59ff06f          	j	108e0 <_vfprintf_r+0x22c>
   10a8c:	02012c83          	lw	s9,32(sp)
   10a90:	02012623          	sw	zero,44(sp)
   10a94:	02c12503          	lw	a0,44(sp)
   10a98:	00a00593          	li	a1,10
   10a9c:	001c8c93          	addi	s9,s9,1
   10aa0:	13d180ef          	jal	ra,293dc <__mulsi3>
   10aa4:	00c12783          	lw	a5,12(sp)
   10aa8:	fd078793          	addi	a5,a5,-48
   10aac:	00a787b3          	add	a5,a5,a0
   10ab0:	02f12623          	sw	a5,44(sp)
   10ab4:	fffcc783          	lbu	a5,-1(s9)
   10ab8:	00f12623          	sw	a5,12(sp)
   10abc:	fd078793          	addi	a5,a5,-48
   10ac0:	fcfafae3          	bleu	a5,s5,10a94 <_vfprintf_r+0x3e0>
   10ac4:	fb1ff06f          	j	10a74 <_vfprintf_r+0x3c0>
   10ac8:	00846413          	ori	s0,s0,8
   10acc:	e15ff06f          	j	108e0 <_vfprintf_r+0x22c>
   10ad0:	02012783          	lw	a5,32(sp)
   10ad4:	0007c703          	lbu	a4,0(a5)
   10ad8:	06800793          	li	a5,104
   10adc:	00f71c63          	bne	a4,a5,10af4 <_vfprintf_r+0x440>
   10ae0:	02012783          	lw	a5,32(sp)
   10ae4:	20046413          	ori	s0,s0,512
   10ae8:	00178793          	addi	a5,a5,1
   10aec:	02f12023          	sw	a5,32(sp)
   10af0:	df1ff06f          	j	108e0 <_vfprintf_r+0x22c>
   10af4:	04046413          	ori	s0,s0,64
   10af8:	de9ff06f          	j	108e0 <_vfprintf_r+0x22c>
   10afc:	02012783          	lw	a5,32(sp)
   10b00:	0007c703          	lbu	a4,0(a5)
   10b04:	06c00793          	li	a5,108
   10b08:	00f71c63          	bne	a4,a5,10b20 <_vfprintf_r+0x46c>
   10b0c:	02012783          	lw	a5,32(sp)
   10b10:	00178793          	addi	a5,a5,1
   10b14:	02f12023          	sw	a5,32(sp)
   10b18:	02046413          	ori	s0,s0,32
   10b1c:	dc5ff06f          	j	108e0 <_vfprintf_r+0x22c>
   10b20:	01046413          	ori	s0,s0,16
   10b24:	dbdff06f          	j	108e0 <_vfprintf_r+0x22c>
   10b28:	004c0793          	addi	a5,s8,4
   10b2c:	00f12e23          	sw	a5,28(sp)
   10b30:	000c2783          	lw	a5,0(s8)
   10b34:	0c0103a3          	sb	zero,199(sp)
   10b38:	14f10623          	sb	a5,332(sp)
   10b3c:	00012823          	sw	zero,16(sp)
   10b40:	00100b13          	li	s6,1
   10b44:	00000a93          	li	s5,0
   10b48:	00000c13          	li	s8,0
   10b4c:	00000b93          	li	s7,0
   10b50:	00000c93          	li	s9,0
   10b54:	14c10493          	addi	s1,sp,332
   10b58:	03512823          	sw	s5,48(sp)
   10b5c:	016ad463          	ble	s6,s5,10b64 <_vfprintf_r+0x4b0>
   10b60:	03612823          	sw	s6,48(sp)
   10b64:	0c714703          	lbu	a4,199(sp)
   10b68:	00070863          	beqz	a4,10b78 <_vfprintf_r+0x4c4>
   10b6c:	03012783          	lw	a5,48(sp)
   10b70:	00178793          	addi	a5,a5,1
   10b74:	02f12823          	sw	a5,48(sp)
   10b78:	00247d93          	andi	s11,s0,2
   10b7c:	000d8863          	beqz	s11,10b8c <_vfprintf_r+0x4d8>
   10b80:	03012783          	lw	a5,48(sp)
   10b84:	00278793          	addi	a5,a5,2
   10b88:	02f12823          	sw	a5,48(sp)
   10b8c:	08447793          	andi	a5,s0,132
   10b90:	04f12423          	sw	a5,72(sp)
   10b94:	06079c63          	bnez	a5,10c0c <_vfprintf_r+0x558>
   10b98:	02c12783          	lw	a5,44(sp)
   10b9c:	03012703          	lw	a4,48(sp)
   10ba0:	40e78733          	sub	a4,a5,a4
   10ba4:	06e05463          	blez	a4,10c0c <_vfprintf_r+0x558>
   10ba8:	00029e37          	lui	t3,0x29
   10bac:	01000e93          	li	t4,16
   10bb0:	738e0e13          	addi	t3,t3,1848 # 29738 <blanks.4376>
   10bb4:	00700f13          	li	t5,7
   10bb8:	0e812683          	lw	a3,232(sp)
   10bbc:	01cd2023          	sw	t3,0(s10)
   10bc0:	0ec12603          	lw	a2,236(sp)
   10bc4:	00168693          	addi	a3,a3,1 # 2001 <sulp-0xe073>
   10bc8:	008d0593          	addi	a1,s10,8
   10bcc:	00eed463          	ble	a4,t4,10bd4 <_vfprintf_r+0x520>
   10bd0:	0000106f          	j	11bd0 <_vfprintf_r+0x151c>
   10bd4:	00ed2223          	sw	a4,4(s10)
   10bd8:	00c70733          	add	a4,a4,a2
   10bdc:	0ee12623          	sw	a4,236(sp)
   10be0:	0ed12423          	sw	a3,232(sp)
   10be4:	00700713          	li	a4,7
   10be8:	00058d13          	mv	s10,a1
   10bec:	02d75063          	ble	a3,a4,10c0c <_vfprintf_r+0x558>
   10bf0:	0e410613          	addi	a2,sp,228
   10bf4:	00090593          	mv	a1,s2
   10bf8:	00098513          	mv	a0,s3
   10bfc:	6910c0ef          	jal	ra,1da8c <__sprint_r>
   10c00:	00050463          	beqz	a0,10c08 <_vfprintf_r+0x554>
   10c04:	2490106f          	j	1264c <_vfprintf_r+0x1f98>
   10c08:	10c10d13          	addi	s10,sp,268
   10c0c:	0c714703          	lbu	a4,199(sp)
   10c10:	04070a63          	beqz	a4,10c64 <_vfprintf_r+0x5b0>
   10c14:	0c710713          	addi	a4,sp,199
   10c18:	00ed2023          	sw	a4,0(s10)
   10c1c:	00100713          	li	a4,1
   10c20:	00ed2223          	sw	a4,4(s10)
   10c24:	0ec12703          	lw	a4,236(sp)
   10c28:	00700693          	li	a3,7
   10c2c:	008d0d13          	addi	s10,s10,8
   10c30:	00170713          	addi	a4,a4,1
   10c34:	0ee12623          	sw	a4,236(sp)
   10c38:	0e812703          	lw	a4,232(sp)
   10c3c:	00170713          	addi	a4,a4,1
   10c40:	0ee12423          	sw	a4,232(sp)
   10c44:	02e6d063          	ble	a4,a3,10c64 <_vfprintf_r+0x5b0>
   10c48:	0e410613          	addi	a2,sp,228
   10c4c:	00090593          	mv	a1,s2
   10c50:	00098513          	mv	a0,s3
   10c54:	6390c0ef          	jal	ra,1da8c <__sprint_r>
   10c58:	00050463          	beqz	a0,10c60 <_vfprintf_r+0x5ac>
   10c5c:	1f10106f          	j	1264c <_vfprintf_r+0x1f98>
   10c60:	10c10d13          	addi	s10,sp,268
   10c64:	040d8a63          	beqz	s11,10cb8 <_vfprintf_r+0x604>
   10c68:	0c810713          	addi	a4,sp,200
   10c6c:	00ed2023          	sw	a4,0(s10)
   10c70:	00200713          	li	a4,2
   10c74:	00ed2223          	sw	a4,4(s10)
   10c78:	0ec12703          	lw	a4,236(sp)
   10c7c:	00700693          	li	a3,7
   10c80:	008d0d13          	addi	s10,s10,8
   10c84:	00270713          	addi	a4,a4,2
   10c88:	0ee12623          	sw	a4,236(sp)
   10c8c:	0e812703          	lw	a4,232(sp)
   10c90:	00170713          	addi	a4,a4,1
   10c94:	0ee12423          	sw	a4,232(sp)
   10c98:	02e6d063          	ble	a4,a3,10cb8 <_vfprintf_r+0x604>
   10c9c:	0e410613          	addi	a2,sp,228
   10ca0:	00090593          	mv	a1,s2
   10ca4:	00098513          	mv	a0,s3
   10ca8:	5e50c0ef          	jal	ra,1da8c <__sprint_r>
   10cac:	00050463          	beqz	a0,10cb4 <_vfprintf_r+0x600>
   10cb0:	19d0106f          	j	1264c <_vfprintf_r+0x1f98>
   10cb4:	10c10d13          	addi	s10,sp,268
   10cb8:	04812783          	lw	a5,72(sp)
   10cbc:	08000713          	li	a4,128
   10cc0:	06e79863          	bne	a5,a4,10d30 <_vfprintf_r+0x67c>
   10cc4:	02c12783          	lw	a5,44(sp)
   10cc8:	03012703          	lw	a4,48(sp)
   10ccc:	40e78db3          	sub	s11,a5,a4
   10cd0:	07b05063          	blez	s11,10d30 <_vfprintf_r+0x67c>
   10cd4:	01000793          	li	a5,16
   10cd8:	00700e13          	li	t3,7
   10cdc:	0e812703          	lw	a4,232(sp)
   10ce0:	0ec12683          	lw	a3,236(sp)
   10ce4:	008d0613          	addi	a2,s10,8
   10ce8:	00170713          	addi	a4,a4,1
   10cec:	73b7cee3          	blt	a5,s11,11c28 <_vfprintf_r+0x1574>
   10cf0:	01812783          	lw	a5,24(sp)
   10cf4:	01bd2223          	sw	s11,4(s10)
   10cf8:	00dd8db3          	add	s11,s11,a3
   10cfc:	00fd2023          	sw	a5,0(s10)
   10d00:	0fb12623          	sw	s11,236(sp)
   10d04:	0ee12423          	sw	a4,232(sp)
   10d08:	00700693          	li	a3,7
   10d0c:	00060d13          	mv	s10,a2
   10d10:	02e6d063          	ble	a4,a3,10d30 <_vfprintf_r+0x67c>
   10d14:	0e410613          	addi	a2,sp,228
   10d18:	00090593          	mv	a1,s2
   10d1c:	00098513          	mv	a0,s3
   10d20:	56d0c0ef          	jal	ra,1da8c <__sprint_r>
   10d24:	00050463          	beqz	a0,10d2c <_vfprintf_r+0x678>
   10d28:	1250106f          	j	1264c <_vfprintf_r+0x1f98>
   10d2c:	10c10d13          	addi	s10,sp,268
   10d30:	416a8ab3          	sub	s5,s5,s6
   10d34:	07505063          	blez	s5,10d94 <_vfprintf_r+0x6e0>
   10d38:	01000d93          	li	s11,16
   10d3c:	00700813          	li	a6,7
   10d40:	01812783          	lw	a5,24(sp)
   10d44:	0e812703          	lw	a4,232(sp)
   10d48:	0ec12683          	lw	a3,236(sp)
   10d4c:	00fd2023          	sw	a5,0(s10)
   10d50:	00170713          	addi	a4,a4,1
   10d54:	008d0613          	addi	a2,s10,8
   10d58:	735dc0e3          	blt	s11,s5,11c78 <_vfprintf_r+0x15c4>
   10d5c:	015d2223          	sw	s5,4(s10)
   10d60:	00da8ab3          	add	s5,s5,a3
   10d64:	0f512623          	sw	s5,236(sp)
   10d68:	0ee12423          	sw	a4,232(sp)
   10d6c:	00700693          	li	a3,7
   10d70:	00060d13          	mv	s10,a2
   10d74:	02e6d063          	ble	a4,a3,10d94 <_vfprintf_r+0x6e0>
   10d78:	0e410613          	addi	a2,sp,228
   10d7c:	00090593          	mv	a1,s2
   10d80:	00098513          	mv	a0,s3
   10d84:	5090c0ef          	jal	ra,1da8c <__sprint_r>
   10d88:	00050463          	beqz	a0,10d90 <_vfprintf_r+0x6dc>
   10d8c:	0c10106f          	j	1264c <_vfprintf_r+0x1f98>
   10d90:	10c10d13          	addi	s10,sp,268
   10d94:	10047713          	andi	a4,s0,256
   10d98:	0ec12d83          	lw	s11,236(sp)
   10d9c:	70071ee3          	bnez	a4,11cb8 <_vfprintf_r+0x1604>
   10da0:	0e812783          	lw	a5,232(sp)
   10da4:	01bb0333          	add	t1,s6,s11
   10da8:	009d2023          	sw	s1,0(s10)
   10dac:	00178793          	addi	a5,a5,1
   10db0:	016d2223          	sw	s6,4(s10)
   10db4:	0e612623          	sw	t1,236(sp)
   10db8:	0ef12423          	sw	a5,232(sp)
   10dbc:	00700713          	li	a4,7
   10dc0:	008d0d13          	addi	s10,s10,8
   10dc4:	00f74463          	blt	a4,a5,10dcc <_vfprintf_r+0x718>
   10dc8:	1b80106f          	j	11f80 <_vfprintf_r+0x18cc>
   10dcc:	0e410613          	addi	a2,sp,228
   10dd0:	00090593          	mv	a1,s2
   10dd4:	00098513          	mv	a0,s3
   10dd8:	4b50c0ef          	jal	ra,1da8c <__sprint_r>
   10ddc:	00050463          	beqz	a0,10de4 <_vfprintf_r+0x730>
   10de0:	06d0106f          	j	1264c <_vfprintf_r+0x1f98>
   10de4:	10c10d13          	addi	s10,sp,268
   10de8:	1980106f          	j	11f80 <_vfprintf_r+0x18cc>
   10dec:	01046413          	ori	s0,s0,16
   10df0:	02047793          	andi	a5,s0,32
   10df4:	04078e63          	beqz	a5,10e50 <_vfprintf_r+0x79c>
   10df8:	007c0c13          	addi	s8,s8,7
   10dfc:	ff8c7c13          	andi	s8,s8,-8
   10e00:	008c0793          	addi	a5,s8,8
   10e04:	000c2c83          	lw	s9,0(s8)
   10e08:	004c2c03          	lw	s8,4(s8)
   10e0c:	00f12e23          	sw	a5,28(sp)
   10e10:	000c5e63          	bgez	s8,10e2c <_vfprintf_r+0x778>
   10e14:	41900cb3          	neg	s9,s9
   10e18:	019037b3          	snez	a5,s9
   10e1c:	41800c33          	neg	s8,s8
   10e20:	40fc0c33          	sub	s8,s8,a5
   10e24:	02d00793          	li	a5,45
   10e28:	0cf103a3          	sb	a5,199(sp)
   10e2c:	fff00793          	li	a5,-1
   10e30:	3efb1ae3          	bne	s6,a5,11a24 <_vfprintf_r+0x1370>
   10e34:	460c1ce3          	bnez	s8,11aac <_vfprintf_r+0x13f8>
   10e38:	00900793          	li	a5,9
   10e3c:	4797e8e3          	bltu	a5,s9,11aac <_vfprintf_r+0x13f8>
   10e40:	030c8c93          	addi	s9,s9,48
   10e44:	1b9107a3          	sb	s9,431(sp)
   10e48:	1af10493          	addi	s1,sp,431
   10e4c:	4390006f          	j	11a84 <_vfprintf_r+0x13d0>
   10e50:	004c0793          	addi	a5,s8,4
   10e54:	00f12e23          	sw	a5,28(sp)
   10e58:	01047793          	andi	a5,s0,16
   10e5c:	00078863          	beqz	a5,10e6c <_vfprintf_r+0x7b8>
   10e60:	000c2c83          	lw	s9,0(s8)
   10e64:	41fcdc13          	srai	s8,s9,0x1f
   10e68:	fa9ff06f          	j	10e10 <_vfprintf_r+0x75c>
   10e6c:	04047793          	andi	a5,s0,64
   10e70:	000c2c83          	lw	s9,0(s8)
   10e74:	00078863          	beqz	a5,10e84 <_vfprintf_r+0x7d0>
   10e78:	010c9c93          	slli	s9,s9,0x10
   10e7c:	410cdc93          	srai	s9,s9,0x10
   10e80:	fe5ff06f          	j	10e64 <_vfprintf_r+0x7b0>
   10e84:	20047793          	andi	a5,s0,512
   10e88:	fc078ee3          	beqz	a5,10e64 <_vfprintf_r+0x7b0>
   10e8c:	018c9c93          	slli	s9,s9,0x18
   10e90:	418cdc93          	srai	s9,s9,0x18
   10e94:	fd1ff06f          	j	10e64 <_vfprintf_r+0x7b0>
   10e98:	00847793          	andi	a5,s0,8
   10e9c:	0a078a63          	beqz	a5,10f50 <_vfprintf_r+0x89c>
   10ea0:	004c0793          	addi	a5,s8,4
   10ea4:	00f12e23          	sw	a5,28(sp)
   10ea8:	000c2783          	lw	a5,0(s8)
   10eac:	0007a603          	lw	a2,0(a5)
   10eb0:	0047a683          	lw	a3,4(a5)
   10eb4:	0087a703          	lw	a4,8(a5)
   10eb8:	00c7a783          	lw	a5,12(a5)
   10ebc:	0ec12823          	sw	a2,240(sp)
   10ec0:	0ed12a23          	sw	a3,244(sp)
   10ec4:	0ee12c23          	sw	a4,248(sp)
   10ec8:	0f010513          	addi	a0,sp,240
   10ecc:	0ef12e23          	sw	a5,252(sp)
   10ed0:	7b1050ef          	jal	ra,16e80 <_ldcheck>
   10ed4:	0ca12623          	sw	a0,204(sp)
   10ed8:	00200793          	li	a5,2
   10edc:	0cf51063          	bne	a0,a5,10f9c <_vfprintf_r+0x8e8>
   10ee0:	0f012783          	lw	a5,240(sp)
   10ee4:	0a010593          	addi	a1,sp,160
   10ee8:	0b010513          	addi	a0,sp,176
   10eec:	0af12823          	sw	a5,176(sp)
   10ef0:	0f412783          	lw	a5,244(sp)
   10ef4:	0a012023          	sw	zero,160(sp)
   10ef8:	0a012223          	sw	zero,164(sp)
   10efc:	0af12a23          	sw	a5,180(sp)
   10f00:	0f812783          	lw	a5,248(sp)
   10f04:	0a012423          	sw	zero,168(sp)
   10f08:	0a012623          	sw	zero,172(sp)
   10f0c:	0af12c23          	sw	a5,184(sp)
   10f10:	0fc12783          	lw	a5,252(sp)
   10f14:	0af12e23          	sw	a5,188(sp)
   10f18:	6fd140ef          	jal	ra,25e14 <__letf2>
   10f1c:	00055663          	bgez	a0,10f28 <_vfprintf_r+0x874>
   10f20:	02d00793          	li	a5,45
   10f24:	0cf103a3          	sb	a5,199(sp)
   10f28:	00c12703          	lw	a4,12(sp)
   10f2c:	04700793          	li	a5,71
   10f30:	06e7c063          	blt	a5,a4,10f90 <_vfprintf_r+0x8dc>
   10f34:	000294b7          	lui	s1,0x29
   10f38:	79048493          	addi	s1,s1,1936 # 29790 <zeroes.4377+0x48>
   10f3c:	f7f47413          	andi	s0,s0,-129
   10f40:	00012823          	sw	zero,16(sp)
   10f44:	00300b13          	li	s6,3
   10f48:	00000a93          	li	s5,0
   10f4c:	3490006f          	j	11a94 <_vfprintf_r+0x13e0>
   10f50:	007c0c13          	addi	s8,s8,7
   10f54:	ff8c7c13          	andi	s8,s8,-8
   10f58:	000c2583          	lw	a1,0(s8)
   10f5c:	004c2603          	lw	a2,4(s8)
   10f60:	008c0793          	addi	a5,s8,8
   10f64:	0b010513          	addi	a0,sp,176
   10f68:	00f12e23          	sw	a5,28(sp)
   10f6c:	531170ef          	jal	ra,28c9c <__extenddftf2>
   10f70:	0b012783          	lw	a5,176(sp)
   10f74:	0ef12823          	sw	a5,240(sp)
   10f78:	0b412783          	lw	a5,180(sp)
   10f7c:	0ef12a23          	sw	a5,244(sp)
   10f80:	0b812783          	lw	a5,184(sp)
   10f84:	0ef12c23          	sw	a5,248(sp)
   10f88:	0bc12783          	lw	a5,188(sp)
   10f8c:	f3dff06f          	j	10ec8 <_vfprintf_r+0x814>
   10f90:	000294b7          	lui	s1,0x29
   10f94:	79448493          	addi	s1,s1,1940 # 29794 <zeroes.4377+0x4c>
   10f98:	fa5ff06f          	j	10f3c <_vfprintf_r+0x888>
   10f9c:	00100793          	li	a5,1
   10fa0:	02f51463          	bne	a0,a5,10fc8 <_vfprintf_r+0x914>
   10fa4:	00c12703          	lw	a4,12(sp)
   10fa8:	04700793          	li	a5,71
   10fac:	00e7c863          	blt	a5,a4,10fbc <_vfprintf_r+0x908>
   10fb0:	000294b7          	lui	s1,0x29
   10fb4:	79848493          	addi	s1,s1,1944 # 29798 <zeroes.4377+0x50>
   10fb8:	f85ff06f          	j	10f3c <_vfprintf_r+0x888>
   10fbc:	000294b7          	lui	s1,0x29
   10fc0:	79c48493          	addi	s1,s1,1948 # 2979c <zeroes.4377+0x54>
   10fc4:	f79ff06f          	j	10f3c <_vfprintf_r+0x888>
   10fc8:	00c12783          	lw	a5,12(sp)
   10fcc:	fdf7fb93          	andi	s7,a5,-33
   10fd0:	04100793          	li	a5,65
   10fd4:	06fb9063          	bne	s7,a5,11034 <_vfprintf_r+0x980>
   10fd8:	00c12683          	lw	a3,12(sp)
   10fdc:	03000793          	li	a5,48
   10fe0:	0cf10423          	sb	a5,200(sp)
   10fe4:	06100713          	li	a4,97
   10fe8:	05800793          	li	a5,88
   10fec:	00e69463          	bne	a3,a4,10ff4 <_vfprintf_r+0x940>
   10ff0:	07800793          	li	a5,120
   10ff4:	0cf104a3          	sb	a5,201(sp)
   10ff8:	06300793          	li	a5,99
   10ffc:	00246413          	ori	s0,s0,2
   11000:	5167d663          	ble	s6,a5,1150c <_vfprintf_r+0xe58>
   11004:	001b0593          	addi	a1,s6,1
   11008:	00098513          	mv	a0,s3
   1100c:	168060ef          	jal	ra,17174 <_malloc_r>
   11010:	00050493          	mv	s1,a0
   11014:	50051263          	bnez	a0,11518 <_vfprintf_r+0xe64>
   11018:	00c95783          	lhu	a5,12(s2)
   1101c:	0407e793          	ori	a5,a5,64
   11020:	00f91623          	sh	a5,12(s2)
   11024:	00c95783          	lhu	a5,12(s2)
   11028:	0407f793          	andi	a5,a5,64
   1102c:	f6078e63          	beqz	a5,107a8 <_vfprintf_r+0xf4>
   11030:	fc8ff06f          	j	107f8 <_vfprintf_r+0x144>
   11034:	fff00793          	li	a5,-1
   11038:	4efb0463          	beq	s6,a5,11520 <_vfprintf_r+0xe6c>
   1103c:	04700793          	li	a5,71
   11040:	00012823          	sw	zero,16(sp)
   11044:	00fb9463          	bne	s7,a5,1104c <_vfprintf_r+0x998>
   11048:	4e0b0263          	beqz	s6,1152c <_vfprintf_r+0xe78>
   1104c:	0fc12a03          	lw	s4,252(sp)
   11050:	10046793          	ori	a5,s0,256
   11054:	02f12823          	sw	a5,48(sp)
   11058:	04012423          	sw	zero,72(sp)
   1105c:	0f012e03          	lw	t3,240(sp)
   11060:	0f412d83          	lw	s11,244(sp)
   11064:	0f812c83          	lw	s9,248(sp)
   11068:	000a5a63          	bgez	s4,1107c <_vfprintf_r+0x9c8>
   1106c:	800007b7          	lui	a5,0x80000
   11070:	0147ca33          	xor	s4,a5,s4
   11074:	02d00793          	li	a5,45
   11078:	04f12423          	sw	a5,72(sp)
   1107c:	04100793          	li	a5,65
   11080:	50fb9063          	bne	s7,a5,11580 <_vfprintf_r+0xecc>
   11084:	0b010513          	addi	a0,sp,176
   11088:	0bc12823          	sw	t3,176(sp)
   1108c:	0bb12a23          	sw	s11,180(sp)
   11090:	0b912c23          	sw	s9,184(sp)
   11094:	0b412e23          	sw	s4,188(sp)
   11098:	7ed170ef          	jal	ra,29084 <__trunctfdf2>
   1109c:	0cc10613          	addi	a2,sp,204
   110a0:	134080ef          	jal	ra,191d4 <frexp>
   110a4:	00058613          	mv	a2,a1
   110a8:	00050593          	mv	a1,a0
   110ac:	0b010513          	addi	a0,sp,176
   110b0:	3ed170ef          	jal	ra,28c9c <__extenddftf2>
   110b4:	0b012583          	lw	a1,176(sp)
   110b8:	000297b7          	lui	a5,0x29
   110bc:	76078793          	addi	a5,a5,1888 # 29760 <zeroes.4377+0x18>
   110c0:	08b12823          	sw	a1,144(sp)
   110c4:	0b412583          	lw	a1,180(sp)
   110c8:	0007a603          	lw	a2,0(a5)
   110cc:	0047a683          	lw	a3,4(a5)
   110d0:	08b12a23          	sw	a1,148(sp)
   110d4:	0b812583          	lw	a1,184(sp)
   110d8:	0087a703          	lw	a4,8(a5)
   110dc:	00c7a783          	lw	a5,12(a5)
   110e0:	08b12c23          	sw	a1,152(sp)
   110e4:	0bc12583          	lw	a1,188(sp)
   110e8:	08c12023          	sw	a2,128(sp)
   110ec:	0a010513          	addi	a0,sp,160
   110f0:	08b12e23          	sw	a1,156(sp)
   110f4:	08010613          	addi	a2,sp,128
   110f8:	09010593          	addi	a1,sp,144
   110fc:	08d12223          	sw	a3,132(sp)
   11100:	08e12423          	sw	a4,136(sp)
   11104:	08f12623          	sw	a5,140(sp)
   11108:	66d140ef          	jal	ra,25f74 <__multf3>
   1110c:	0a012383          	lw	t2,160(sp)
   11110:	0a412803          	lw	a6,164(sp)
   11114:	0a812d83          	lw	s11,168(sp)
   11118:	0ac12c83          	lw	s9,172(sp)
   1111c:	0a010593          	addi	a1,sp,160
   11120:	0b010513          	addi	a0,sp,176
   11124:	0a712823          	sw	t2,176(sp)
   11128:	04712823          	sw	t2,80(sp)
   1112c:	0b012a23          	sw	a6,180(sp)
   11130:	05012623          	sw	a6,76(sp)
   11134:	0bb12c23          	sw	s11,184(sp)
   11138:	0b912e23          	sw	s9,188(sp)
   1113c:	0a012023          	sw	zero,160(sp)
   11140:	0a012223          	sw	zero,164(sp)
   11144:	0a012423          	sw	zero,168(sp)
   11148:	0a012623          	sw	zero,172(sp)
   1114c:	29d140ef          	jal	ra,25be8 <__eqtf2>
   11150:	04c12803          	lw	a6,76(sp)
   11154:	05012383          	lw	t2,80(sp)
   11158:	00051663          	bnez	a0,11164 <_vfprintf_r+0xab0>
   1115c:	00100793          	li	a5,1
   11160:	0cf12623          	sw	a5,204(sp)
   11164:	00c12703          	lw	a4,12(sp)
   11168:	06100793          	li	a5,97
   1116c:	3cf71663          	bne	a4,a5,11538 <_vfprintf_r+0xe84>
   11170:	00029ab7          	lui	s5,0x29
   11174:	7a0a8a93          	addi	s5,s5,1952 # 297a0 <zeroes.4377+0x58>
   11178:	00029737          	lui	a4,0x29
   1117c:	77070713          	addi	a4,a4,1904 # 29770 <zeroes.4377+0x28>
   11180:	00072783          	lw	a5,0(a4)
   11184:	fffb0e13          	addi	t3,s6,-1
   11188:	00048c13          	mv	s8,s1
   1118c:	04f12823          	sw	a5,80(sp)
   11190:	00472783          	lw	a5,4(a4)
   11194:	04f12a23          	sw	a5,84(sp)
   11198:	00872783          	lw	a5,8(a4)
   1119c:	04f12c23          	sw	a5,88(sp)
   111a0:	00c72783          	lw	a5,12(a4)
   111a4:	04f12e23          	sw	a5,92(sp)
   111a8:	05012783          	lw	a5,80(sp)
   111ac:	0a010593          	addi	a1,sp,160
   111b0:	09010613          	addi	a2,sp,144
   111b4:	08f12823          	sw	a5,144(sp)
   111b8:	05412783          	lw	a5,84(sp)
   111bc:	0b010513          	addi	a0,sp,176
   111c0:	07c12423          	sw	t3,104(sp)
   111c4:	08f12a23          	sw	a5,148(sp)
   111c8:	05812783          	lw	a5,88(sp)
   111cc:	0a712023          	sw	t2,160(sp)
   111d0:	0b012223          	sw	a6,164(sp)
   111d4:	08f12c23          	sw	a5,152(sp)
   111d8:	05c12783          	lw	a5,92(sp)
   111dc:	0bb12423          	sw	s11,168(sp)
   111e0:	0b912623          	sw	s9,172(sp)
   111e4:	08f12e23          	sw	a5,156(sp)
   111e8:	58d140ef          	jal	ra,25f74 <__multf3>
   111ec:	0b012603          	lw	a2,176(sp)
   111f0:	0b412683          	lw	a3,180(sp)
   111f4:	0b010513          	addi	a0,sp,176
   111f8:	06c12223          	sw	a2,100(sp)
   111fc:	04d12623          	sw	a3,76(sp)
   11200:	6a8170ef          	jal	ra,288a8 <__fixtfsi>
   11204:	00050593          	mv	a1,a0
   11208:	00050a13          	mv	s4,a0
   1120c:	0b010513          	addi	a0,sp,176
   11210:	0b812d83          	lw	s11,184(sp)
   11214:	0bc12c83          	lw	s9,188(sp)
   11218:	7f4170ef          	jal	ra,28a0c <__floatsitf>
   1121c:	0b012703          	lw	a4,176(sp)
   11220:	06412603          	lw	a2,100(sp)
   11224:	04c12683          	lw	a3,76(sp)
   11228:	08e12023          	sw	a4,128(sp)
   1122c:	0b412703          	lw	a4,180(sp)
   11230:	08c12823          	sw	a2,144(sp)
   11234:	09010593          	addi	a1,sp,144
   11238:	08e12223          	sw	a4,132(sp)
   1123c:	0b812703          	lw	a4,184(sp)
   11240:	08010613          	addi	a2,sp,128
   11244:	0a010513          	addi	a0,sp,160
   11248:	08e12423          	sw	a4,136(sp)
   1124c:	0bc12703          	lw	a4,188(sp)
   11250:	09b12c23          	sw	s11,152(sp)
   11254:	09912e23          	sw	s9,156(sp)
   11258:	08e12623          	sw	a4,140(sp)
   1125c:	08d12a23          	sw	a3,148(sp)
   11260:	144160ef          	jal	ra,273a4 <__subtf3>
   11264:	014a8733          	add	a4,s5,s4
   11268:	00074703          	lbu	a4,0(a4)
   1126c:	06812e03          	lw	t3,104(sp)
   11270:	0a812f03          	lw	t5,168(sp)
   11274:	0ac12e83          	lw	t4,172(sp)
   11278:	001c0c13          	addi	s8,s8,1
   1127c:	0a012283          	lw	t0,160(sp)
   11280:	0a412f83          	lw	t6,164(sp)
   11284:	05c12623          	sw	t3,76(sp)
   11288:	feec0fa3          	sb	a4,-1(s8)
   1128c:	fff00713          	li	a4,-1
   11290:	000f0d93          	mv	s11,t5
   11294:	000e8c93          	mv	s9,t4
   11298:	06ee0863          	beq	t3,a4,11308 <_vfprintf_r+0xc54>
   1129c:	fffe0e13          	addi	t3,t3,-1
   112a0:	0a010593          	addi	a1,sp,160
   112a4:	0b010513          	addi	a0,sp,176
   112a8:	07d12e23          	sw	t4,124(sp)
   112ac:	07e12c23          	sw	t5,120(sp)
   112b0:	07f12a23          	sw	t6,116(sp)
   112b4:	06512823          	sw	t0,112(sp)
   112b8:	07c12623          	sw	t3,108(sp)
   112bc:	0a512823          	sw	t0,176(sp)
   112c0:	06512423          	sw	t0,104(sp)
   112c4:	0bf12a23          	sw	t6,180(sp)
   112c8:	07f12223          	sw	t6,100(sp)
   112cc:	0be12c23          	sw	t5,184(sp)
   112d0:	0bd12e23          	sw	t4,188(sp)
   112d4:	0a012023          	sw	zero,160(sp)
   112d8:	0a012223          	sw	zero,164(sp)
   112dc:	0a012423          	sw	zero,168(sp)
   112e0:	0a012623          	sw	zero,172(sp)
   112e4:	105140ef          	jal	ra,25be8 <__eqtf2>
   112e8:	06412803          	lw	a6,100(sp)
   112ec:	06812383          	lw	t2,104(sp)
   112f0:	06c12e03          	lw	t3,108(sp)
   112f4:	07012283          	lw	t0,112(sp)
   112f8:	07412f83          	lw	t6,116(sp)
   112fc:	07812f03          	lw	t5,120(sp)
   11300:	07c12e83          	lw	t4,124(sp)
   11304:	ea0512e3          	bnez	a0,111a8 <_vfprintf_r+0xaf4>
   11308:	00029737          	lui	a4,0x29
   1130c:	78070713          	addi	a4,a4,1920 # 29780 <zeroes.4377+0x38>
   11310:	00072603          	lw	a2,0(a4)
   11314:	00472683          	lw	a3,4(a4)
   11318:	00872d83          	lw	s11,8(a4)
   1131c:	00c72c83          	lw	s9,12(a4)
   11320:	0a010593          	addi	a1,sp,160
   11324:	0b010513          	addi	a0,sp,176
   11328:	0a512823          	sw	t0,176(sp)
   1132c:	06512423          	sw	t0,104(sp)
   11330:	0bf12a23          	sw	t6,180(sp)
   11334:	07f12223          	sw	t6,100(sp)
   11338:	0be12c23          	sw	t5,184(sp)
   1133c:	05e12e23          	sw	t5,92(sp)
   11340:	0bd12e23          	sw	t4,188(sp)
   11344:	05d12c23          	sw	t4,88(sp)
   11348:	0ac12023          	sw	a2,160(sp)
   1134c:	04c12a23          	sw	a2,84(sp)
   11350:	0ad12223          	sw	a3,164(sp)
   11354:	04d12823          	sw	a3,80(sp)
   11358:	0bb12423          	sw	s11,168(sp)
   1135c:	0b912623          	sw	s9,172(sp)
   11360:	155140ef          	jal	ra,25cb4 <__getf2>
   11364:	04a04a63          	bgtz	a0,113b8 <_vfprintf_r+0xd04>
   11368:	06812283          	lw	t0,104(sp)
   1136c:	06412f83          	lw	t6,100(sp)
   11370:	05c12f03          	lw	t5,92(sp)
   11374:	05812e83          	lw	t4,88(sp)
   11378:	05412603          	lw	a2,84(sp)
   1137c:	05012683          	lw	a3,80(sp)
   11380:	0a010593          	addi	a1,sp,160
   11384:	0b010513          	addi	a0,sp,176
   11388:	0a512823          	sw	t0,176(sp)
   1138c:	0bf12a23          	sw	t6,180(sp)
   11390:	0be12c23          	sw	t5,184(sp)
   11394:	0bd12e23          	sw	t4,188(sp)
   11398:	0ac12023          	sw	a2,160(sp)
   1139c:	0ad12223          	sw	a3,164(sp)
   113a0:	0bb12423          	sw	s11,168(sp)
   113a4:	0b912623          	sw	s9,172(sp)
   113a8:	041140ef          	jal	ra,25be8 <__eqtf2>
   113ac:	1c051063          	bnez	a0,1156c <_vfprintf_r+0xeb8>
   113b0:	001a7a13          	andi	s4,s4,1
   113b4:	1a0a0c63          	beqz	s4,1156c <_vfprintf_r+0xeb8>
   113b8:	00fac603          	lbu	a2,15(s5)
   113bc:	0d812e23          	sw	s8,220(sp)
   113c0:	03000593          	li	a1,48
   113c4:	0dc12683          	lw	a3,220(sp)
   113c8:	fff68713          	addi	a4,a3,-1
   113cc:	0ce12e23          	sw	a4,220(sp)
   113d0:	fff6c703          	lbu	a4,-1(a3)
   113d4:	16c70863          	beq	a4,a2,11544 <_vfprintf_r+0xe90>
   113d8:	03900613          	li	a2,57
   113dc:	16c71863          	bne	a4,a2,1154c <_vfprintf_r+0xe98>
   113e0:	00aac703          	lbu	a4,10(s5)
   113e4:	fee68fa3          	sb	a4,-1(a3)
   113e8:	000c0a13          	mv	s4,s8
   113ec:	04700713          	li	a4,71
   113f0:	409a0a33          	sub	s4,s4,s1
   113f4:	0cc12c83          	lw	s9,204(sp)
   113f8:	2aeb9a63          	bne	s7,a4,116ac <_vfprintf_r+0xff8>
   113fc:	ffd00713          	li	a4,-3
   11400:	00ecc463          	blt	s9,a4,11408 <_vfprintf_r+0xd54>
   11404:	339b5863          	ble	s9,s6,11734 <_vfprintf_r+0x1080>
   11408:	00c12783          	lw	a5,12(sp)
   1140c:	ffe78793          	addi	a5,a5,-2
   11410:	00f12623          	sw	a5,12(sp)
   11414:	00c12783          	lw	a5,12(sp)
   11418:	fffc8a93          	addi	s5,s9,-1
   1141c:	0d512623          	sw	s5,204(sp)
   11420:	fdf7f693          	andi	a3,a5,-33
   11424:	04100593          	li	a1,65
   11428:	00c14703          	lbu	a4,12(sp)
   1142c:	00000613          	li	a2,0
   11430:	00b69863          	bne	a3,a1,11440 <_vfprintf_r+0xd8c>
   11434:	00f70713          	addi	a4,a4,15
   11438:	0ff77713          	andi	a4,a4,255
   1143c:	00100613          	li	a2,1
   11440:	0ce10a23          	sb	a4,212(sp)
   11444:	02b00793          	li	a5,43
   11448:	000ad863          	bgez	s5,11458 <_vfprintf_r+0xda4>
   1144c:	00100a93          	li	s5,1
   11450:	419a8ab3          	sub	s5,s5,s9
   11454:	02d00793          	li	a5,45
   11458:	0cf10aa3          	sb	a5,213(sp)
   1145c:	00900793          	li	a5,9
   11460:	2957dc63          	ble	s5,a5,116f8 <_vfprintf_r+0x1044>
   11464:	0e310b93          	addi	s7,sp,227
   11468:	000b8c93          	mv	s9,s7
   1146c:	00900d93          	li	s11,9
   11470:	00a00593          	li	a1,10
   11474:	000a8513          	mv	a0,s5
   11478:	094180ef          	jal	ra,2950c <__modsi3>
   1147c:	03050513          	addi	a0,a0,48
   11480:	feab8fa3          	sb	a0,-1(s7)
   11484:	00a00593          	li	a1,10
   11488:	000a8513          	mv	a0,s5
   1148c:	7fd170ef          	jal	ra,29488 <__divsi3>
   11490:	fffb8c13          	addi	s8,s7,-1
   11494:	00050a93          	mv	s5,a0
   11498:	24adc263          	blt	s11,a0,116dc <_vfprintf_r+0x1028>
   1149c:	03050a93          	addi	s5,a0,48
   114a0:	ffeb8b93          	addi	s7,s7,-2
   114a4:	ff5c0fa3          	sb	s5,-1(s8)
   114a8:	0d610793          	addi	a5,sp,214
   114ac:	239bec63          	bltu	s7,s9,116e4 <_vfprintf_r+0x1030>
   114b0:	0d410713          	addi	a4,sp,212
   114b4:	40e787b3          	sub	a5,a5,a4
   114b8:	04f12023          	sw	a5,64(sp)
   114bc:	01478b33          	add	s6,a5,s4
   114c0:	00100793          	li	a5,1
   114c4:	0147c663          	blt	a5,s4,114d0 <_vfprintf_r+0xe1c>
   114c8:	00147793          	andi	a5,s0,1
   114cc:	00078663          	beqz	a5,114d8 <_vfprintf_r+0xe24>
   114d0:	02412783          	lw	a5,36(sp)
   114d4:	00fb0b33          	add	s6,s6,a5
   114d8:	bff47413          	andi	s0,s0,-1025
   114dc:	10046793          	ori	a5,s0,256
   114e0:	02f12823          	sw	a5,48(sp)
   114e4:	00000c13          	li	s8,0
   114e8:	00000b93          	li	s7,0
   114ec:	00000c93          	li	s9,0
   114f0:	04812783          	lw	a5,72(sp)
   114f4:	00078663          	beqz	a5,11500 <_vfprintf_r+0xe4c>
   114f8:	02d00713          	li	a4,45
   114fc:	0ce103a3          	sb	a4,199(sp)
   11500:	03012403          	lw	s0,48(sp)
   11504:	00000a93          	li	s5,0
   11508:	e50ff06f          	j	10b58 <_vfprintf_r+0x4a4>
   1150c:	00012823          	sw	zero,16(sp)
   11510:	14c10493          	addi	s1,sp,332
   11514:	b39ff06f          	j	1104c <_vfprintf_r+0x998>
   11518:	00a12823          	sw	a0,16(sp)
   1151c:	b31ff06f          	j	1104c <_vfprintf_r+0x998>
   11520:	00012823          	sw	zero,16(sp)
   11524:	00600b13          	li	s6,6
   11528:	b25ff06f          	j	1104c <_vfprintf_r+0x998>
   1152c:	01612823          	sw	s6,16(sp)
   11530:	00100b13          	li	s6,1
   11534:	b19ff06f          	j	1104c <_vfprintf_r+0x998>
   11538:	00029ab7          	lui	s5,0x29
   1153c:	7b4a8a93          	addi	s5,s5,1972 # 297b4 <zeroes.4377+0x6c>
   11540:	c39ff06f          	j	11178 <_vfprintf_r+0xac4>
   11544:	feb68fa3          	sb	a1,-1(a3)
   11548:	e7dff06f          	j	113c4 <_vfprintf_r+0xd10>
   1154c:	00170713          	addi	a4,a4,1
   11550:	0ff77713          	andi	a4,a4,255
   11554:	e91ff06f          	j	113e4 <_vfprintf_r+0xd30>
   11558:	001a0a13          	addi	s4,s4,1
   1155c:	feea0fa3          	sb	a4,-1(s4)
   11560:	414c07b3          	sub	a5,s8,s4
   11564:	fe07dae3          	bgez	a5,11558 <_vfprintf_r+0xea4>
   11568:	e85ff06f          	j	113ec <_vfprintf_r+0xd38>
   1156c:	04c12783          	lw	a5,76(sp)
   11570:	000c0a13          	mv	s4,s8
   11574:	03000713          	li	a4,48
   11578:	00fc0c33          	add	s8,s8,a5
   1157c:	fe5ff06f          	j	11560 <_vfprintf_r+0xeac>
   11580:	04600793          	li	a5,70
   11584:	00fb8e63          	beq	s7,a5,115a0 <_vfprintf_r+0xeec>
   11588:	04500793          	li	a5,69
   1158c:	001b0a93          	addi	s5,s6,1
   11590:	00fb8463          	beq	s7,a5,11598 <_vfprintf_r+0xee4>
   11594:	000b0a93          	mv	s5,s6
   11598:	00200613          	li	a2,2
   1159c:	00c0006f          	j	115a8 <_vfprintf_r+0xef4>
   115a0:	000b0a93          	mv	s5,s6
   115a4:	00300613          	li	a2,3
   115a8:	0d010793          	addi	a5,sp,208
   115ac:	0dc10813          	addi	a6,sp,220
   115b0:	0cc10713          	addi	a4,sp,204
   115b4:	000a8693          	mv	a3,s5
   115b8:	0b010593          	addi	a1,sp,176
   115bc:	00098513          	mv	a0,s3
   115c0:	0bc12823          	sw	t3,176(sp)
   115c4:	05c12623          	sw	t3,76(sp)
   115c8:	0bb12a23          	sw	s11,180(sp)
   115cc:	0b912c23          	sw	s9,184(sp)
   115d0:	0b412e23          	sw	s4,188(sp)
   115d4:	459040ef          	jal	ra,1622c <_ldtoa_r>
   115d8:	04700793          	li	a5,71
   115dc:	00050493          	mv	s1,a0
   115e0:	04c12e03          	lw	t3,76(sp)
   115e4:	00fb9663          	bne	s7,a5,115f0 <_vfprintf_r+0xf3c>
   115e8:	00147793          	andi	a5,s0,1
   115ec:	0a078063          	beqz	a5,1168c <_vfprintf_r+0xfd8>
   115f0:	04600793          	li	a5,70
   115f4:	01548c33          	add	s8,s1,s5
   115f8:	04fb9e63          	bne	s7,a5,11654 <_vfprintf_r+0xfa0>
   115fc:	0004c703          	lbu	a4,0(s1)
   11600:	03000793          	li	a5,48
   11604:	04f71463          	bne	a4,a5,1164c <_vfprintf_r+0xf98>
   11608:	0a010593          	addi	a1,sp,160
   1160c:	0b010513          	addi	a0,sp,176
   11610:	0bc12823          	sw	t3,176(sp)
   11614:	05c12623          	sw	t3,76(sp)
   11618:	0bb12a23          	sw	s11,180(sp)
   1161c:	0b912c23          	sw	s9,184(sp)
   11620:	0b412e23          	sw	s4,188(sp)
   11624:	0a012023          	sw	zero,160(sp)
   11628:	0a012223          	sw	zero,164(sp)
   1162c:	0a012423          	sw	zero,168(sp)
   11630:	0a012623          	sw	zero,172(sp)
   11634:	5b4140ef          	jal	ra,25be8 <__eqtf2>
   11638:	04c12e03          	lw	t3,76(sp)
   1163c:	00050863          	beqz	a0,1164c <_vfprintf_r+0xf98>
   11640:	00100793          	li	a5,1
   11644:	41578ab3          	sub	s5,a5,s5
   11648:	0d512623          	sw	s5,204(sp)
   1164c:	0cc12783          	lw	a5,204(sp)
   11650:	00fc0c33          	add	s8,s8,a5
   11654:	0a010593          	addi	a1,sp,160
   11658:	0b010513          	addi	a0,sp,176
   1165c:	0bc12823          	sw	t3,176(sp)
   11660:	0bb12a23          	sw	s11,180(sp)
   11664:	0b912c23          	sw	s9,184(sp)
   11668:	0b412e23          	sw	s4,188(sp)
   1166c:	0a012023          	sw	zero,160(sp)
   11670:	0a012223          	sw	zero,164(sp)
   11674:	0a012423          	sw	zero,168(sp)
   11678:	0a012623          	sw	zero,172(sp)
   1167c:	56c140ef          	jal	ra,25be8 <__eqtf2>
   11680:	03000713          	li	a4,48
   11684:	00051e63          	bnez	a0,116a0 <_vfprintf_r+0xfec>
   11688:	0d812e23          	sw	s8,220(sp)
   1168c:	0dc12a03          	lw	s4,220(sp)
   11690:	d5dff06f          	j	113ec <_vfprintf_r+0xd38>
   11694:	00178693          	addi	a3,a5,1
   11698:	0cd12e23          	sw	a3,220(sp)
   1169c:	00e78023          	sb	a4,0(a5)
   116a0:	0dc12783          	lw	a5,220(sp)
   116a4:	ff87e8e3          	bltu	a5,s8,11694 <_vfprintf_r+0xfe0>
   116a8:	fe5ff06f          	j	1168c <_vfprintf_r+0xfd8>
   116ac:	04600713          	li	a4,70
   116b0:	d6eb92e3          	bne	s7,a4,11414 <_vfprintf_r+0xd60>
   116b4:	07905463          	blez	s9,1171c <_vfprintf_r+0x1068>
   116b8:	000b1663          	bnez	s6,116c4 <_vfprintf_r+0x1010>
   116bc:	00147713          	andi	a4,s0,1
   116c0:	0c070663          	beqz	a4,1178c <_vfprintf_r+0x10d8>
   116c4:	02412783          	lw	a5,36(sp)
   116c8:	00fc8733          	add	a4,s9,a5
   116cc:	00eb0b33          	add	s6,s6,a4
   116d0:	06600793          	li	a5,102
   116d4:	00f12623          	sw	a5,12(sp)
   116d8:	0980006f          	j	11770 <_vfprintf_r+0x10bc>
   116dc:	000c0b93          	mv	s7,s8
   116e0:	d91ff06f          	j	11470 <_vfprintf_r+0xdbc>
   116e4:	001b8b93          	addi	s7,s7,1
   116e8:	fffbc703          	lbu	a4,-1(s7)
   116ec:	00178793          	addi	a5,a5,1
   116f0:	fee78fa3          	sb	a4,-1(a5)
   116f4:	db9ff06f          	j	114ac <_vfprintf_r+0xdf8>
   116f8:	0d610713          	addi	a4,sp,214
   116fc:	00061863          	bnez	a2,1170c <_vfprintf_r+0x1058>
   11700:	03000793          	li	a5,48
   11704:	0cf10b23          	sb	a5,214(sp)
   11708:	0d710713          	addi	a4,sp,215
   1170c:	030a8a93          	addi	s5,s5,48
   11710:	00170793          	addi	a5,a4,1
   11714:	01570023          	sb	s5,0(a4)
   11718:	d99ff06f          	j	114b0 <_vfprintf_r+0xdfc>
   1171c:	000b1663          	bnez	s6,11728 <_vfprintf_r+0x1074>
   11720:	00147713          	andi	a4,s0,1
   11724:	06070863          	beqz	a4,11794 <_vfprintf_r+0x10e0>
   11728:	02412783          	lw	a5,36(sp)
   1172c:	00178713          	addi	a4,a5,1
   11730:	f9dff06f          	j	116cc <_vfprintf_r+0x1018>
   11734:	034cc063          	blt	s9,s4,11754 <_vfprintf_r+0x10a0>
   11738:	00147713          	andi	a4,s0,1
   1173c:	000c8b13          	mv	s6,s9
   11740:	00070663          	beqz	a4,1174c <_vfprintf_r+0x1098>
   11744:	02412783          	lw	a5,36(sp)
   11748:	00fc8b33          	add	s6,s9,a5
   1174c:	06700793          	li	a5,103
   11750:	f85ff06f          	j	116d4 <_vfprintf_r+0x1020>
   11754:	02412783          	lw	a5,36(sp)
   11758:	00fa0b33          	add	s6,s4,a5
   1175c:	06700793          	li	a5,103
   11760:	00f12623          	sw	a5,12(sp)
   11764:	01904663          	bgtz	s9,11770 <_vfprintf_r+0x10bc>
   11768:	419b0333          	sub	t1,s6,s9
   1176c:	00130b13          	addi	s6,t1,1 # 1 <sulp-0x10073>
   11770:	40047b93          	andi	s7,s0,1024
   11774:	00000c13          	li	s8,0
   11778:	d60b8ce3          	beqz	s7,114f0 <_vfprintf_r+0xe3c>
   1177c:	00000b93          	li	s7,0
   11780:	d79058e3          	blez	s9,114f0 <_vfprintf_r+0xe3c>
   11784:	0ff00693          	li	a3,255
   11788:	03c0006f          	j	117c4 <_vfprintf_r+0x1110>
   1178c:	000c8b13          	mv	s6,s9
   11790:	f41ff06f          	j	116d0 <_vfprintf_r+0x101c>
   11794:	06600793          	li	a5,102
   11798:	00f12623          	sw	a5,12(sp)
   1179c:	00100b13          	li	s6,1
   117a0:	fd1ff06f          	j	11770 <_vfprintf_r+0x10bc>
   117a4:	03975663          	ble	s9,a4,117d0 <_vfprintf_r+0x111c>
   117a8:	01412783          	lw	a5,20(sp)
   117ac:	40ec8cb3          	sub	s9,s9,a4
   117b0:	0017c703          	lbu	a4,1(a5)
   117b4:	02070863          	beqz	a4,117e4 <_vfprintf_r+0x1130>
   117b8:	00178793          	addi	a5,a5,1
   117bc:	001b8b93          	addi	s7,s7,1
   117c0:	00f12a23          	sw	a5,20(sp)
   117c4:	01412783          	lw	a5,20(sp)
   117c8:	0007c703          	lbu	a4,0(a5)
   117cc:	fcd71ce3          	bne	a4,a3,117a4 <_vfprintf_r+0x10f0>
   117d0:	03412583          	lw	a1,52(sp)
   117d4:	018b8533          	add	a0,s7,s8
   117d8:	405170ef          	jal	ra,293dc <__mulsi3>
   117dc:	01650b33          	add	s6,a0,s6
   117e0:	d11ff06f          	j	114f0 <_vfprintf_r+0xe3c>
   117e4:	001c0c13          	addi	s8,s8,1
   117e8:	fddff06f          	j	117c4 <_vfprintf_r+0x1110>
   117ec:	004c0713          	addi	a4,s8,4
   117f0:	00e12e23          	sw	a4,28(sp)
   117f4:	02047713          	andi	a4,s0,32
   117f8:	000c2783          	lw	a5,0(s8)
   117fc:	02070063          	beqz	a4,1181c <_vfprintf_r+0x1168>
   11800:	02812703          	lw	a4,40(sp)
   11804:	00e7a023          	sw	a4,0(a5)
   11808:	41f75713          	srai	a4,a4,0x1f
   1180c:	00e7a223          	sw	a4,4(a5)
   11810:	01c12c03          	lw	s8,28(sp)
   11814:	02012483          	lw	s1,32(sp)
   11818:	834ff06f          	j	1084c <_vfprintf_r+0x198>
   1181c:	01047713          	andi	a4,s0,16
   11820:	00070863          	beqz	a4,11830 <_vfprintf_r+0x117c>
   11824:	02812703          	lw	a4,40(sp)
   11828:	00e7a023          	sw	a4,0(a5)
   1182c:	fe5ff06f          	j	11810 <_vfprintf_r+0x115c>
   11830:	04047713          	andi	a4,s0,64
   11834:	00070863          	beqz	a4,11844 <_vfprintf_r+0x1190>
   11838:	02815703          	lhu	a4,40(sp)
   1183c:	00e79023          	sh	a4,0(a5)
   11840:	fd1ff06f          	j	11810 <_vfprintf_r+0x115c>
   11844:	20047413          	andi	s0,s0,512
   11848:	fc040ee3          	beqz	s0,11824 <_vfprintf_r+0x1170>
   1184c:	02814703          	lbu	a4,40(sp)
   11850:	00e78023          	sb	a4,0(a5)
   11854:	fbdff06f          	j	11810 <_vfprintf_r+0x115c>
   11858:	01046413          	ori	s0,s0,16
   1185c:	02047793          	andi	a5,s0,32
   11860:	04078863          	beqz	a5,118b0 <_vfprintf_r+0x11fc>
   11864:	007c0c13          	addi	s8,s8,7
   11868:	ff8c7c13          	andi	s8,s8,-8
   1186c:	008c0793          	addi	a5,s8,8
   11870:	000c2c83          	lw	s9,0(s8)
   11874:	004c2c03          	lw	s8,4(s8)
   11878:	00f12e23          	sw	a5,28(sp)
   1187c:	bff47413          	andi	s0,s0,-1025
   11880:	00000793          	li	a5,0
   11884:	0c0103a3          	sb	zero,199(sp)
   11888:	fff00713          	li	a4,-1
   1188c:	1aeb0263          	beq	s6,a4,11a30 <_vfprintf_r+0x137c>
   11890:	00040713          	mv	a4,s0
   11894:	018ce6b3          	or	a3,s9,s8
   11898:	f7f47413          	andi	s0,s0,-129
   1189c:	18069a63          	bnez	a3,11a30 <_vfprintf_r+0x137c>
   118a0:	2e0b0c63          	beqz	s6,11b98 <_vfprintf_r+0x14e4>
   118a4:	00100713          	li	a4,1
   118a8:	18e79863          	bne	a5,a4,11a38 <_vfprintf_r+0x1384>
   118ac:	d94ff06f          	j	10e40 <_vfprintf_r+0x78c>
   118b0:	004c0793          	addi	a5,s8,4
   118b4:	00f12e23          	sw	a5,28(sp)
   118b8:	01047793          	andi	a5,s0,16
   118bc:	00078663          	beqz	a5,118c8 <_vfprintf_r+0x1214>
   118c0:	000c2c83          	lw	s9,0(s8)
   118c4:	0100006f          	j	118d4 <_vfprintf_r+0x1220>
   118c8:	04047793          	andi	a5,s0,64
   118cc:	00078863          	beqz	a5,118dc <_vfprintf_r+0x1228>
   118d0:	000c5c83          	lhu	s9,0(s8)
   118d4:	00000c13          	li	s8,0
   118d8:	fa5ff06f          	j	1187c <_vfprintf_r+0x11c8>
   118dc:	20047793          	andi	a5,s0,512
   118e0:	fe0780e3          	beqz	a5,118c0 <_vfprintf_r+0x120c>
   118e4:	000c4c83          	lbu	s9,0(s8)
   118e8:	fedff06f          	j	118d4 <_vfprintf_r+0x1220>
   118ec:	004c0793          	addi	a5,s8,4
   118f0:	00f12e23          	sw	a5,28(sp)
   118f4:	ffff87b7          	lui	a5,0xffff8
   118f8:	8307c793          	xori	a5,a5,-2000
   118fc:	0cf11423          	sh	a5,200(sp)
   11900:	000297b7          	lui	a5,0x29
   11904:	7a078793          	addi	a5,a5,1952 # 297a0 <zeroes.4377+0x58>
   11908:	07800713          	li	a4,120
   1190c:	000c2c83          	lw	s9,0(s8)
   11910:	04f12223          	sw	a5,68(sp)
   11914:	00000c13          	li	s8,0
   11918:	00246413          	ori	s0,s0,2
   1191c:	00200793          	li	a5,2
   11920:	00e12623          	sw	a4,12(sp)
   11924:	f61ff06f          	j	11884 <_vfprintf_r+0x11d0>
   11928:	004c0793          	addi	a5,s8,4
   1192c:	00f12e23          	sw	a5,28(sp)
   11930:	0c0103a3          	sb	zero,199(sp)
   11934:	fff00793          	li	a5,-1
   11938:	000c2483          	lw	s1,0(s8)
   1193c:	02fb0463          	beq	s6,a5,11964 <_vfprintf_r+0x12b0>
   11940:	000b0613          	mv	a2,s6
   11944:	00000593          	li	a1,0
   11948:	00048513          	mv	a0,s1
   1194c:	78d050ef          	jal	ra,178d8 <memchr>
   11950:	00a12823          	sw	a0,16(sp)
   11954:	de050a63          	beqz	a0,10f48 <_vfprintf_r+0x894>
   11958:	40950b33          	sub	s6,a0,s1
   1195c:	00012823          	sw	zero,16(sp)
   11960:	de8ff06f          	j	10f48 <_vfprintf_r+0x894>
   11964:	00048513          	mv	a0,s1
   11968:	d31fe0ef          	jal	ra,10698 <strlen>
   1196c:	00050b13          	mv	s6,a0
   11970:	fedff06f          	j	1195c <_vfprintf_r+0x12a8>
   11974:	01046413          	ori	s0,s0,16
   11978:	02047793          	andi	a5,s0,32
   1197c:	02078263          	beqz	a5,119a0 <_vfprintf_r+0x12ec>
   11980:	007c0c13          	addi	s8,s8,7
   11984:	ff8c7c13          	andi	s8,s8,-8
   11988:	008c0793          	addi	a5,s8,8
   1198c:	000c2c83          	lw	s9,0(s8)
   11990:	004c2c03          	lw	s8,4(s8)
   11994:	00f12e23          	sw	a5,28(sp)
   11998:	00100793          	li	a5,1
   1199c:	ee9ff06f          	j	11884 <_vfprintf_r+0x11d0>
   119a0:	004c0793          	addi	a5,s8,4
   119a4:	00f12e23          	sw	a5,28(sp)
   119a8:	01047793          	andi	a5,s0,16
   119ac:	00078663          	beqz	a5,119b8 <_vfprintf_r+0x1304>
   119b0:	000c2c83          	lw	s9,0(s8)
   119b4:	0100006f          	j	119c4 <_vfprintf_r+0x1310>
   119b8:	04047793          	andi	a5,s0,64
   119bc:	00078863          	beqz	a5,119cc <_vfprintf_r+0x1318>
   119c0:	000c5c83          	lhu	s9,0(s8)
   119c4:	00000c13          	li	s8,0
   119c8:	fd1ff06f          	j	11998 <_vfprintf_r+0x12e4>
   119cc:	20047793          	andi	a5,s0,512
   119d0:	fe0780e3          	beqz	a5,119b0 <_vfprintf_r+0x12fc>
   119d4:	000c4c83          	lbu	s9,0(s8)
   119d8:	fedff06f          	j	119c4 <_vfprintf_r+0x1310>
   119dc:	000297b7          	lui	a5,0x29
   119e0:	7a078793          	addi	a5,a5,1952 # 297a0 <zeroes.4377+0x58>
   119e4:	f4dfe06f          	j	10930 <_vfprintf_r+0x27c>
   119e8:	004c0793          	addi	a5,s8,4
   119ec:	00f12e23          	sw	a5,28(sp)
   119f0:	01047793          	andi	a5,s0,16
   119f4:	00078663          	beqz	a5,11a00 <_vfprintf_r+0x134c>
   119f8:	000c2c83          	lw	s9,0(s8)
   119fc:	0100006f          	j	11a0c <_vfprintf_r+0x1358>
   11a00:	04047793          	andi	a5,s0,64
   11a04:	00078863          	beqz	a5,11a14 <_vfprintf_r+0x1360>
   11a08:	000c5c83          	lhu	s9,0(s8)
   11a0c:	00000c13          	li	s8,0
   11a10:	f49fe06f          	j	10958 <_vfprintf_r+0x2a4>
   11a14:	20047793          	andi	a5,s0,512
   11a18:	fe0780e3          	beqz	a5,119f8 <_vfprintf_r+0x1344>
   11a1c:	000c4c83          	lbu	s9,0(s8)
   11a20:	fedff06f          	j	11a0c <_vfprintf_r+0x1358>
   11a24:	00040713          	mv	a4,s0
   11a28:	00100793          	li	a5,1
   11a2c:	e69ff06f          	j	11894 <_vfprintf_r+0x11e0>
   11a30:	00100713          	li	a4,1
   11a34:	c0e78063          	beq	a5,a4,10e34 <_vfprintf_r+0x780>
   11a38:	00200713          	li	a4,2
   11a3c:	12e78263          	beq	a5,a4,11b60 <_vfprintf_r+0x14ac>
   11a40:	1b010793          	addi	a5,sp,432
   11a44:	01dc1693          	slli	a3,s8,0x1d
   11a48:	007cf713          	andi	a4,s9,7
   11a4c:	003cdc93          	srli	s9,s9,0x3
   11a50:	03070713          	addi	a4,a4,48
   11a54:	0196ecb3          	or	s9,a3,s9
   11a58:	003c5c13          	srli	s8,s8,0x3
   11a5c:	fee78fa3          	sb	a4,-1(a5)
   11a60:	018ce6b3          	or	a3,s9,s8
   11a64:	fff78493          	addi	s1,a5,-1
   11a68:	02069e63          	bnez	a3,11aa4 <_vfprintf_r+0x13f0>
   11a6c:	00147693          	andi	a3,s0,1
   11a70:	00068a63          	beqz	a3,11a84 <_vfprintf_r+0x13d0>
   11a74:	03000693          	li	a3,48
   11a78:	00d70663          	beq	a4,a3,11a84 <_vfprintf_r+0x13d0>
   11a7c:	fed48fa3          	sb	a3,-1(s1)
   11a80:	ffe78493          	addi	s1,a5,-2
   11a84:	1b010793          	addi	a5,sp,432
   11a88:	000b0a93          	mv	s5,s6
   11a8c:	00012823          	sw	zero,16(sp)
   11a90:	40978b33          	sub	s6,a5,s1
   11a94:	00000c13          	li	s8,0
   11a98:	00000b93          	li	s7,0
   11a9c:	00000c93          	li	s9,0
   11aa0:	8b8ff06f          	j	10b58 <_vfprintf_r+0x4a4>
   11aa4:	00048793          	mv	a5,s1
   11aa8:	f9dff06f          	j	11a44 <_vfprintf_r+0x1390>
   11aac:	00000a13          	li	s4,0
   11ab0:	1b010d93          	addi	s11,sp,432
   11ab4:	40047a93          	andi	s5,s0,1024
   11ab8:	00900b93          	li	s7,9
   11abc:	00a00613          	li	a2,10
   11ac0:	00000693          	li	a3,0
   11ac4:	000c8513          	mv	a0,s9
   11ac8:	000c0593          	mv	a1,s8
   11acc:	7c8110ef          	jal	ra,23294 <__umoddi3>
   11ad0:	03050513          	addi	a0,a0,48
   11ad4:	fead8fa3          	sb	a0,-1(s11)
   11ad8:	fffd8493          	addi	s1,s11,-1
   11adc:	001a0a13          	addi	s4,s4,1
   11ae0:	040a8a63          	beqz	s5,11b34 <_vfprintf_r+0x1480>
   11ae4:	01412783          	lw	a5,20(sp)
   11ae8:	0007c783          	lbu	a5,0(a5)
   11aec:	04fa1463          	bne	s4,a5,11b34 <_vfprintf_r+0x1480>
   11af0:	0ff00793          	li	a5,255
   11af4:	04fa0063          	beq	s4,a5,11b34 <_vfprintf_r+0x1480>
   11af8:	000c1463          	bnez	s8,11b00 <_vfprintf_r+0x144c>
   11afc:	039bfc63          	bleu	s9,s7,11b34 <_vfprintf_r+0x1480>
   11b00:	03412783          	lw	a5,52(sp)
   11b04:	03c12583          	lw	a1,60(sp)
   11b08:	00000a13          	li	s4,0
   11b0c:	40f484b3          	sub	s1,s1,a5
   11b10:	00078613          	mv	a2,a5
   11b14:	00048513          	mv	a0,s1
   11b18:	319070ef          	jal	ra,19630 <strncpy>
   11b1c:	01412783          	lw	a5,20(sp)
   11b20:	0017c783          	lbu	a5,1(a5)
   11b24:	00078863          	beqz	a5,11b34 <_vfprintf_r+0x1480>
   11b28:	01412783          	lw	a5,20(sp)
   11b2c:	00178793          	addi	a5,a5,1
   11b30:	00f12a23          	sw	a5,20(sp)
   11b34:	000c8513          	mv	a0,s9
   11b38:	000c0593          	mv	a1,s8
   11b3c:	00a00613          	li	a2,10
   11b40:	00000693          	li	a3,0
   11b44:	174110ef          	jal	ra,22cb8 <__udivdi3>
   11b48:	00058c13          	mv	s8,a1
   11b4c:	00a5e5b3          	or	a1,a1,a0
   11b50:	00050c93          	mv	s9,a0
   11b54:	f20588e3          	beqz	a1,11a84 <_vfprintf_r+0x13d0>
   11b58:	00048d93          	mv	s11,s1
   11b5c:	f61ff06f          	j	11abc <_vfprintf_r+0x1408>
   11b60:	1b010493          	addi	s1,sp,432
   11b64:	04412703          	lw	a4,68(sp)
   11b68:	00fcf793          	andi	a5,s9,15
   11b6c:	fff48493          	addi	s1,s1,-1
   11b70:	00f707b3          	add	a5,a4,a5
   11b74:	0007c783          	lbu	a5,0(a5)
   11b78:	004cdc93          	srli	s9,s9,0x4
   11b7c:	00f48023          	sb	a5,0(s1)
   11b80:	01cc1793          	slli	a5,s8,0x1c
   11b84:	0197ecb3          	or	s9,a5,s9
   11b88:	004c5c13          	srli	s8,s8,0x4
   11b8c:	018ce7b3          	or	a5,s9,s8
   11b90:	fc079ae3          	bnez	a5,11b64 <_vfprintf_r+0x14b0>
   11b94:	ef1ff06f          	j	11a84 <_vfprintf_r+0x13d0>
   11b98:	1b010493          	addi	s1,sp,432
   11b9c:	ee0794e3          	bnez	a5,11a84 <_vfprintf_r+0x13d0>
   11ba0:	00177713          	andi	a4,a4,1
   11ba4:	ee0700e3          	beqz	a4,11a84 <_vfprintf_r+0x13d0>
   11ba8:	03000793          	li	a5,48
   11bac:	1af107a3          	sb	a5,431(sp)
   11bb0:	a98ff06f          	j	10e48 <_vfprintf_r+0x794>
   11bb4:	00c12783          	lw	a5,12(sp)
   11bb8:	2e078ce3          	beqz	a5,126b0 <_vfprintf_r+0x1ffc>
   11bbc:	00c14783          	lbu	a5,12(sp)
   11bc0:	0c0103a3          	sb	zero,199(sp)
   11bc4:	01812e23          	sw	s8,28(sp)
   11bc8:	14f10623          	sb	a5,332(sp)
   11bcc:	f71fe06f          	j	10b3c <_vfprintf_r+0x488>
   11bd0:	01060613          	addi	a2,a2,16
   11bd4:	01dd2223          	sw	t4,4(s10)
   11bd8:	0ec12623          	sw	a2,236(sp)
   11bdc:	0ed12423          	sw	a3,232(sp)
   11be0:	02df5e63          	ble	a3,t5,11c1c <_vfprintf_r+0x1568>
   11be4:	0e410613          	addi	a2,sp,228
   11be8:	00090593          	mv	a1,s2
   11bec:	00098513          	mv	a0,s3
   11bf0:	05e12c23          	sw	t5,88(sp)
   11bf4:	05c12a23          	sw	t3,84(sp)
   11bf8:	05d12823          	sw	t4,80(sp)
   11bfc:	04e12623          	sw	a4,76(sp)
   11c00:	68d0b0ef          	jal	ra,1da8c <__sprint_r>
   11c04:	240514e3          	bnez	a0,1264c <_vfprintf_r+0x1f98>
   11c08:	05812f03          	lw	t5,88(sp)
   11c0c:	05412e03          	lw	t3,84(sp)
   11c10:	05012e83          	lw	t4,80(sp)
   11c14:	04c12703          	lw	a4,76(sp)
   11c18:	10c10593          	addi	a1,sp,268
   11c1c:	ff070713          	addi	a4,a4,-16
   11c20:	00058d13          	mv	s10,a1
   11c24:	f95fe06f          	j	10bb8 <_vfprintf_r+0x504>
   11c28:	01812583          	lw	a1,24(sp)
   11c2c:	01068693          	addi	a3,a3,16
   11c30:	00fd2223          	sw	a5,4(s10)
   11c34:	00bd2023          	sw	a1,0(s10)
   11c38:	0ed12623          	sw	a3,236(sp)
   11c3c:	0ee12423          	sw	a4,232(sp)
   11c40:	02ee5663          	ble	a4,t3,11c6c <_vfprintf_r+0x15b8>
   11c44:	0e410613          	addi	a2,sp,228
   11c48:	00090593          	mv	a1,s2
   11c4c:	00098513          	mv	a0,s3
   11c50:	05c12623          	sw	t3,76(sp)
   11c54:	04f12423          	sw	a5,72(sp)
   11c58:	6350b0ef          	jal	ra,1da8c <__sprint_r>
   11c5c:	1e0518e3          	bnez	a0,1264c <_vfprintf_r+0x1f98>
   11c60:	04c12e03          	lw	t3,76(sp)
   11c64:	04812783          	lw	a5,72(sp)
   11c68:	10c10613          	addi	a2,sp,268
   11c6c:	ff0d8d93          	addi	s11,s11,-16
   11c70:	00060d13          	mv	s10,a2
   11c74:	868ff06f          	j	10cdc <_vfprintf_r+0x628>
   11c78:	01068693          	addi	a3,a3,16
   11c7c:	01bd2223          	sw	s11,4(s10)
   11c80:	0ed12623          	sw	a3,236(sp)
   11c84:	0ee12423          	sw	a4,232(sp)
   11c88:	02e85263          	ble	a4,a6,11cac <_vfprintf_r+0x15f8>
   11c8c:	0e410613          	addi	a2,sp,228
   11c90:	00090593          	mv	a1,s2
   11c94:	00098513          	mv	a0,s3
   11c98:	05012423          	sw	a6,72(sp)
   11c9c:	5f10b0ef          	jal	ra,1da8c <__sprint_r>
   11ca0:	1a0516e3          	bnez	a0,1264c <_vfprintf_r+0x1f98>
   11ca4:	04812803          	lw	a6,72(sp)
   11ca8:	10c10613          	addi	a2,sp,268
   11cac:	ff0a8a93          	addi	s5,s5,-16
   11cb0:	00060d13          	mv	s10,a2
   11cb4:	88cff06f          	j	10d40 <_vfprintf_r+0x68c>
   11cb8:	00c12783          	lw	a5,12(sp)
   11cbc:	06500713          	li	a4,101
   11cc0:	72f75463          	ble	a5,a4,123e8 <_vfprintf_r+0x1d34>
   11cc4:	0f012703          	lw	a4,240(sp)
   11cc8:	0a010593          	addi	a1,sp,160
   11ccc:	0b010513          	addi	a0,sp,176
   11cd0:	0ae12823          	sw	a4,176(sp)
   11cd4:	0f412703          	lw	a4,244(sp)
   11cd8:	0a012023          	sw	zero,160(sp)
   11cdc:	0a012223          	sw	zero,164(sp)
   11ce0:	0ae12a23          	sw	a4,180(sp)
   11ce4:	0f812703          	lw	a4,248(sp)
   11ce8:	0a012423          	sw	zero,168(sp)
   11cec:	0a012623          	sw	zero,172(sp)
   11cf0:	0ae12c23          	sw	a4,184(sp)
   11cf4:	0fc12703          	lw	a4,252(sp)
   11cf8:	0ae12e23          	sw	a4,188(sp)
   11cfc:	6ed130ef          	jal	ra,25be8 <__eqtf2>
   11d00:	12051a63          	bnez	a0,11e34 <_vfprintf_r+0x1780>
   11d04:	000297b7          	lui	a5,0x29
   11d08:	7c878793          	addi	a5,a5,1992 # 297c8 <zeroes.4377+0x80>
   11d0c:	00fd2023          	sw	a5,0(s10)
   11d10:	00100793          	li	a5,1
   11d14:	00fd2223          	sw	a5,4(s10)
   11d18:	0e812783          	lw	a5,232(sp)
   11d1c:	001d8d93          	addi	s11,s11,1
   11d20:	0fb12623          	sw	s11,236(sp)
   11d24:	00178793          	addi	a5,a5,1
   11d28:	0ef12423          	sw	a5,232(sp)
   11d2c:	00700713          	li	a4,7
   11d30:	008d0d13          	addi	s10,s10,8
   11d34:	00f75e63          	ble	a5,a4,11d50 <_vfprintf_r+0x169c>
   11d38:	0e410613          	addi	a2,sp,228
   11d3c:	00090593          	mv	a1,s2
   11d40:	00098513          	mv	a0,s3
   11d44:	5490b0ef          	jal	ra,1da8c <__sprint_r>
   11d48:	100512e3          	bnez	a0,1264c <_vfprintf_r+0x1f98>
   11d4c:	10c10d13          	addi	s10,sp,268
   11d50:	0cc12783          	lw	a5,204(sp)
   11d54:	0147c663          	blt	a5,s4,11d60 <_vfprintf_r+0x16ac>
   11d58:	00147793          	andi	a5,s0,1
   11d5c:	22078263          	beqz	a5,11f80 <_vfprintf_r+0x18cc>
   11d60:	03812783          	lw	a5,56(sp)
   11d64:	02412703          	lw	a4,36(sp)
   11d68:	008d0d13          	addi	s10,s10,8
   11d6c:	fefd2c23          	sw	a5,-8(s10)
   11d70:	02412783          	lw	a5,36(sp)
   11d74:	fefd2e23          	sw	a5,-4(s10)
   11d78:	0ec12783          	lw	a5,236(sp)
   11d7c:	00e787b3          	add	a5,a5,a4
   11d80:	0ef12623          	sw	a5,236(sp)
   11d84:	0e812783          	lw	a5,232(sp)
   11d88:	00700713          	li	a4,7
   11d8c:	00178793          	addi	a5,a5,1
   11d90:	0ef12423          	sw	a5,232(sp)
   11d94:	00f75e63          	ble	a5,a4,11db0 <_vfprintf_r+0x16fc>
   11d98:	0e410613          	addi	a2,sp,228
   11d9c:	00090593          	mv	a1,s2
   11da0:	00098513          	mv	a0,s3
   11da4:	4e90b0ef          	jal	ra,1da8c <__sprint_r>
   11da8:	0a0512e3          	bnez	a0,1264c <_vfprintf_r+0x1f98>
   11dac:	10c10d13          	addi	s10,sp,268
   11db0:	fffa0493          	addi	s1,s4,-1
   11db4:	1c905663          	blez	s1,11f80 <_vfprintf_r+0x18cc>
   11db8:	01000a93          	li	s5,16
   11dbc:	00700b93          	li	s7,7
   11dc0:	01812603          	lw	a2,24(sp)
   11dc4:	0e812783          	lw	a5,232(sp)
   11dc8:	0ec12703          	lw	a4,236(sp)
   11dcc:	00cd2023          	sw	a2,0(s10)
   11dd0:	00178793          	addi	a5,a5,1
   11dd4:	008d0693          	addi	a3,s10,8
   11dd8:	029ac263          	blt	s5,s1,11dfc <_vfprintf_r+0x1748>
   11ddc:	009d2223          	sw	s1,4(s10)
   11de0:	00e484b3          	add	s1,s1,a4
   11de4:	0e912623          	sw	s1,236(sp)
   11de8:	0ef12423          	sw	a5,232(sp)
   11dec:	00700713          	li	a4,7
   11df0:	00068d13          	mv	s10,a3
   11df4:	18f75663          	ble	a5,a4,11f80 <_vfprintf_r+0x18cc>
   11df8:	fd5fe06f          	j	10dcc <_vfprintf_r+0x718>
   11dfc:	01070713          	addi	a4,a4,16
   11e00:	015d2223          	sw	s5,4(s10)
   11e04:	0ee12623          	sw	a4,236(sp)
   11e08:	0ef12423          	sw	a5,232(sp)
   11e0c:	00fbde63          	ble	a5,s7,11e28 <_vfprintf_r+0x1774>
   11e10:	0e410613          	addi	a2,sp,228
   11e14:	00090593          	mv	a1,s2
   11e18:	00098513          	mv	a0,s3
   11e1c:	4710b0ef          	jal	ra,1da8c <__sprint_r>
   11e20:	020516e3          	bnez	a0,1264c <_vfprintf_r+0x1f98>
   11e24:	10c10693          	addi	a3,sp,268
   11e28:	ff048493          	addi	s1,s1,-16
   11e2c:	00068d13          	mv	s10,a3
   11e30:	f91ff06f          	j	11dc0 <_vfprintf_r+0x170c>
   11e34:	0cc12703          	lw	a4,204(sp)
   11e38:	1ce04a63          	bgtz	a4,1200c <_vfprintf_r+0x1958>
   11e3c:	000297b7          	lui	a5,0x29
   11e40:	7c878793          	addi	a5,a5,1992 # 297c8 <zeroes.4377+0x80>
   11e44:	00fd2023          	sw	a5,0(s10)
   11e48:	00100793          	li	a5,1
   11e4c:	00fd2223          	sw	a5,4(s10)
   11e50:	0e812783          	lw	a5,232(sp)
   11e54:	001d8d93          	addi	s11,s11,1
   11e58:	0fb12623          	sw	s11,236(sp)
   11e5c:	00178793          	addi	a5,a5,1
   11e60:	0ef12423          	sw	a5,232(sp)
   11e64:	00700713          	li	a4,7
   11e68:	008d0d13          	addi	s10,s10,8
   11e6c:	00f75e63          	ble	a5,a4,11e88 <_vfprintf_r+0x17d4>
   11e70:	0e410613          	addi	a2,sp,228
   11e74:	00090593          	mv	a1,s2
   11e78:	00098513          	mv	a0,s3
   11e7c:	4110b0ef          	jal	ra,1da8c <__sprint_r>
   11e80:	7c051663          	bnez	a0,1264c <_vfprintf_r+0x1f98>
   11e84:	10c10d13          	addi	s10,sp,268
   11e88:	0cc12783          	lw	a5,204(sp)
   11e8c:	00079863          	bnez	a5,11e9c <_vfprintf_r+0x17e8>
   11e90:	000a1663          	bnez	s4,11e9c <_vfprintf_r+0x17e8>
   11e94:	00147793          	andi	a5,s0,1
   11e98:	0e078463          	beqz	a5,11f80 <_vfprintf_r+0x18cc>
   11e9c:	03812783          	lw	a5,56(sp)
   11ea0:	02412703          	lw	a4,36(sp)
   11ea4:	008d0893          	addi	a7,s10,8
   11ea8:	00fd2023          	sw	a5,0(s10)
   11eac:	02412783          	lw	a5,36(sp)
   11eb0:	00fd2223          	sw	a5,4(s10)
   11eb4:	0ec12783          	lw	a5,236(sp)
   11eb8:	00e787b3          	add	a5,a5,a4
   11ebc:	0ef12623          	sw	a5,236(sp)
   11ec0:	0e812783          	lw	a5,232(sp)
   11ec4:	00700713          	li	a4,7
   11ec8:	00178793          	addi	a5,a5,1
   11ecc:	0ef12423          	sw	a5,232(sp)
   11ed0:	00f75e63          	ble	a5,a4,11eec <_vfprintf_r+0x1838>
   11ed4:	0e410613          	addi	a2,sp,228
   11ed8:	00090593          	mv	a1,s2
   11edc:	00098513          	mv	a0,s3
   11ee0:	3ad0b0ef          	jal	ra,1da8c <__sprint_r>
   11ee4:	76051463          	bnez	a0,1264c <_vfprintf_r+0x1f98>
   11ee8:	10c10893          	addi	a7,sp,268
   11eec:	0cc12a83          	lw	s5,204(sp)
   11ef0:	060ad063          	bgez	s5,11f50 <_vfprintf_r+0x189c>
   11ef4:	41500ab3          	neg	s5,s5
   11ef8:	00088713          	mv	a4,a7
   11efc:	01000b93          	li	s7,16
   11f00:	00700c13          	li	s8,7
   11f04:	01812603          	lw	a2,24(sp)
   11f08:	0e812783          	lw	a5,232(sp)
   11f0c:	0ec12683          	lw	a3,236(sp)
   11f10:	00c72023          	sw	a2,0(a4)
   11f14:	00178793          	addi	a5,a5,1
   11f18:	00888893          	addi	a7,a7,8
   11f1c:	0b5bcc63          	blt	s7,s5,11fd4 <_vfprintf_r+0x1920>
   11f20:	01572223          	sw	s5,4(a4)
   11f24:	00da8ab3          	add	s5,s5,a3
   11f28:	0f512623          	sw	s5,236(sp)
   11f2c:	0ef12423          	sw	a5,232(sp)
   11f30:	00700713          	li	a4,7
   11f34:	00f75e63          	ble	a5,a4,11f50 <_vfprintf_r+0x189c>
   11f38:	0e410613          	addi	a2,sp,228
   11f3c:	00090593          	mv	a1,s2
   11f40:	00098513          	mv	a0,s3
   11f44:	3490b0ef          	jal	ra,1da8c <__sprint_r>
   11f48:	70051263          	bnez	a0,1264c <_vfprintf_r+0x1f98>
   11f4c:	10c10893          	addi	a7,sp,268
   11f50:	0ec12783          	lw	a5,236(sp)
   11f54:	0098a023          	sw	s1,0(a7)
   11f58:	0148a223          	sw	s4,4(a7)
   11f5c:	014787b3          	add	a5,a5,s4
   11f60:	0ef12623          	sw	a5,236(sp)
   11f64:	0e812783          	lw	a5,232(sp)
   11f68:	00700713          	li	a4,7
   11f6c:	00888d13          	addi	s10,a7,8
   11f70:	00178793          	addi	a5,a5,1
   11f74:	0ef12423          	sw	a5,232(sp)
   11f78:	00f75463          	ble	a5,a4,11f80 <_vfprintf_r+0x18cc>
   11f7c:	e51fe06f          	j	10dcc <_vfprintf_r+0x718>
   11f80:	00447413          	andi	s0,s0,4
   11f84:	66041463          	bnez	s0,125ec <_vfprintf_r+0x1f38>
   11f88:	02c12d03          	lw	s10,44(sp)
   11f8c:	03012783          	lw	a5,48(sp)
   11f90:	00fd5463          	ble	a5,s10,11f98 <_vfprintf_r+0x18e4>
   11f94:	00078d13          	mv	s10,a5
   11f98:	02812783          	lw	a5,40(sp)
   11f9c:	01a787b3          	add	a5,a5,s10
   11fa0:	02f12423          	sw	a5,40(sp)
   11fa4:	0ec12783          	lw	a5,236(sp)
   11fa8:	00078c63          	beqz	a5,11fc0 <_vfprintf_r+0x190c>
   11fac:	0e410613          	addi	a2,sp,228
   11fb0:	00090593          	mv	a1,s2
   11fb4:	00098513          	mv	a0,s3
   11fb8:	2d50b0ef          	jal	ra,1da8c <__sprint_r>
   11fbc:	68051863          	bnez	a0,1264c <_vfprintf_r+0x1f98>
   11fc0:	01012783          	lw	a5,16(sp)
   11fc4:	0e012423          	sw	zero,232(sp)
   11fc8:	6c079c63          	bnez	a5,126a0 <_vfprintf_r+0x1fec>
   11fcc:	10c10d13          	addi	s10,sp,268
   11fd0:	841ff06f          	j	11810 <_vfprintf_r+0x115c>
   11fd4:	01068693          	addi	a3,a3,16
   11fd8:	01772223          	sw	s7,4(a4)
   11fdc:	0ed12623          	sw	a3,236(sp)
   11fe0:	0ef12423          	sw	a5,232(sp)
   11fe4:	00fc5e63          	ble	a5,s8,12000 <_vfprintf_r+0x194c>
   11fe8:	0e410613          	addi	a2,sp,228
   11fec:	00090593          	mv	a1,s2
   11ff0:	00098513          	mv	a0,s3
   11ff4:	2990b0ef          	jal	ra,1da8c <__sprint_r>
   11ff8:	64051a63          	bnez	a0,1264c <_vfprintf_r+0x1f98>
   11ffc:	10c10893          	addi	a7,sp,268
   12000:	ff0a8a93          	addi	s5,s5,-16
   12004:	00088713          	mv	a4,a7
   12008:	efdff06f          	j	11f04 <_vfprintf_r+0x1850>
   1200c:	000c8a93          	mv	s5,s9
   12010:	019a5463          	ble	s9,s4,12018 <_vfprintf_r+0x1964>
   12014:	000a0a93          	mv	s5,s4
   12018:	05505263          	blez	s5,1205c <_vfprintf_r+0x19a8>
   1201c:	0e812703          	lw	a4,232(sp)
   12020:	01ba8db3          	add	s11,s5,s11
   12024:	009d2023          	sw	s1,0(s10)
   12028:	00170713          	addi	a4,a4,1
   1202c:	015d2223          	sw	s5,4(s10)
   12030:	0fb12623          	sw	s11,236(sp)
   12034:	0ee12423          	sw	a4,232(sp)
   12038:	00700693          	li	a3,7
   1203c:	008d0d13          	addi	s10,s10,8
   12040:	00e6de63          	ble	a4,a3,1205c <_vfprintf_r+0x19a8>
   12044:	0e410613          	addi	a2,sp,228
   12048:	00090593          	mv	a1,s2
   1204c:	00098513          	mv	a0,s3
   12050:	23d0b0ef          	jal	ra,1da8c <__sprint_r>
   12054:	5e051c63          	bnez	a0,1264c <_vfprintf_r+0x1f98>
   12058:	10c10d13          	addi	s10,sp,268
   1205c:	000ad463          	bgez	s5,12064 <_vfprintf_r+0x19b0>
   12060:	00000a93          	li	s5,0
   12064:	415c8ab3          	sub	s5,s9,s5
   12068:	05505e63          	blez	s5,120c4 <_vfprintf_r+0x1a10>
   1206c:	01000b13          	li	s6,16
   12070:	00700d93          	li	s11,7
   12074:	01812783          	lw	a5,24(sp)
   12078:	0e812703          	lw	a4,232(sp)
   1207c:	0ec12683          	lw	a3,236(sp)
   12080:	00fd2023          	sw	a5,0(s10)
   12084:	00170713          	addi	a4,a4,1
   12088:	008d0613          	addi	a2,s10,8
   1208c:	195b4c63          	blt	s6,s5,12224 <_vfprintf_r+0x1b70>
   12090:	015d2223          	sw	s5,4(s10)
   12094:	00da8ab3          	add	s5,s5,a3
   12098:	0f512623          	sw	s5,236(sp)
   1209c:	0ee12423          	sw	a4,232(sp)
   120a0:	00700693          	li	a3,7
   120a4:	00060d13          	mv	s10,a2
   120a8:	00e6de63          	ble	a4,a3,120c4 <_vfprintf_r+0x1a10>
   120ac:	0e410613          	addi	a2,sp,228
   120b0:	00090593          	mv	a1,s2
   120b4:	00098513          	mv	a0,s3
   120b8:	1d50b0ef          	jal	ra,1da8c <__sprint_r>
   120bc:	58051863          	bnez	a0,1264c <_vfprintf_r+0x1f98>
   120c0:	10c10d13          	addi	s10,sp,268
   120c4:	40047793          	andi	a5,s0,1024
   120c8:	01948ab3          	add	s5,s1,s9
   120cc:	02078063          	beqz	a5,120ec <_vfprintf_r+0x1a38>
   120d0:	00700b13          	li	s6,7
   120d4:	01448db3          	add	s11,s1,s4
   120d8:	180b9263          	bnez	s7,1225c <_vfprintf_r+0x1ba8>
   120dc:	180c1263          	bnez	s8,12260 <_vfprintf_r+0x1bac>
   120e0:	014487b3          	add	a5,s1,s4
   120e4:	0157f463          	bleu	s5,a5,120ec <_vfprintf_r+0x1a38>
   120e8:	00078a93          	mv	s5,a5
   120ec:	0cc12783          	lw	a5,204(sp)
   120f0:	0147c663          	blt	a5,s4,120fc <_vfprintf_r+0x1a48>
   120f4:	00147793          	andi	a5,s0,1
   120f8:	04078a63          	beqz	a5,1214c <_vfprintf_r+0x1a98>
   120fc:	03812783          	lw	a5,56(sp)
   12100:	02412703          	lw	a4,36(sp)
   12104:	008d0d13          	addi	s10,s10,8
   12108:	fefd2c23          	sw	a5,-8(s10)
   1210c:	02412783          	lw	a5,36(sp)
   12110:	fefd2e23          	sw	a5,-4(s10)
   12114:	0ec12783          	lw	a5,236(sp)
   12118:	00e787b3          	add	a5,a5,a4
   1211c:	0ef12623          	sw	a5,236(sp)
   12120:	0e812783          	lw	a5,232(sp)
   12124:	00700713          	li	a4,7
   12128:	00178793          	addi	a5,a5,1
   1212c:	0ef12423          	sw	a5,232(sp)
   12130:	00f75e63          	ble	a5,a4,1214c <_vfprintf_r+0x1a98>
   12134:	0e410613          	addi	a2,sp,228
   12138:	00090593          	mv	a1,s2
   1213c:	00098513          	mv	a0,s3
   12140:	14d0b0ef          	jal	ra,1da8c <__sprint_r>
   12144:	50051463          	bnez	a0,1264c <_vfprintf_r+0x1f98>
   12148:	10c10d13          	addi	s10,sp,268
   1214c:	014484b3          	add	s1,s1,s4
   12150:	415487b3          	sub	a5,s1,s5
   12154:	0cc12483          	lw	s1,204(sp)
   12158:	409a04b3          	sub	s1,s4,s1
   1215c:	0097d463          	ble	s1,a5,12164 <_vfprintf_r+0x1ab0>
   12160:	00078493          	mv	s1,a5
   12164:	04905463          	blez	s1,121ac <_vfprintf_r+0x1af8>
   12168:	0ec12783          	lw	a5,236(sp)
   1216c:	015d2023          	sw	s5,0(s10)
   12170:	009d2223          	sw	s1,4(s10)
   12174:	00f487b3          	add	a5,s1,a5
   12178:	0ef12623          	sw	a5,236(sp)
   1217c:	0e812783          	lw	a5,232(sp)
   12180:	00700713          	li	a4,7
   12184:	008d0d13          	addi	s10,s10,8
   12188:	00178793          	addi	a5,a5,1
   1218c:	0ef12423          	sw	a5,232(sp)
   12190:	00f75e63          	ble	a5,a4,121ac <_vfprintf_r+0x1af8>
   12194:	0e410613          	addi	a2,sp,228
   12198:	00090593          	mv	a1,s2
   1219c:	00098513          	mv	a0,s3
   121a0:	0ed0b0ef          	jal	ra,1da8c <__sprint_r>
   121a4:	4a051463          	bnez	a0,1264c <_vfprintf_r+0x1f98>
   121a8:	10c10d13          	addi	s10,sp,268
   121ac:	00048793          	mv	a5,s1
   121b0:	0004d463          	bgez	s1,121b8 <_vfprintf_r+0x1b04>
   121b4:	00000793          	li	a5,0
   121b8:	0cc12483          	lw	s1,204(sp)
   121bc:	409a04b3          	sub	s1,s4,s1
   121c0:	40f484b3          	sub	s1,s1,a5
   121c4:	da905ee3          	blez	s1,11f80 <_vfprintf_r+0x18cc>
   121c8:	01000a93          	li	s5,16
   121cc:	00700b93          	li	s7,7
   121d0:	01812603          	lw	a2,24(sp)
   121d4:	0e812783          	lw	a5,232(sp)
   121d8:	0ec12703          	lw	a4,236(sp)
   121dc:	00cd2023          	sw	a2,0(s10)
   121e0:	00178793          	addi	a5,a5,1
   121e4:	008d0693          	addi	a3,s10,8
   121e8:	be9adae3          	ble	s1,s5,11ddc <_vfprintf_r+0x1728>
   121ec:	01070713          	addi	a4,a4,16
   121f0:	015d2223          	sw	s5,4(s10)
   121f4:	0ee12623          	sw	a4,236(sp)
   121f8:	0ef12423          	sw	a5,232(sp)
   121fc:	00fbde63          	ble	a5,s7,12218 <_vfprintf_r+0x1b64>
   12200:	0e410613          	addi	a2,sp,228
   12204:	00090593          	mv	a1,s2
   12208:	00098513          	mv	a0,s3
   1220c:	0810b0ef          	jal	ra,1da8c <__sprint_r>
   12210:	42051e63          	bnez	a0,1264c <_vfprintf_r+0x1f98>
   12214:	10c10693          	addi	a3,sp,268
   12218:	ff048493          	addi	s1,s1,-16
   1221c:	00068d13          	mv	s10,a3
   12220:	fb1ff06f          	j	121d0 <_vfprintf_r+0x1b1c>
   12224:	01068693          	addi	a3,a3,16
   12228:	016d2223          	sw	s6,4(s10)
   1222c:	0ed12623          	sw	a3,236(sp)
   12230:	0ee12423          	sw	a4,232(sp)
   12234:	00edde63          	ble	a4,s11,12250 <_vfprintf_r+0x1b9c>
   12238:	0e410613          	addi	a2,sp,228
   1223c:	00090593          	mv	a1,s2
   12240:	00098513          	mv	a0,s3
   12244:	0490b0ef          	jal	ra,1da8c <__sprint_r>
   12248:	40051263          	bnez	a0,1264c <_vfprintf_r+0x1f98>
   1224c:	10c10613          	addi	a2,sp,268
   12250:	ff0a8a93          	addi	s5,s5,-16
   12254:	00060d13          	mv	s10,a2
   12258:	e1dff06f          	j	12074 <_vfprintf_r+0x19c0>
   1225c:	0e0c0263          	beqz	s8,12340 <_vfprintf_r+0x1c8c>
   12260:	fffc0c13          	addi	s8,s8,-1
   12264:	03c12783          	lw	a5,60(sp)
   12268:	03412703          	lw	a4,52(sp)
   1226c:	008d0d13          	addi	s10,s10,8
   12270:	fefd2c23          	sw	a5,-8(s10)
   12274:	03412783          	lw	a5,52(sp)
   12278:	fefd2e23          	sw	a5,-4(s10)
   1227c:	0ec12783          	lw	a5,236(sp)
   12280:	00e787b3          	add	a5,a5,a4
   12284:	0ef12623          	sw	a5,236(sp)
   12288:	0e812783          	lw	a5,232(sp)
   1228c:	00178793          	addi	a5,a5,1
   12290:	0ef12423          	sw	a5,232(sp)
   12294:	00fb5e63          	ble	a5,s6,122b0 <_vfprintf_r+0x1bfc>
   12298:	0e410613          	addi	a2,sp,228
   1229c:	00090593          	mv	a1,s2
   122a0:	00098513          	mv	a0,s3
   122a4:	7e80b0ef          	jal	ra,1da8c <__sprint_r>
   122a8:	3a051263          	bnez	a0,1264c <_vfprintf_r+0x1f98>
   122ac:	10c10d13          	addi	s10,sp,268
   122b0:	01412783          	lw	a5,20(sp)
   122b4:	415d8733          	sub	a4,s11,s5
   122b8:	0007c783          	lbu	a5,0(a5)
   122bc:	00f75463          	ble	a5,a4,122c4 <_vfprintf_r+0x1c10>
   122c0:	00070793          	mv	a5,a4
   122c4:	04f05663          	blez	a5,12310 <_vfprintf_r+0x1c5c>
   122c8:	0ec12703          	lw	a4,236(sp)
   122cc:	015d2023          	sw	s5,0(s10)
   122d0:	00fd2223          	sw	a5,4(s10)
   122d4:	00e78733          	add	a4,a5,a4
   122d8:	0ee12623          	sw	a4,236(sp)
   122dc:	0e812703          	lw	a4,232(sp)
   122e0:	008d0d13          	addi	s10,s10,8
   122e4:	00170713          	addi	a4,a4,1
   122e8:	0ee12423          	sw	a4,232(sp)
   122ec:	02eb5263          	ble	a4,s6,12310 <_vfprintf_r+0x1c5c>
   122f0:	0e410613          	addi	a2,sp,228
   122f4:	00090593          	mv	a1,s2
   122f8:	00098513          	mv	a0,s3
   122fc:	00f12623          	sw	a5,12(sp)
   12300:	78c0b0ef          	jal	ra,1da8c <__sprint_r>
   12304:	34051463          	bnez	a0,1264c <_vfprintf_r+0x1f98>
   12308:	00c12783          	lw	a5,12(sp)
   1230c:	10c10d13          	addi	s10,sp,268
   12310:	00078713          	mv	a4,a5
   12314:	0007d463          	bgez	a5,1231c <_vfprintf_r+0x1c68>
   12318:	00000713          	li	a4,0
   1231c:	01412783          	lw	a5,20(sp)
   12320:	01000813          	li	a6,16
   12324:	0007c783          	lbu	a5,0(a5)
   12328:	40e787b3          	sub	a5,a5,a4
   1232c:	06f04663          	bgtz	a5,12398 <_vfprintf_r+0x1ce4>
   12330:	01412783          	lw	a5,20(sp)
   12334:	0007c783          	lbu	a5,0(a5)
   12338:	00fa8ab3          	add	s5,s5,a5
   1233c:	d9dff06f          	j	120d8 <_vfprintf_r+0x1a24>
   12340:	01412783          	lw	a5,20(sp)
   12344:	fffb8b93          	addi	s7,s7,-1
   12348:	fff78793          	addi	a5,a5,-1
   1234c:	00f12a23          	sw	a5,20(sp)
   12350:	f15ff06f          	j	12264 <_vfprintf_r+0x1bb0>
   12354:	01068693          	addi	a3,a3,16
   12358:	010d2223          	sw	a6,4(s10)
   1235c:	0ed12623          	sw	a3,236(sp)
   12360:	0ee12423          	sw	a4,232(sp)
   12364:	02eb5663          	ble	a4,s6,12390 <_vfprintf_r+0x1cdc>
   12368:	0e410613          	addi	a2,sp,228
   1236c:	00090593          	mv	a1,s2
   12370:	00098513          	mv	a0,s3
   12374:	05012423          	sw	a6,72(sp)
   12378:	00f12623          	sw	a5,12(sp)
   1237c:	7100b0ef          	jal	ra,1da8c <__sprint_r>
   12380:	2c051663          	bnez	a0,1264c <_vfprintf_r+0x1f98>
   12384:	04812803          	lw	a6,72(sp)
   12388:	00c12783          	lw	a5,12(sp)
   1238c:	10c10613          	addi	a2,sp,268
   12390:	ff078793          	addi	a5,a5,-16
   12394:	00060d13          	mv	s10,a2
   12398:	01812583          	lw	a1,24(sp)
   1239c:	0e812703          	lw	a4,232(sp)
   123a0:	0ec12683          	lw	a3,236(sp)
   123a4:	00bd2023          	sw	a1,0(s10)
   123a8:	00170713          	addi	a4,a4,1
   123ac:	008d0613          	addi	a2,s10,8
   123b0:	faf842e3          	blt	a6,a5,12354 <_vfprintf_r+0x1ca0>
   123b4:	00fd2223          	sw	a5,4(s10)
   123b8:	00d787b3          	add	a5,a5,a3
   123bc:	0ef12623          	sw	a5,236(sp)
   123c0:	0ee12423          	sw	a4,232(sp)
   123c4:	00060d13          	mv	s10,a2
   123c8:	f6eb54e3          	ble	a4,s6,12330 <_vfprintf_r+0x1c7c>
   123cc:	0e410613          	addi	a2,sp,228
   123d0:	00090593          	mv	a1,s2
   123d4:	00098513          	mv	a0,s3
   123d8:	6b40b0ef          	jal	ra,1da8c <__sprint_r>
   123dc:	26051863          	bnez	a0,1264c <_vfprintf_r+0x1f98>
   123e0:	10c10d13          	addi	s10,sp,268
   123e4:	f4dff06f          	j	12330 <_vfprintf_r+0x1c7c>
   123e8:	0e812783          	lw	a5,232(sp)
   123ec:	00100713          	li	a4,1
   123f0:	009d2023          	sw	s1,0(s10)
   123f4:	001d8d93          	addi	s11,s11,1
   123f8:	00178793          	addi	a5,a5,1
   123fc:	008d0b93          	addi	s7,s10,8
   12400:	01474663          	blt	a4,s4,1240c <_vfprintf_r+0x1d58>
   12404:	00147693          	andi	a3,s0,1
   12408:	1c068663          	beqz	a3,125d4 <_vfprintf_r+0x1f20>
   1240c:	00100713          	li	a4,1
   12410:	00ed2223          	sw	a4,4(s10)
   12414:	0fb12623          	sw	s11,236(sp)
   12418:	0ef12423          	sw	a5,232(sp)
   1241c:	00700713          	li	a4,7
   12420:	00f75e63          	ble	a5,a4,1243c <_vfprintf_r+0x1d88>
   12424:	0e410613          	addi	a2,sp,228
   12428:	00090593          	mv	a1,s2
   1242c:	00098513          	mv	a0,s3
   12430:	65c0b0ef          	jal	ra,1da8c <__sprint_r>
   12434:	20051c63          	bnez	a0,1264c <_vfprintf_r+0x1f98>
   12438:	10c10b93          	addi	s7,sp,268
   1243c:	03812783          	lw	a5,56(sp)
   12440:	02412703          	lw	a4,36(sp)
   12444:	008b8b93          	addi	s7,s7,8
   12448:	fefbac23          	sw	a5,-8(s7)
   1244c:	02412783          	lw	a5,36(sp)
   12450:	fefbae23          	sw	a5,-4(s7)
   12454:	0ec12783          	lw	a5,236(sp)
   12458:	00e787b3          	add	a5,a5,a4
   1245c:	0ef12623          	sw	a5,236(sp)
   12460:	0e812783          	lw	a5,232(sp)
   12464:	00700713          	li	a4,7
   12468:	00178793          	addi	a5,a5,1
   1246c:	0ef12423          	sw	a5,232(sp)
   12470:	00f75e63          	ble	a5,a4,1248c <_vfprintf_r+0x1dd8>
   12474:	0e410613          	addi	a2,sp,228
   12478:	00090593          	mv	a1,s2
   1247c:	00098513          	mv	a0,s3
   12480:	60c0b0ef          	jal	ra,1da8c <__sprint_r>
   12484:	1c051463          	bnez	a0,1264c <_vfprintf_r+0x1f98>
   12488:	10c10b93          	addi	s7,sp,268
   1248c:	0f012783          	lw	a5,240(sp)
   12490:	0a010593          	addi	a1,sp,160
   12494:	0b010513          	addi	a0,sp,176
   12498:	0af12823          	sw	a5,176(sp)
   1249c:	0f412783          	lw	a5,244(sp)
   124a0:	fffa0a93          	addi	s5,s4,-1
   124a4:	0a012023          	sw	zero,160(sp)
   124a8:	0af12a23          	sw	a5,180(sp)
   124ac:	0f812783          	lw	a5,248(sp)
   124b0:	0a012223          	sw	zero,164(sp)
   124b4:	0a012423          	sw	zero,168(sp)
   124b8:	0af12c23          	sw	a5,184(sp)
   124bc:	0fc12783          	lw	a5,252(sp)
   124c0:	0a012623          	sw	zero,172(sp)
   124c4:	0af12e23          	sw	a5,188(sp)
   124c8:	720130ef          	jal	ra,25be8 <__eqtf2>
   124cc:	08050663          	beqz	a0,12558 <_vfprintf_r+0x1ea4>
   124d0:	0ec12783          	lw	a5,236(sp)
   124d4:	0e812703          	lw	a4,232(sp)
   124d8:	00148493          	addi	s1,s1,1
   124dc:	fff78793          	addi	a5,a5,-1
   124e0:	014787b3          	add	a5,a5,s4
   124e4:	00170713          	addi	a4,a4,1
   124e8:	009ba023          	sw	s1,0(s7)
   124ec:	015ba223          	sw	s5,4(s7)
   124f0:	0ef12623          	sw	a5,236(sp)
   124f4:	0ee12423          	sw	a4,232(sp)
   124f8:	00700793          	li	a5,7
   124fc:	008b8b93          	addi	s7,s7,8
   12500:	00e7de63          	ble	a4,a5,1251c <_vfprintf_r+0x1e68>
   12504:	0e410613          	addi	a2,sp,228
   12508:	00090593          	mv	a1,s2
   1250c:	00098513          	mv	a0,s3
   12510:	57c0b0ef          	jal	ra,1da8c <__sprint_r>
   12514:	12051c63          	bnez	a0,1264c <_vfprintf_r+0x1f98>
   12518:	10c10b93          	addi	s7,sp,268
   1251c:	0d410793          	addi	a5,sp,212
   12520:	00fba023          	sw	a5,0(s7)
   12524:	04012783          	lw	a5,64(sp)
   12528:	04012703          	lw	a4,64(sp)
   1252c:	008b8d13          	addi	s10,s7,8
   12530:	00fba223          	sw	a5,4(s7)
   12534:	0ec12783          	lw	a5,236(sp)
   12538:	00e787b3          	add	a5,a5,a4
   1253c:	0ef12623          	sw	a5,236(sp)
   12540:	0e812783          	lw	a5,232(sp)
   12544:	00700713          	li	a4,7
   12548:	00178793          	addi	a5,a5,1
   1254c:	0ef12423          	sw	a5,232(sp)
   12550:	a2f758e3          	ble	a5,a4,11f80 <_vfprintf_r+0x18cc>
   12554:	879fe06f          	j	10dcc <_vfprintf_r+0x718>
   12558:	fd5052e3          	blez	s5,1251c <_vfprintf_r+0x1e68>
   1255c:	01000493          	li	s1,16
   12560:	00700c13          	li	s8,7
   12564:	01812603          	lw	a2,24(sp)
   12568:	0e812703          	lw	a4,232(sp)
   1256c:	0ec12783          	lw	a5,236(sp)
   12570:	00cba023          	sw	a2,0(s7)
   12574:	00170713          	addi	a4,a4,1
   12578:	008b8693          	addi	a3,s7,8
   1257c:	0354c063          	blt	s1,s5,1259c <_vfprintf_r+0x1ee8>
   12580:	00fa87b3          	add	a5,s5,a5
   12584:	015ba223          	sw	s5,4(s7)
   12588:	0ef12623          	sw	a5,236(sp)
   1258c:	0ee12423          	sw	a4,232(sp)
   12590:	00700793          	li	a5,7
   12594:	00068b93          	mv	s7,a3
   12598:	f69ff06f          	j	12500 <_vfprintf_r+0x1e4c>
   1259c:	01078793          	addi	a5,a5,16
   125a0:	009ba223          	sw	s1,4(s7)
   125a4:	0ef12623          	sw	a5,236(sp)
   125a8:	0ee12423          	sw	a4,232(sp)
   125ac:	00ec5e63          	ble	a4,s8,125c8 <_vfprintf_r+0x1f14>
   125b0:	0e410613          	addi	a2,sp,228
   125b4:	00090593          	mv	a1,s2
   125b8:	00098513          	mv	a0,s3
   125bc:	4d00b0ef          	jal	ra,1da8c <__sprint_r>
   125c0:	08051663          	bnez	a0,1264c <_vfprintf_r+0x1f98>
   125c4:	10c10693          	addi	a3,sp,268
   125c8:	ff0a8a93          	addi	s5,s5,-16
   125cc:	00068b93          	mv	s7,a3
   125d0:	f95ff06f          	j	12564 <_vfprintf_r+0x1eb0>
   125d4:	00ed2223          	sw	a4,4(s10)
   125d8:	0fb12623          	sw	s11,236(sp)
   125dc:	0ef12423          	sw	a5,232(sp)
   125e0:	00700713          	li	a4,7
   125e4:	f2f75ce3          	ble	a5,a4,1251c <_vfprintf_r+0x1e68>
   125e8:	f1dff06f          	j	12504 <_vfprintf_r+0x1e50>
   125ec:	02c12783          	lw	a5,44(sp)
   125f0:	03012703          	lw	a4,48(sp)
   125f4:	40e78433          	sub	s0,a5,a4
   125f8:	988058e3          	blez	s0,11f88 <_vfprintf_r+0x18d4>
   125fc:	000294b7          	lui	s1,0x29
   12600:	01000a93          	li	s5,16
   12604:	73848493          	addi	s1,s1,1848 # 29738 <blanks.4376>
   12608:	00700b93          	li	s7,7
   1260c:	0e812783          	lw	a5,232(sp)
   12610:	009d2023          	sw	s1,0(s10)
   12614:	0ec12703          	lw	a4,236(sp)
   12618:	00178793          	addi	a5,a5,1
   1261c:	048ac663          	blt	s5,s0,12668 <_vfprintf_r+0x1fb4>
   12620:	008d2223          	sw	s0,4(s10)
   12624:	00e40433          	add	s0,s0,a4
   12628:	0e812623          	sw	s0,236(sp)
   1262c:	0ef12423          	sw	a5,232(sp)
   12630:	00700713          	li	a4,7
   12634:	94f75ae3          	ble	a5,a4,11f88 <_vfprintf_r+0x18d4>
   12638:	0e410613          	addi	a2,sp,228
   1263c:	00090593          	mv	a1,s2
   12640:	00098513          	mv	a0,s3
   12644:	4480b0ef          	jal	ra,1da8c <__sprint_r>
   12648:	940500e3          	beqz	a0,11f88 <_vfprintf_r+0x18d4>
   1264c:	01012783          	lw	a5,16(sp)
   12650:	00079463          	bnez	a5,12658 <_vfprintf_r+0x1fa4>
   12654:	9d1fe06f          	j	11024 <_vfprintf_r+0x970>
   12658:	00078593          	mv	a1,a5
   1265c:	00098513          	mv	a0,s3
   12660:	7b9010ef          	jal	ra,14618 <_free_r>
   12664:	9c1fe06f          	j	11024 <_vfprintf_r+0x970>
   12668:	01070713          	addi	a4,a4,16
   1266c:	015d2223          	sw	s5,4(s10)
   12670:	0ee12623          	sw	a4,236(sp)
   12674:	0ef12423          	sw	a5,232(sp)
   12678:	008d0d13          	addi	s10,s10,8
   1267c:	00fbde63          	ble	a5,s7,12698 <_vfprintf_r+0x1fe4>
   12680:	0e410613          	addi	a2,sp,228
   12684:	00090593          	mv	a1,s2
   12688:	00098513          	mv	a0,s3
   1268c:	4000b0ef          	jal	ra,1da8c <__sprint_r>
   12690:	fa051ee3          	bnez	a0,1264c <_vfprintf_r+0x1f98>
   12694:	10c10d13          	addi	s10,sp,268
   12698:	ff040413          	addi	s0,s0,-16
   1269c:	f71ff06f          	j	1260c <_vfprintf_r+0x1f58>
   126a0:	01012583          	lw	a1,16(sp)
   126a4:	00098513          	mv	a0,s3
   126a8:	771010ef          	jal	ra,14618 <_free_r>
   126ac:	921ff06f          	j	11fcc <_vfprintf_r+0x1918>
   126b0:	0ec12783          	lw	a5,236(sp)
   126b4:	00079463          	bnez	a5,126bc <_vfprintf_r+0x2008>
   126b8:	96dfe06f          	j	11024 <_vfprintf_r+0x970>
   126bc:	0e410613          	addi	a2,sp,228
   126c0:	00090593          	mv	a1,s2
   126c4:	00098513          	mv	a0,s3
   126c8:	3c40b0ef          	jal	ra,1da8c <__sprint_r>
   126cc:	959fe06f          	j	11024 <_vfprintf_r+0x970>

000126d0 <vfprintf>:
   126d0:	00060693          	mv	a3,a2
   126d4:	00058613          	mv	a2,a1
   126d8:	00050593          	mv	a1,a0
   126dc:	8681a503          	lw	a0,-1944(gp) # 2bf80 <_impure_ptr>
   126e0:	fd5fd06f          	j	106b4 <_vfprintf_r>

000126e4 <__sbprintf>:
   126e4:	00c5d783          	lhu	a5,12(a1)
   126e8:	b8010113          	addi	sp,sp,-1152
   126ec:	46812c23          	sw	s0,1144(sp)
   126f0:	ffd7f793          	andi	a5,a5,-3
   126f4:	00f11a23          	sh	a5,20(sp)
   126f8:	0645a783          	lw	a5,100(a1)
   126fc:	00058413          	mv	s0,a1
   12700:	46912a23          	sw	s1,1140(sp)
   12704:	06f12623          	sw	a5,108(sp)
   12708:	00e5d783          	lhu	a5,14(a1)
   1270c:	47212823          	sw	s2,1136(sp)
   12710:	46112e23          	sw	ra,1148(sp)
   12714:	00f11b23          	sh	a5,22(sp)
   12718:	01c5a783          	lw	a5,28(a1)
   1271c:	00050913          	mv	s2,a0
   12720:	02012023          	sw	zero,32(sp)
   12724:	02f12223          	sw	a5,36(sp)
   12728:	0245a783          	lw	a5,36(a1)
   1272c:	00810593          	addi	a1,sp,8
   12730:	02f12623          	sw	a5,44(sp)
   12734:	07010793          	addi	a5,sp,112
   12738:	00f12423          	sw	a5,8(sp)
   1273c:	00f12c23          	sw	a5,24(sp)
   12740:	40000793          	li	a5,1024
   12744:	00f12823          	sw	a5,16(sp)
   12748:	00f12e23          	sw	a5,28(sp)
   1274c:	f69fd0ef          	jal	ra,106b4 <_vfprintf_r>
   12750:	00050493          	mv	s1,a0
   12754:	00054c63          	bltz	a0,1276c <__sbprintf+0x88>
   12758:	00810593          	addi	a1,sp,8
   1275c:	00090513          	mv	a0,s2
   12760:	111010ef          	jal	ra,14070 <_fflush_r>
   12764:	00050463          	beqz	a0,1276c <__sbprintf+0x88>
   12768:	fff00493          	li	s1,-1
   1276c:	01415783          	lhu	a5,20(sp)
   12770:	0407f793          	andi	a5,a5,64
   12774:	00078863          	beqz	a5,12784 <__sbprintf+0xa0>
   12778:	00c45783          	lhu	a5,12(s0)
   1277c:	0407e793          	ori	a5,a5,64
   12780:	00f41623          	sh	a5,12(s0)
   12784:	47c12083          	lw	ra,1148(sp)
   12788:	47812403          	lw	s0,1144(sp)
   1278c:	00048513          	mv	a0,s1
   12790:	47012903          	lw	s2,1136(sp)
   12794:	47412483          	lw	s1,1140(sp)
   12798:	48010113          	addi	sp,sp,1152
   1279c:	00008067          	ret

000127a0 <__svfscanf_r>:
   127a0:	00c59703          	lh	a4,12(a1)
   127a4:	af010113          	addi	sp,sp,-1296
   127a8:	fffff337          	lui	t1,0xfffff
   127ac:	4f312e23          	sw	s3,1276(sp)
   127b0:	4f512a23          	sw	s5,1268(sp)
   127b4:	4f712623          	sw	s7,1260(sp)
   127b8:	50112623          	sw	ra,1292(sp)
   127bc:	50812423          	sw	s0,1288(sp)
   127c0:	50912223          	sw	s1,1284(sp)
   127c4:	51212023          	sw	s2,1280(sp)
   127c8:	4f412c23          	sw	s4,1272(sp)
   127cc:	4f612823          	sw	s6,1264(sp)
   127d0:	4f812423          	sw	s8,1256(sp)
   127d4:	4f912223          	sw	s9,1252(sp)
   127d8:	4fa12023          	sw	s10,1248(sp)
   127dc:	4db12e23          	sw	s11,1244(sp)
   127e0:	00610133          	add	sp,sp,t1
   127e4:	00c12223          	sw	a2,4(sp)
   127e8:	01271793          	slli	a5,a4,0x12
   127ec:	00050993          	mv	s3,a0
   127f0:	00058b93          	mv	s7,a1
   127f4:	00068a93          	mv	s5,a3
   127f8:	0207c263          	bltz	a5,1281c <__svfscanf_r+0x7c>
   127fc:	00002637          	lui	a2,0x2
   12800:	0645a683          	lw	a3,100(a1)
   12804:	00c76733          	or	a4,a4,a2
   12808:	00e59623          	sh	a4,12(a1)
   1280c:	ffffe737          	lui	a4,0xffffe
   12810:	fff70713          	addi	a4,a4,-1 # ffffdfff <__global_pointer$+0xfffd18e7>
   12814:	00e6f733          	and	a4,a3,a4
   12818:	06e5a223          	sw	a4,100(a1)
   1281c:	000017b7          	lui	a5,0x1
   12820:	04010713          	addi	a4,sp,64
   12824:	49078793          	addi	a5,a5,1168 # 1490 <sulp-0xebe4>
   12828:	00e787b3          	add	a5,a5,a4
   1282c:	fffff737          	lui	a4,0xfffff
   12830:	c9070713          	addi	a4,a4,-880 # ffffec90 <__global_pointer$+0xfffd2578>
   12834:	00e787b3          	add	a5,a5,a4
   12838:	00029737          	lui	a4,0x29
   1283c:	00f12423          	sw	a5,8(sp)
   12840:	7cc70793          	addi	a5,a4,1996 # 297cc <basefix.4425>
   12844:	00012023          	sw	zero,0(sp)
   12848:	00000a13          	li	s4,0
   1284c:	00000913          	li	s2,0
   12850:	00000b13          	li	s6,0
   12854:	00f12a23          	sw	a5,20(sp)
   12858:	00412783          	lw	a5,4(sp)
   1285c:	0007c703          	lbu	a4,0(a5)
   12860:	00178793          	addi	a5,a5,1
   12864:	00f12223          	sw	a5,4(sp)
   12868:	04e12a23          	sw	a4,84(sp)
   1286c:	22070a63          	beqz	a4,12aa0 <__svfscanf_r+0x300>
   12870:	74c040ef          	jal	ra,16fbc <__locale_ctype_ptr>
   12874:	05412703          	lw	a4,84(sp)
   12878:	00e50533          	add	a0,a0,a4
   1287c:	00154c83          	lbu	s9,1(a0)
   12880:	008cfc93          	andi	s9,s9,8
   12884:	040c8c63          	beqz	s9,128dc <__svfscanf_r+0x13c>
   12888:	004ba703          	lw	a4,4(s7)
   1288c:	02e05e63          	blez	a4,128c8 <__svfscanf_r+0x128>
   12890:	72c040ef          	jal	ra,16fbc <__locale_ctype_ptr>
   12894:	000ba703          	lw	a4,0(s7)
   12898:	00074683          	lbu	a3,0(a4)
   1289c:	00d50533          	add	a0,a0,a3
   128a0:	00154683          	lbu	a3,1(a0)
   128a4:	0086f693          	andi	a3,a3,8
   128a8:	fa0688e3          	beqz	a3,12858 <__svfscanf_r+0xb8>
   128ac:	004ba683          	lw	a3,4(s7)
   128b0:	00170713          	addi	a4,a4,1
   128b4:	00190913          	addi	s2,s2,1
   128b8:	fff68693          	addi	a3,a3,-1
   128bc:	00dba223          	sw	a3,4(s7)
   128c0:	00eba023          	sw	a4,0(s7)
   128c4:	fc5ff06f          	j	12888 <__svfscanf_r+0xe8>
   128c8:	000b8593          	mv	a1,s7
   128cc:	00098513          	mv	a0,s3
   128d0:	634060ef          	jal	ra,18f04 <__srefill_r>
   128d4:	fa050ee3          	beqz	a0,12890 <__svfscanf_r+0xf0>
   128d8:	f81ff06f          	j	12858 <__svfscanf_r+0xb8>
   128dc:	02500693          	li	a3,37
   128e0:	1ad71263          	bne	a4,a3,12a84 <__svfscanf_r+0x2e4>
   128e4:	00412583          	lw	a1,4(sp)
   128e8:	00000413          	li	s0,0
   128ec:	00000493          	li	s1,0
   128f0:	06100d93          	li	s11,97
   128f4:	06c00d13          	li	s10,108
   128f8:	07300713          	li	a4,115
   128fc:	07500693          	li	a3,117
   12900:	06900613          	li	a2,105
   12904:	06a00393          	li	t2,106
   12908:	04400813          	li	a6,68
   1290c:	04f00893          	li	a7,79
   12910:	04700293          	li	t0,71
   12914:	04c00f93          	li	t6,76
   12918:	03900313          	li	t1,57
   1291c:	03000e13          	li	t3,48
   12920:	02500e93          	li	t4,37
   12924:	02a00f13          	li	t5,42
   12928:	00412783          	lw	a5,4(sp)
   1292c:	0005cc03          	lbu	s8,0(a1)
   12930:	00178793          	addi	a5,a5,1
   12934:	00f12223          	sw	a5,4(sp)
   12938:	2fbc0c63          	beq	s8,s11,12c30 <__svfscanf_r+0x490>
   1293c:	098dee63          	bltu	s11,s8,129d8 <__svfscanf_r+0x238>
   12940:	2b0c0463          	beq	s8,a6,12be8 <__svfscanf_r+0x448>
   12944:	05886c63          	bltu	a6,s8,1299c <__svfscanf_r+0x1fc>
   12948:	01836e63          	bltu	t1,s8,12964 <__svfscanf_r+0x1c4>
   1294c:	23cc7263          	bleu	t3,s8,12b70 <__svfscanf_r+0x3d0>
   12950:	13dc0a63          	beq	s8,t4,12a84 <__svfscanf_r+0x2e4>
   12954:	1dec0a63          	beq	s8,t5,12b28 <__svfscanf_r+0x388>
   12958:	000c1e63          	bnez	s8,12974 <__svfscanf_r+0x1d4>
   1295c:	fff00b13          	li	s6,-1
   12960:	1400006f          	j	12aa0 <__svfscanf_r+0x300>
   12964:	04100713          	li	a4,65
   12968:	2cec0463          	beq	s8,a4,12c30 <__svfscanf_r+0x490>
   1296c:	04300713          	li	a4,67
   12970:	42ec0e63          	beq	s8,a4,12dac <__svfscanf_r+0x60c>
   12974:	648040ef          	jal	ra,16fbc <__locale_ctype_ptr>
   12978:	01850533          	add	a0,a0,s8
   1297c:	00154703          	lbu	a4,1(a0)
   12980:	00100613          	li	a2,1
   12984:	0001b6b7          	lui	a3,0x1b
   12988:	00377713          	andi	a4,a4,3
   1298c:	00c71463          	bne	a4,a2,12994 <__svfscanf_r+0x1f4>
   12990:	00146413          	ori	s0,s0,1
   12994:	18468793          	addi	a5,a3,388 # 1b184 <_strtol_r>
   12998:	0700006f          	j	12a08 <__svfscanf_r+0x268>
   1299c:	251c0a63          	beq	s8,a7,12bf0 <__svfscanf_r+0x450>
   129a0:	0188ea63          	bltu	a7,s8,129b4 <__svfscanf_r+0x214>
   129a4:	2982f663          	bleu	s8,t0,12c30 <__svfscanf_r+0x490>
   129a8:	fdfc16e3          	bne	s8,t6,12974 <__svfscanf_r+0x1d4>
   129ac:	00246413          	ori	s0,s0,2
   129b0:	0cc0006f          	j	12a7c <__svfscanf_r+0x2dc>
   129b4:	05800713          	li	a4,88
   129b8:	26ec0063          	beq	s8,a4,12c18 <__svfscanf_r+0x478>
   129bc:	05b00713          	li	a4,91
   129c0:	3aec0c63          	beq	s8,a4,12d78 <__svfscanf_r+0x5d8>
   129c4:	05300713          	li	a4,83
   129c8:	faec16e3          	bne	s8,a4,12974 <__svfscanf_r+0x1d4>
   129cc:	00146413          	ori	s0,s0,1
   129d0:	00200c13          	li	s8,2
   129d4:	2600006f          	j	12c34 <__svfscanf_r+0x494>
   129d8:	15ac0c63          	beq	s8,s10,12b30 <__svfscanf_r+0x390>
   129dc:	058d6463          	bltu	s10,s8,12a24 <__svfscanf_r+0x284>
   129e0:	06700793          	li	a5,103
   129e4:	0387e863          	bltu	a5,s8,12a14 <__svfscanf_r+0x274>
   129e8:	06500713          	li	a4,101
   129ec:	24ec7263          	bleu	a4,s8,12c30 <__svfscanf_r+0x490>
   129f0:	06300713          	li	a4,99
   129f4:	3aec0e63          	beq	s8,a4,12db0 <__svfscanf_r+0x610>
   129f8:	06400713          	li	a4,100
   129fc:	f6ec1ce3          	bne	s8,a4,12974 <__svfscanf_r+0x1d4>
   12a00:	0001b737          	lui	a4,0x1b
   12a04:	18470793          	addi	a5,a4,388 # 1b184 <_strtol_r>
   12a08:	00f12023          	sw	a5,0(sp)
   12a0c:	00a00a13          	li	s4,10
   12a10:	1f40006f          	j	12c04 <__svfscanf_r+0x464>
   12a14:	3ecc0463          	beq	s8,a2,12dfc <__svfscanf_r+0x65c>
   12a18:	12cc6a63          	bltu	s8,a2,12b4c <__svfscanf_r+0x3ac>
   12a1c:	f87c08e3          	beq	s8,t2,129ac <__svfscanf_r+0x20c>
   12a20:	f55ff06f          	j	12974 <__svfscanf_r+0x1d4>
   12a24:	faec06e3          	beq	s8,a4,129d0 <__svfscanf_r+0x230>
   12a28:	03876e63          	bltu	a4,s8,12a64 <__svfscanf_r+0x2c4>
   12a2c:	06f00713          	li	a4,111
   12a30:	1cec0263          	beq	s8,a4,12bf4 <__svfscanf_r+0x454>
   12a34:	07000713          	li	a4,112
   12a38:	38ec0263          	beq	s8,a4,12dbc <__svfscanf_r+0x61c>
   12a3c:	06e00713          	li	a4,110
   12a40:	f2ec1ae3          	bne	s8,a4,12974 <__svfscanf_r+0x1d4>
   12a44:	01047713          	andi	a4,s0,16
   12a48:	e00718e3          	bnez	a4,12858 <__svfscanf_r+0xb8>
   12a4c:	00847693          	andi	a3,s0,8
   12a50:	000aa703          	lw	a4,0(s5)
   12a54:	004a8a93          	addi	s5,s5,4
   12a58:	36068663          	beqz	a3,12dc4 <__svfscanf_r+0x624>
   12a5c:	01270023          	sb	s2,0(a4)
   12a60:	df9ff06f          	j	12858 <__svfscanf_r+0xb8>
   12a64:	1adc0463          	beq	s8,a3,12c0c <__svfscanf_r+0x46c>
   12a68:	00dc6a63          	bltu	s8,a3,12a7c <__svfscanf_r+0x2dc>
   12a6c:	07800793          	li	a5,120
   12a70:	1afc0463          	beq	s8,a5,12c18 <__svfscanf_r+0x478>
   12a74:	07a00793          	li	a5,122
   12a78:	eefc1ee3          	bne	s8,a5,12974 <__svfscanf_r+0x1d4>
   12a7c:	00412583          	lw	a1,4(sp)
   12a80:	ea9ff06f          	j	12928 <__svfscanf_r+0x188>
   12a84:	004ba703          	lw	a4,4(s7)
   12a88:	06e05063          	blez	a4,12ae8 <__svfscanf_r+0x348>
   12a8c:	000ba703          	lw	a4,0(s7)
   12a90:	00412783          	lw	a5,4(sp)
   12a94:	00074603          	lbu	a2,0(a4)
   12a98:	fff7c683          	lbu	a3,-1(a5)
   12a9c:	06d60863          	beq	a2,a3,12b0c <__svfscanf_r+0x36c>
   12aa0:	00001337          	lui	t1,0x1
   12aa4:	00610133          	add	sp,sp,t1
   12aa8:	50c12083          	lw	ra,1292(sp)
   12aac:	000b0513          	mv	a0,s6
   12ab0:	50812403          	lw	s0,1288(sp)
   12ab4:	50412483          	lw	s1,1284(sp)
   12ab8:	50012903          	lw	s2,1280(sp)
   12abc:	4fc12983          	lw	s3,1276(sp)
   12ac0:	4f812a03          	lw	s4,1272(sp)
   12ac4:	4f412a83          	lw	s5,1268(sp)
   12ac8:	4f012b03          	lw	s6,1264(sp)
   12acc:	4ec12b83          	lw	s7,1260(sp)
   12ad0:	4e812c03          	lw	s8,1256(sp)
   12ad4:	4e412c83          	lw	s9,1252(sp)
   12ad8:	4e012d03          	lw	s10,1248(sp)
   12adc:	4dc12d83          	lw	s11,1244(sp)
   12ae0:	51010113          	addi	sp,sp,1296
   12ae4:	00008067          	ret
   12ae8:	000b8593          	mv	a1,s7
   12aec:	00098513          	mv	a0,s3
   12af0:	414060ef          	jal	ra,18f04 <__srefill_r>
   12af4:	f8050ce3          	beqz	a0,12a8c <__svfscanf_r+0x2ec>
   12af8:	e60b02e3          	beqz	s6,1295c <__svfscanf_r+0x1bc>
   12afc:	00cbd783          	lhu	a5,12(s7)
   12b00:	0407f793          	andi	a5,a5,64
   12b04:	f8078ee3          	beqz	a5,12aa0 <__svfscanf_r+0x300>
   12b08:	e55ff06f          	j	1295c <__svfscanf_r+0x1bc>
   12b0c:	004ba683          	lw	a3,4(s7)
   12b10:	00170713          	addi	a4,a4,1
   12b14:	00eba023          	sw	a4,0(s7)
   12b18:	fff68693          	addi	a3,a3,-1
   12b1c:	00dba223          	sw	a3,4(s7)
   12b20:	00190913          	addi	s2,s2,1
   12b24:	d35ff06f          	j	12858 <__svfscanf_r+0xb8>
   12b28:	01046413          	ori	s0,s0,16
   12b2c:	f51ff06f          	j	12a7c <__svfscanf_r+0x2dc>
   12b30:	0015c503          	lbu	a0,1(a1)
   12b34:	01a51863          	bne	a0,s10,12b44 <__svfscanf_r+0x3a4>
   12b38:	00258793          	addi	a5,a1,2
   12b3c:	00f12223          	sw	a5,4(sp)
   12b40:	e6dff06f          	j	129ac <__svfscanf_r+0x20c>
   12b44:	00146413          	ori	s0,s0,1
   12b48:	f35ff06f          	j	12a7c <__svfscanf_r+0x2dc>
   12b4c:	0015c503          	lbu	a0,1(a1)
   12b50:	06800793          	li	a5,104
   12b54:	00f51a63          	bne	a0,a5,12b68 <__svfscanf_r+0x3c8>
   12b58:	00258793          	addi	a5,a1,2
   12b5c:	00f12223          	sw	a5,4(sp)
   12b60:	00846413          	ori	s0,s0,8
   12b64:	f19ff06f          	j	12a7c <__svfscanf_r+0x2dc>
   12b68:	00446413          	ori	s0,s0,4
   12b6c:	f11ff06f          	j	12a7c <__svfscanf_r+0x2dc>
   12b70:	00048513          	mv	a0,s1
   12b74:	00a00593          	li	a1,10
   12b78:	03e12e23          	sw	t5,60(sp)
   12b7c:	03d12c23          	sw	t4,56(sp)
   12b80:	03c12a23          	sw	t3,52(sp)
   12b84:	02612823          	sw	t1,48(sp)
   12b88:	03f12623          	sw	t6,44(sp)
   12b8c:	02512423          	sw	t0,40(sp)
   12b90:	03112223          	sw	a7,36(sp)
   12b94:	03012023          	sw	a6,32(sp)
   12b98:	00712e23          	sw	t2,28(sp)
   12b9c:	00c12c23          	sw	a2,24(sp)
   12ba0:	00d12823          	sw	a3,16(sp)
   12ba4:	00e12623          	sw	a4,12(sp)
   12ba8:	035160ef          	jal	ra,293dc <__mulsi3>
   12bac:	fd050513          	addi	a0,a0,-48
   12bb0:	00ac04b3          	add	s1,s8,a0
   12bb4:	00c12703          	lw	a4,12(sp)
   12bb8:	01012683          	lw	a3,16(sp)
   12bbc:	01812603          	lw	a2,24(sp)
   12bc0:	01c12383          	lw	t2,28(sp)
   12bc4:	02012803          	lw	a6,32(sp)
   12bc8:	02412883          	lw	a7,36(sp)
   12bcc:	02812283          	lw	t0,40(sp)
   12bd0:	02c12f83          	lw	t6,44(sp)
   12bd4:	03012303          	lw	t1,48(sp)
   12bd8:	03412e03          	lw	t3,52(sp)
   12bdc:	03812e83          	lw	t4,56(sp)
   12be0:	03c12f03          	lw	t5,60(sp)
   12be4:	e99ff06f          	j	12a7c <__svfscanf_r+0x2dc>
   12be8:	00146413          	ori	s0,s0,1
   12bec:	e15ff06f          	j	12a00 <__svfscanf_r+0x260>
   12bf0:	00146413          	ori	s0,s0,1
   12bf4:	0001c7b7          	lui	a5,0x1c
   12bf8:	80878793          	addi	a5,a5,-2040 # 1b808 <_strtoul_r>
   12bfc:	00f12023          	sw	a5,0(sp)
   12c00:	00800a13          	li	s4,8
   12c04:	00300c13          	li	s8,3
   12c08:	02c0006f          	j	12c34 <__svfscanf_r+0x494>
   12c0c:	0001c7b7          	lui	a5,0x1c
   12c10:	80878793          	addi	a5,a5,-2040 # 1b808 <_strtoul_r>
   12c14:	df5ff06f          	j	12a08 <__svfscanf_r+0x268>
   12c18:	20046413          	ori	s0,s0,512
   12c1c:	0001c7b7          	lui	a5,0x1c
   12c20:	80878793          	addi	a5,a5,-2040 # 1b808 <_strtoul_r>
   12c24:	00f12023          	sw	a5,0(sp)
   12c28:	01000a13          	li	s4,16
   12c2c:	fd9ff06f          	j	12c04 <__svfscanf_r+0x464>
   12c30:	00400c13          	li	s8,4
   12c34:	004ba703          	lw	a4,4(s7)
   12c38:	1ce05c63          	blez	a4,12e10 <__svfscanf_r+0x670>
   12c3c:	04047713          	andi	a4,s0,64
   12c40:	02071063          	bnez	a4,12c60 <__svfscanf_r+0x4c0>
   12c44:	378040ef          	jal	ra,16fbc <__locale_ctype_ptr>
   12c48:	000ba703          	lw	a4,0(s7)
   12c4c:	00074683          	lbu	a3,0(a4)
   12c50:	00d50533          	add	a0,a0,a3
   12c54:	00154683          	lbu	a3,1(a0)
   12c58:	0086f693          	andi	a3,a3,8
   12c5c:	1c069463          	bnez	a3,12e24 <__svfscanf_r+0x684>
   12c60:	00200713          	li	a4,2
   12c64:	46ec0e63          	beq	s8,a4,130e0 <__svfscanf_r+0x940>
   12c68:	1f874863          	blt	a4,s8,12e58 <__svfscanf_r+0x6b8>
   12c6c:	00100713          	li	a4,1
   12c70:	38ec0463          	beq	s8,a4,12ff8 <__svfscanf_r+0x858>
   12c74:	00049463          	bnez	s1,12c7c <__svfscanf_r+0x4dc>
   12c78:	00100493          	li	s1,1
   12c7c:	01047c13          	andi	s8,s0,16
   12c80:	00147413          	andi	s0,s0,1
   12c84:	2e040663          	beqz	s0,12f70 <__svfscanf_r+0x7d0>
   12c88:	fffff7b7          	lui	a5,0xfffff
   12c8c:	b8878513          	addi	a0,a5,-1144 # ffffeb88 <__global_pointer$+0xfffd2470>
   12c90:	000017b7          	lui	a5,0x1
   12c94:	04010713          	addi	a4,sp,64
   12c98:	49078793          	addi	a5,a5,1168 # 1490 <sulp-0xebe4>
   12c9c:	00e787b3          	add	a5,a5,a4
   12ca0:	00800613          	li	a2,8
   12ca4:	00000593          	li	a1,0
   12ca8:	00a78533          	add	a0,a5,a0
   12cac:	f24fd0ef          	jal	ra,103d0 <memset>
   12cb0:	00000c93          	li	s9,0
   12cb4:	000c1663          	bnez	s8,12cc0 <__svfscanf_r+0x520>
   12cb8:	000aac83          	lw	s9,0(s5)
   12cbc:	004a8a93          	addi	s5,s5,4
   12cc0:	000016b7          	lui	a3,0x1
   12cc4:	49068793          	addi	a5,a3,1168 # 1490 <sulp-0xebe4>
   12cc8:	04010613          	addi	a2,sp,64
   12ccc:	00c787b3          	add	a5,a5,a2
   12cd0:	fffff637          	lui	a2,0xfffff
   12cd4:	00c787b3          	add	a5,a5,a2
   12cd8:	00f12623          	sw	a5,12(sp)
   12cdc:	49068793          	addi	a5,a3,1168
   12ce0:	04010693          	addi	a3,sp,64
   12ce4:	b8860413          	addi	s0,a2,-1144 # ffffeb88 <__global_pointer$+0xfffd2470>
   12ce8:	00d787b3          	add	a5,a5,a3
   12cec:	00000713          	li	a4,0
   12cf0:	00878433          	add	s0,a5,s0
   12cf4:	fff00d13          	li	s10,-1
   12cf8:	00e12823          	sw	a4,16(sp)
   12cfc:	29c040ef          	jal	ra,16f98 <__locale_mb_cur_max>
   12d00:	01012703          	lw	a4,16(sp)
   12d04:	dee50ae3          	beq	a0,a4,12af8 <__svfscanf_r+0x358>
   12d08:	000ba683          	lw	a3,0(s7)
   12d0c:	00c12783          	lw	a5,12(sp)
   12d10:	00170d93          	addi	s11,a4,1
   12d14:	0006c603          	lbu	a2,0(a3)
   12d18:	00e78733          	add	a4,a5,a4
   12d1c:	00168693          	addi	a3,a3,1
   12d20:	c8c70823          	sb	a2,-880(a4)
   12d24:	004ba703          	lw	a4,4(s7)
   12d28:	00812603          	lw	a2,8(sp)
   12d2c:	00dba023          	sw	a3,0(s7)
   12d30:	fff70713          	addi	a4,a4,-1
   12d34:	00eba223          	sw	a4,4(s7)
   12d38:	000d8693          	mv	a3,s11
   12d3c:	00040713          	mv	a4,s0
   12d40:	000c8593          	mv	a1,s9
   12d44:	00098513          	mv	a0,s3
   12d48:	271040ef          	jal	ra,177b8 <_mbrtowc_r>
   12d4c:	dba506e3          	beq	a0,s10,12af8 <__svfscanf_r+0x358>
   12d50:	1e051263          	bnez	a0,12f34 <__svfscanf_r+0x794>
   12d54:	000c1463          	bnez	s8,12d5c <__svfscanf_r+0x5bc>
   12d58:	000ca023          	sw	zero,0(s9)
   12d5c:	01b90933          	add	s2,s2,s11
   12d60:	fff48493          	addi	s1,s1,-1
   12d64:	00000d93          	li	s11,0
   12d68:	1c0c1a63          	bnez	s8,12f3c <__svfscanf_r+0x79c>
   12d6c:	004c8c93          	addi	s9,s9,4
   12d70:	000c0d93          	mv	s11,s8
   12d74:	1c80006f          	j	12f3c <__svfscanf_r+0x79c>
   12d78:	fffff7b7          	lui	a5,0xfffff
   12d7c:	b9078513          	addi	a0,a5,-1136 # ffffeb90 <__global_pointer$+0xfffd2478>
   12d80:	000017b7          	lui	a5,0x1
   12d84:	04010713          	addi	a4,sp,64
   12d88:	00412583          	lw	a1,4(sp)
   12d8c:	49078793          	addi	a5,a5,1168 # 1490 <sulp-0xebe4>
   12d90:	00e787b3          	add	a5,a5,a4
   12d94:	00a78533          	add	a0,a5,a0
   12d98:	384060ef          	jal	ra,1911c <__sccl>
   12d9c:	00a12223          	sw	a0,4(sp)
   12da0:	04046413          	ori	s0,s0,64
   12da4:	00100c13          	li	s8,1
   12da8:	e8dff06f          	j	12c34 <__svfscanf_r+0x494>
   12dac:	00146413          	ori	s0,s0,1
   12db0:	04046413          	ori	s0,s0,64
   12db4:	00000c13          	li	s8,0
   12db8:	e7dff06f          	j	12c34 <__svfscanf_r+0x494>
   12dbc:	22046413          	ori	s0,s0,544
   12dc0:	e5dff06f          	j	12c1c <__svfscanf_r+0x47c>
   12dc4:	00447693          	andi	a3,s0,4
   12dc8:	00068663          	beqz	a3,12dd4 <__svfscanf_r+0x634>
   12dcc:	01271023          	sh	s2,0(a4)
   12dd0:	a89ff06f          	j	12858 <__svfscanf_r+0xb8>
   12dd4:	00147693          	andi	a3,s0,1
   12dd8:	00068663          	beqz	a3,12de4 <__svfscanf_r+0x644>
   12ddc:	01272023          	sw	s2,0(a4)
   12de0:	a79ff06f          	j	12858 <__svfscanf_r+0xb8>
   12de4:	00247413          	andi	s0,s0,2
   12de8:	fe040ae3          	beqz	s0,12ddc <__svfscanf_r+0x63c>
   12dec:	41f95693          	srai	a3,s2,0x1f
   12df0:	01272023          	sw	s2,0(a4)
   12df4:	00d72223          	sw	a3,4(a4)
   12df8:	a61ff06f          	j	12858 <__svfscanf_r+0xb8>
   12dfc:	0001b737          	lui	a4,0x1b
   12e00:	18470793          	addi	a5,a4,388 # 1b184 <_strtol_r>
   12e04:	00f12023          	sw	a5,0(sp)
   12e08:	00000a13          	li	s4,0
   12e0c:	df9ff06f          	j	12c04 <__svfscanf_r+0x464>
   12e10:	000b8593          	mv	a1,s7
   12e14:	00098513          	mv	a0,s3
   12e18:	0ec060ef          	jal	ra,18f04 <__srefill_r>
   12e1c:	e20500e3          	beqz	a0,12c3c <__svfscanf_r+0x49c>
   12e20:	cd9ff06f          	j	12af8 <__svfscanf_r+0x358>
   12e24:	004ba683          	lw	a3,4(s7)
   12e28:	00190913          	addi	s2,s2,1
   12e2c:	fff68693          	addi	a3,a3,-1
   12e30:	00dba223          	sw	a3,4(s7)
   12e34:	00d05863          	blez	a3,12e44 <__svfscanf_r+0x6a4>
   12e38:	00170713          	addi	a4,a4,1
   12e3c:	00eba023          	sw	a4,0(s7)
   12e40:	e05ff06f          	j	12c44 <__svfscanf_r+0x4a4>
   12e44:	000b8593          	mv	a1,s7
   12e48:	00098513          	mv	a0,s3
   12e4c:	0b8060ef          	jal	ra,18f04 <__srefill_r>
   12e50:	de050ae3          	beqz	a0,12c44 <__svfscanf_r+0x4a4>
   12e54:	ca5ff06f          	j	12af8 <__svfscanf_r+0x358>
   12e58:	00300713          	li	a4,3
   12e5c:	4eec0863          	beq	s8,a4,1334c <__svfscanf_r+0xbac>
   12e60:	00400713          	li	a4,4
   12e64:	e0ec18e3          	bne	s8,a4,12c74 <__svfscanf_r+0x4d4>
   12e68:	00098513          	mv	a0,s3
   12e6c:	080040ef          	jal	ra,16eec <_localeconv_r>
   12e70:	00052783          	lw	a5,0(a0)
   12e74:	000016b7          	lui	a3,0x1
   12e78:	fff48713          	addi	a4,s1,-1
   12e7c:	00f12c23          	sw	a5,24(sp)
   12e80:	36c68613          	addi	a2,a3,876 # 136c <sulp-0xed08>
   12e84:	00000893          	li	a7,0
   12e88:	00e67a63          	bleu	a4,a2,12e9c <__svfscanf_r+0x6fc>
   12e8c:	fffff7b7          	lui	a5,0xfffff
   12e90:	c9378893          	addi	a7,a5,-877 # ffffec93 <__global_pointer$+0xfffd257b>
   12e94:	011488b3          	add	a7,s1,a7
   12e98:	36d68493          	addi	s1,a3,877
   12e9c:	000017b7          	lui	a5,0x1
   12ea0:	04010713          	addi	a4,sp,64
   12ea4:	49078793          	addi	a5,a5,1168 # 1490 <sulp-0xebe4>
   12ea8:	00e787b3          	add	a5,a5,a4
   12eac:	fffff737          	lui	a4,0xfffff
   12eb0:	c9070713          	addi	a4,a4,-880 # ffffec90 <__global_pointer$+0xfffd2578>
   12eb4:	78046413          	ori	s0,s0,1920
   12eb8:	00000613          	li	a2,0
   12ebc:	00000d93          	li	s11,0
   12ec0:	00012823          	sw	zero,16(sp)
   12ec4:	00000c13          	li	s8,0
   12ec8:	00012623          	sw	zero,12(sp)
   12ecc:	00e78d33          	add	s10,a5,a4
   12ed0:	04e00313          	li	t1,78
   12ed4:	00100e13          	li	t3,1
   12ed8:	00400393          	li	t2,4
   12edc:	00200e93          	li	t4,2
   12ee0:	70000f13          	li	t5,1792
   12ee4:	40000293          	li	t0,1024
   12ee8:	06600f93          	li	t6,102
   12eec:	000ba583          	lw	a1,0(s7)
   12ef0:	0005c683          	lbu	a3,0(a1)
   12ef4:	04668ae3          	beq	a3,t1,13748 <__svfscanf_r+0xfa8>
   12ef8:	74d36463          	bltu	t1,a3,13640 <__svfscanf_r+0xea0>
   12efc:	03900513          	li	a0,57
   12f00:	6ed56063          	bltu	a0,a3,135e0 <__svfscanf_r+0xe40>
   12f04:	03100513          	li	a0,49
   12f08:	02a6f4e3          	bleu	a0,a3,13730 <__svfscanf_r+0xf90>
   12f0c:	02d00513          	li	a0,45
   12f10:	00a68a63          	beq	a3,a0,12f24 <__svfscanf_r+0x784>
   12f14:	03000513          	li	a0,48
   12f18:	7ca68a63          	beq	a3,a0,136ec <__svfscanf_r+0xf4c>
   12f1c:	02b00513          	li	a0,43
   12f20:	6ca69a63          	bne	a3,a0,135f4 <__svfscanf_r+0xe54>
   12f24:	08047513          	andi	a0,s0,128
   12f28:	04050ce3          	beqz	a0,13780 <__svfscanf_r+0xfe0>
   12f2c:	f7f47413          	andi	s0,s0,-129
   12f30:	00d0006f          	j	1373c <__svfscanf_r+0xf9c>
   12f34:	ffe00713          	li	a4,-2
   12f38:	e2e512e3          	bne	a0,a4,12d5c <__svfscanf_r+0x5bc>
   12f3c:	004ba703          	lw	a4,4(s7)
   12f40:	02e04263          	bgtz	a4,12f64 <__svfscanf_r+0x7c4>
   12f44:	000b8593          	mv	a1,s7
   12f48:	00098513          	mv	a0,s3
   12f4c:	7b9050ef          	jal	ra,18f04 <__srefill_r>
   12f50:	00050a63          	beqz	a0,12f64 <__svfscanf_r+0x7c4>
   12f54:	ba0d92e3          	bnez	s11,12af8 <__svfscanf_r+0x358>
   12f58:	900c10e3          	bnez	s8,12858 <__svfscanf_r+0xb8>
   12f5c:	001b0b13          	addi	s6,s6,1
   12f60:	8f9ff06f          	j	12858 <__svfscanf_r+0xb8>
   12f64:	fe048ae3          	beqz	s1,12f58 <__svfscanf_r+0x7b8>
   12f68:	000d8713          	mv	a4,s11
   12f6c:	d8dff06f          	j	12cf8 <__svfscanf_r+0x558>
   12f70:	040c0c63          	beqz	s8,12fc8 <__svfscanf_r+0x828>
   12f74:	00000413          	li	s0,0
   12f78:	004ba703          	lw	a4,4(s7)
   12f7c:	000ba503          	lw	a0,0(s7)
   12f80:	02975863          	ble	s1,a4,12fb0 <__svfscanf_r+0x810>
   12f84:	00e40433          	add	s0,s0,a4
   12f88:	40e484b3          	sub	s1,s1,a4
   12f8c:	00e50733          	add	a4,a0,a4
   12f90:	00eba023          	sw	a4,0(s7)
   12f94:	000b8593          	mv	a1,s7
   12f98:	00098513          	mv	a0,s3
   12f9c:	769050ef          	jal	ra,18f04 <__srefill_r>
   12fa0:	fc050ce3          	beqz	a0,12f78 <__svfscanf_r+0x7d8>
   12fa4:	b4040ae3          	beqz	s0,12af8 <__svfscanf_r+0x358>
   12fa8:	00890933          	add	s2,s2,s0
   12fac:	8adff06f          	j	12858 <__svfscanf_r+0xb8>
   12fb0:	40970733          	sub	a4,a4,s1
   12fb4:	00950533          	add	a0,a0,s1
   12fb8:	00940433          	add	s0,s0,s1
   12fbc:	00eba223          	sw	a4,4(s7)
   12fc0:	00aba023          	sw	a0,0(s7)
   12fc4:	fe5ff06f          	j	12fa8 <__svfscanf_r+0x808>
   12fc8:	000aa583          	lw	a1,0(s5)
   12fcc:	000b8713          	mv	a4,s7
   12fd0:	00048693          	mv	a3,s1
   12fd4:	00100613          	li	a2,1
   12fd8:	00098513          	mv	a0,s3
   12fdc:	004a8413          	addi	s0,s5,4
   12fe0:	3c8010ef          	jal	ra,143a8 <_fread_r>
   12fe4:	b0050ae3          	beqz	a0,12af8 <__svfscanf_r+0x358>
   12fe8:	00a90933          	add	s2,s2,a0
   12fec:	001b0b13          	addi	s6,s6,1
   12ff0:	00040a93          	mv	s5,s0
   12ff4:	865ff06f          	j	12858 <__svfscanf_r+0xb8>
   12ff8:	00049463          	bnez	s1,13000 <__svfscanf_r+0x860>
   12ffc:	fff00493          	li	s1,-1
   13000:	01047413          	andi	s0,s0,16
   13004:	0c041a63          	bnez	s0,130d8 <__svfscanf_r+0x938>
   13008:	000aa403          	lw	s0,0(s5)
   1300c:	004a8c13          	addi	s8,s5,4
   13010:	009404b3          	add	s1,s0,s1
   13014:	00040a93          	mv	s5,s0
   13018:	000ba683          	lw	a3,0(s7)
   1301c:	4d010793          	addi	a5,sp,1232
   13020:	0006c703          	lbu	a4,0(a3)
   13024:	00e78733          	add	a4,a5,a4
   13028:	b9074703          	lbu	a4,-1136(a4)
   1302c:	04070263          	beqz	a4,13070 <__svfscanf_r+0x8d0>
   13030:	004ba703          	lw	a4,4(s7)
   13034:	001a8a93          	addi	s5,s5,1
   13038:	fff70713          	addi	a4,a4,-1
   1303c:	00eba223          	sw	a4,4(s7)
   13040:	00168713          	addi	a4,a3,1
   13044:	00eba023          	sw	a4,0(s7)
   13048:	0006c703          	lbu	a4,0(a3)
   1304c:	feea8fa3          	sb	a4,-1(s5)
   13050:	029a8063          	beq	s5,s1,13070 <__svfscanf_r+0x8d0>
   13054:	004ba703          	lw	a4,4(s7)
   13058:	fce040e3          	bgtz	a4,13018 <__svfscanf_r+0x878>
   1305c:	000b8593          	mv	a1,s7
   13060:	00098513          	mv	a0,s3
   13064:	6a1050ef          	jal	ra,18f04 <__srefill_r>
   13068:	fa0508e3          	beqz	a0,13018 <__svfscanf_r+0x878>
   1306c:	a95406e3          	beq	s0,s5,12af8 <__svfscanf_r+0x358>
   13070:	408a8433          	sub	s0,s5,s0
   13074:	a20406e3          	beqz	s0,12aa0 <__svfscanf_r+0x300>
   13078:	000a8023          	sb	zero,0(s5)
   1307c:	001b0b13          	addi	s6,s6,1
   13080:	000c0a93          	mv	s5,s8
   13084:	f25ff06f          	j	12fa8 <__svfscanf_r+0x808>
   13088:	004ba683          	lw	a3,4(s7)
   1308c:	00170713          	addi	a4,a4,1
   13090:	00140413          	addi	s0,s0,1
   13094:	fff68693          	addi	a3,a3,-1
   13098:	00dba223          	sw	a3,4(s7)
   1309c:	00eba023          	sw	a4,0(s7)
   130a0:	f08484e3          	beq	s1,s0,12fa8 <__svfscanf_r+0x808>
   130a4:	00d04a63          	bgtz	a3,130b8 <__svfscanf_r+0x918>
   130a8:	000b8593          	mv	a1,s7
   130ac:	00098513          	mv	a0,s3
   130b0:	655050ef          	jal	ra,18f04 <__srefill_r>
   130b4:	ee051ae3          	bnez	a0,12fa8 <__svfscanf_r+0x808>
   130b8:	000ba703          	lw	a4,0(s7)
   130bc:	4d010793          	addi	a5,sp,1232
   130c0:	00074683          	lbu	a3,0(a4)
   130c4:	00d786b3          	add	a3,a5,a3
   130c8:	b906c683          	lbu	a3,-1136(a3)
   130cc:	fa069ee3          	bnez	a3,13088 <__svfscanf_r+0x8e8>
   130d0:	ec041ce3          	bnez	s0,12fa8 <__svfscanf_r+0x808>
   130d4:	9cdff06f          	j	12aa0 <__svfscanf_r+0x300>
   130d8:	00000413          	li	s0,0
   130dc:	fddff06f          	j	130b8 <__svfscanf_r+0x918>
   130e0:	00049463          	bnez	s1,130e8 <__svfscanf_r+0x948>
   130e4:	fff00493          	li	s1,-1
   130e8:	00147c13          	andi	s8,s0,1
   130ec:	01047413          	andi	s0,s0,16
   130f0:	180c0663          	beqz	s8,1327c <__svfscanf_r+0xadc>
   130f4:	fffff7b7          	lui	a5,0xfffff
   130f8:	b8878513          	addi	a0,a5,-1144 # ffffeb88 <__global_pointer$+0xfffd2470>
   130fc:	000017b7          	lui	a5,0x1
   13100:	49078793          	addi	a5,a5,1168 # 1490 <sulp-0xebe4>
   13104:	04010713          	addi	a4,sp,64
   13108:	00e787b3          	add	a5,a5,a4
   1310c:	00800613          	li	a2,8
   13110:	00000593          	li	a1,0
   13114:	00a78533          	add	a0,a5,a0
   13118:	ab8fd0ef          	jal	ra,103d0 <memset>
   1311c:	0c041e63          	bnez	s0,131f8 <__svfscanf_r+0xa58>
   13120:	000aac03          	lw	s8,0(s5)
   13124:	004a8a93          	addi	s5,s5,4
   13128:	00001737          	lui	a4,0x1
   1312c:	49070793          	addi	a5,a4,1168 # 1490 <sulp-0xebe4>
   13130:	04010693          	addi	a3,sp,64
   13134:	00d787b3          	add	a5,a5,a3
   13138:	fffff6b7          	lui	a3,0xfffff
   1313c:	00d787b3          	add	a5,a5,a3
   13140:	00f12623          	sw	a5,12(sp)
   13144:	49070793          	addi	a5,a4,1168
   13148:	04010713          	addi	a4,sp,64
   1314c:	b8868c93          	addi	s9,a3,-1144 # ffffeb88 <__global_pointer$+0xfffd2470>
   13150:	00e787b3          	add	a5,a5,a4
   13154:	00000d13          	li	s10,0
   13158:	01978cb3          	add	s9,a5,s9
   1315c:	661030ef          	jal	ra,16fbc <__locale_ctype_ptr>
   13160:	000ba683          	lw	a3,0(s7)
   13164:	0006c683          	lbu	a3,0(a3)
   13168:	00d50533          	add	a0,a0,a3
   1316c:	00154683          	lbu	a3,1(a0)
   13170:	0086f693          	andi	a3,a3,8
   13174:	06069c63          	bnez	a3,131ec <__svfscanf_r+0xa4c>
   13178:	06048a63          	beqz	s1,131ec <__svfscanf_r+0xa4c>
   1317c:	61d030ef          	jal	ra,16f98 <__locale_mb_cur_max>
   13180:	97a50ce3          	beq	a0,s10,12af8 <__svfscanf_r+0x358>
   13184:	000ba683          	lw	a3,0(s7)
   13188:	00c12783          	lw	a5,12(sp)
   1318c:	001d0d93          	addi	s11,s10,1
   13190:	0006c603          	lbu	a2,0(a3)
   13194:	01a78733          	add	a4,a5,s10
   13198:	00168693          	addi	a3,a3,1
   1319c:	c8c70823          	sb	a2,-880(a4)
   131a0:	004ba703          	lw	a4,4(s7)
   131a4:	00812603          	lw	a2,8(sp)
   131a8:	00dba023          	sw	a3,0(s7)
   131ac:	fff70713          	addi	a4,a4,-1
   131b0:	00eba223          	sw	a4,4(s7)
   131b4:	000d8693          	mv	a3,s11
   131b8:	000c8713          	mv	a4,s9
   131bc:	000c0593          	mv	a1,s8
   131c0:	00098513          	mv	a0,s3
   131c4:	5f4040ef          	jal	ra,177b8 <_mbrtowc_r>
   131c8:	fff00793          	li	a5,-1
   131cc:	92f506e3          	beq	a0,a5,12af8 <__svfscanf_r+0x358>
   131d0:	04051463          	bnez	a0,13218 <__svfscanf_r+0xa78>
   131d4:	000c2023          	sw	zero,0(s8)
   131d8:	000c2503          	lw	a0,0(s8)
   131dc:	451010ef          	jal	ra,14e2c <iswspace>
   131e0:	00050d13          	mv	s10,a0
   131e4:	08050063          	beqz	a0,13264 <__svfscanf_r+0xac4>
   131e8:	040d9e63          	bnez	s11,13244 <__svfscanf_r+0xaa4>
   131ec:	e6041663          	bnez	s0,12858 <__svfscanf_r+0xb8>
   131f0:	000c2023          	sw	zero,0(s8)
   131f4:	d69ff06f          	j	12f5c <__svfscanf_r+0x7bc>
   131f8:	fffff7b7          	lui	a5,0xfffff
   131fc:	b8478c13          	addi	s8,a5,-1148 # ffffeb84 <__global_pointer$+0xfffd246c>
   13200:	000017b7          	lui	a5,0x1
   13204:	49078793          	addi	a5,a5,1168 # 1490 <sulp-0xebe4>
   13208:	04010713          	addi	a4,sp,64
   1320c:	00e787b3          	add	a5,a5,a4
   13210:	01878c33          	add	s8,a5,s8
   13214:	f15ff06f          	j	13128 <__svfscanf_r+0x988>
   13218:	ffe00693          	li	a3,-2
   1321c:	000d8d13          	mv	s10,s11
   13220:	fad51ce3          	bne	a0,a3,131d8 <__svfscanf_r+0xa38>
   13224:	004ba683          	lw	a3,4(s7)
   13228:	f2d04ae3          	bgtz	a3,1315c <__svfscanf_r+0x9bc>
   1322c:	000b8593          	mv	a1,s7
   13230:	00098513          	mv	a0,s3
   13234:	4d1050ef          	jal	ra,18f04 <__srefill_r>
   13238:	f20502e3          	beqz	a0,1315c <__svfscanf_r+0x9bc>
   1323c:	8a0d1ee3          	bnez	s10,12af8 <__svfscanf_r+0x358>
   13240:	fadff06f          	j	131ec <__svfscanf_r+0xa4c>
   13244:	00812783          	lw	a5,8(sp)
   13248:	fffd8d93          	addi	s11,s11,-1
   1324c:	000b8613          	mv	a2,s7
   13250:	01b78733          	add	a4,a5,s11
   13254:	00074583          	lbu	a1,0(a4)
   13258:	00098513          	mv	a0,s3
   1325c:	6900a0ef          	jal	ra,1d8ec <_ungetc_r>
   13260:	f89ff06f          	j	131e8 <__svfscanf_r+0xa48>
   13264:	01b90933          	add	s2,s2,s11
   13268:	fff48493          	addi	s1,s1,-1
   1326c:	fa041ce3          	bnez	s0,13224 <__svfscanf_r+0xa84>
   13270:	004c0c13          	addi	s8,s8,4
   13274:	00040d13          	mv	s10,s0
   13278:	fadff06f          	j	13224 <__svfscanf_r+0xa84>
   1327c:	0a041663          	bnez	s0,13328 <__svfscanf_r+0xb88>
   13280:	000aac03          	lw	s8,0(s5)
   13284:	004a8413          	addi	s0,s5,4
   13288:	009c04b3          	add	s1,s8,s1
   1328c:	000c0a93          	mv	s5,s8
   13290:	52d030ef          	jal	ra,16fbc <__locale_ctype_ptr>
   13294:	000ba683          	lw	a3,0(s7)
   13298:	0006c703          	lbu	a4,0(a3)
   1329c:	00e50533          	add	a0,a0,a4
   132a0:	00154703          	lbu	a4,1(a0)
   132a4:	00877713          	andi	a4,a4,8
   132a8:	04071063          	bnez	a4,132e8 <__svfscanf_r+0xb48>
   132ac:	004ba703          	lw	a4,4(s7)
   132b0:	001a8a93          	addi	s5,s5,1
   132b4:	fff70713          	addi	a4,a4,-1
   132b8:	00eba223          	sw	a4,4(s7)
   132bc:	00168713          	addi	a4,a3,1
   132c0:	00eba023          	sw	a4,0(s7)
   132c4:	0006c703          	lbu	a4,0(a3)
   132c8:	feea8fa3          	sb	a4,-1(s5)
   132cc:	009a8e63          	beq	s5,s1,132e8 <__svfscanf_r+0xb48>
   132d0:	004ba703          	lw	a4,4(s7)
   132d4:	fae04ee3          	bgtz	a4,13290 <__svfscanf_r+0xaf0>
   132d8:	000b8593          	mv	a1,s7
   132dc:	00098513          	mv	a0,s3
   132e0:	425050ef          	jal	ra,18f04 <__srefill_r>
   132e4:	fa0506e3          	beqz	a0,13290 <__svfscanf_r+0xaf0>
   132e8:	000a8023          	sb	zero,0(s5)
   132ec:	418a8ab3          	sub	s5,s5,s8
   132f0:	01590933          	add	s2,s2,s5
   132f4:	cf9ff06f          	j	12fec <__svfscanf_r+0x84c>
   132f8:	004ba683          	lw	a3,4(s7)
   132fc:	00170713          	addi	a4,a4,1
   13300:	001c0c13          	addi	s8,s8,1
   13304:	fff68693          	addi	a3,a3,-1
   13308:	00dba223          	sw	a3,4(s7)
   1330c:	00eba023          	sw	a4,0(s7)
   13310:	03848a63          	beq	s1,s8,13344 <__svfscanf_r+0xba4>
   13314:	00d04a63          	bgtz	a3,13328 <__svfscanf_r+0xb88>
   13318:	000b8593          	mv	a1,s7
   1331c:	00098513          	mv	a0,s3
   13320:	3e5050ef          	jal	ra,18f04 <__srefill_r>
   13324:	02051063          	bnez	a0,13344 <__svfscanf_r+0xba4>
   13328:	495030ef          	jal	ra,16fbc <__locale_ctype_ptr>
   1332c:	000ba703          	lw	a4,0(s7)
   13330:	00074683          	lbu	a3,0(a4)
   13334:	00d50533          	add	a0,a0,a3
   13338:	00154683          	lbu	a3,1(a0)
   1333c:	0086f693          	andi	a3,a3,8
   13340:	fa068ce3          	beqz	a3,132f8 <__svfscanf_r+0xb58>
   13344:	01890933          	add	s2,s2,s8
   13348:	d10ff06f          	j	12858 <__svfscanf_r+0xb8>
   1334c:	000016b7          	lui	a3,0x1
   13350:	fff48713          	addi	a4,s1,-1
   13354:	36c68613          	addi	a2,a3,876 # 136c <sulp-0xed08>
   13358:	00000d13          	li	s10,0
   1335c:	00e67a63          	bleu	a4,a2,13370 <__svfscanf_r+0xbd0>
   13360:	fffff7b7          	lui	a5,0xfffff
   13364:	c9378d13          	addi	s10,a5,-877 # ffffec93 <__global_pointer$+0xfffd257b>
   13368:	01a48d33          	add	s10,s1,s10
   1336c:	36d68493          	addi	s1,a3,877
   13370:	00001db7          	lui	s11,0x1
   13374:	00812c83          	lw	s9,8(sp)
   13378:	d80d8713          	addi	a4,s11,-640 # d80 <sulp-0xf2f4>
   1337c:	fffff7b7          	lui	a5,0xfffff
   13380:	00e46433          	or	s0,s0,a4
   13384:	00000c13          	li	s8,0
   13388:	03900893          	li	a7,57
   1338c:	05800813          	li	a6,88
   13390:	47f78613          	addi	a2,a5,1151 # fffff47f <__global_pointer$+0xfffd2d67>
   13394:	800d8d93          	addi	s11,s11,-2048
   13398:	000ba683          	lw	a3,0(s7)
   1339c:	0006c703          	lbu	a4,0(a3)
   133a0:	08e8ea63          	bltu	a7,a4,13434 <__svfscanf_r+0xc94>
   133a4:	03800593          	li	a1,56
   133a8:	14b77c63          	bleu	a1,a4,13500 <__svfscanf_r+0xd60>
   133ac:	03000593          	li	a1,48
   133b0:	0cb70a63          	beq	a4,a1,13484 <__svfscanf_r+0xce4>
   133b4:	12e5ea63          	bltu	a1,a4,134e8 <__svfscanf_r+0xd48>
   133b8:	02b00593          	li	a1,43
   133bc:	16b70063          	beq	a4,a1,1351c <__svfscanf_r+0xd7c>
   133c0:	02d00593          	li	a1,45
   133c4:	14b70c63          	beq	a4,a1,1351c <__svfscanf_r+0xd7c>
   133c8:	10047713          	andi	a4,s0,256
   133cc:	02070663          	beqz	a4,133f8 <__svfscanf_r+0xc58>
   133d0:	00812783          	lw	a5,8(sp)
   133d4:	0197fe63          	bleu	s9,a5,133f0 <__svfscanf_r+0xc50>
   133d8:	fffcc583          	lbu	a1,-1(s9)
   133dc:	fffc8493          	addi	s1,s9,-1
   133e0:	000b8613          	mv	a2,s7
   133e4:	00098513          	mv	a0,s3
   133e8:	5040a0ef          	jal	ra,1d8ec <_ungetc_r>
   133ec:	00048c93          	mv	s9,s1
   133f0:	00812783          	lw	a5,8(sp)
   133f4:	eafc8663          	beq	s9,a5,12aa0 <__svfscanf_r+0x300>
   133f8:	01047713          	andi	a4,s0,16
   133fc:	16071a63          	bnez	a4,13570 <__svfscanf_r+0xdd0>
   13400:	00812583          	lw	a1,8(sp)
   13404:	00012783          	lw	a5,0(sp)
   13408:	000a0693          	mv	a3,s4
   1340c:	00000613          	li	a2,0
   13410:	00098513          	mv	a0,s3
   13414:	000c8023          	sb	zero,0(s9)
   13418:	000780e7          	jalr	a5
   1341c:	02047713          	andi	a4,s0,32
   13420:	004a8493          	addi	s1,s5,4
   13424:	12070a63          	beqz	a4,13558 <__svfscanf_r+0xdb8>
   13428:	000aa703          	lw	a4,0(s5)
   1342c:	00a72023          	sw	a0,0(a4)
   13430:	1380006f          	j	13568 <__svfscanf_r+0xdc8>
   13434:	03070a63          	beq	a4,a6,13468 <__svfscanf_r+0xcc8>
   13438:	00e86c63          	bltu	a6,a4,13450 <__svfscanf_r+0xcb0>
   1343c:	fbf70593          	addi	a1,a4,-65
   13440:	00500513          	li	a0,5
   13444:	f8b562e3          	bltu	a0,a1,133c8 <__svfscanf_r+0xc28>
   13448:	00a00593          	li	a1,10
   1344c:	0c80006f          	j	13514 <__svfscanf_r+0xd74>
   13450:	06100593          	li	a1,97
   13454:	f6b76ae3          	bltu	a4,a1,133c8 <__svfscanf_r+0xc28>
   13458:	06600593          	li	a1,102
   1345c:	fee5f6e3          	bleu	a4,a1,13448 <__svfscanf_r+0xca8>
   13460:	07800593          	li	a1,120
   13464:	f6b712e3          	bne	a4,a1,133c8 <__svfscanf_r+0xc28>
   13468:	60047593          	andi	a1,s0,1536
   1346c:	20000513          	li	a0,512
   13470:	f4a59ce3          	bne	a1,a0,133c8 <__svfscanf_r+0xc28>
   13474:	dff47413          	andi	s0,s0,-513
   13478:	50046413          	ori	s0,s0,1280
   1347c:	01000a13          	li	s4,16
   13480:	0240006f          	j	134a4 <__svfscanf_r+0xd04>
   13484:	01b475b3          	and	a1,s0,s11
   13488:	00058e63          	beqz	a1,134a4 <__svfscanf_r+0xd04>
   1348c:	000a1663          	bnez	s4,13498 <__svfscanf_r+0xcf8>
   13490:	20046413          	ori	s0,s0,512
   13494:	00800a13          	li	s4,8
   13498:	40047593          	andi	a1,s0,1024
   1349c:	00058a63          	beqz	a1,134b0 <__svfscanf_r+0xd10>
   134a0:	a7f47413          	andi	s0,s0,-1409
   134a4:	00ec8023          	sb	a4,0(s9)
   134a8:	001c8c93          	addi	s9,s9,1
   134ac:	0180006f          	j	134c4 <__svfscanf_r+0xd24>
   134b0:	c7f47413          	andi	s0,s0,-897
   134b4:	000d0663          	beqz	s10,134c0 <__svfscanf_r+0xd20>
   134b8:	fffd0d13          	addi	s10,s10,-1
   134bc:	00148493          	addi	s1,s1,1
   134c0:	001c0c13          	addi	s8,s8,1
   134c4:	004ba703          	lw	a4,4(s7)
   134c8:	fff70713          	addi	a4,a4,-1
   134cc:	00eba223          	sw	a4,4(s7)
   134d0:	04e05e63          	blez	a4,1352c <__svfscanf_r+0xd8c>
   134d4:	00168693          	addi	a3,a3,1
   134d8:	00dba023          	sw	a3,0(s7)
   134dc:	fff48493          	addi	s1,s1,-1
   134e0:	ea049ce3          	bnez	s1,13398 <__svfscanf_r+0xbf8>
   134e4:	ee5ff06f          	j	133c8 <__svfscanf_r+0xc28>
   134e8:	01412783          	lw	a5,20(sp)
   134ec:	001a1a13          	slli	s4,s4,0x1
   134f0:	01478a33          	add	s4,a5,s4
   134f4:	000a1a03          	lh	s4,0(s4)
   134f8:	00c47433          	and	s0,s0,a2
   134fc:	fa9ff06f          	j	134a4 <__svfscanf_r+0xd04>
   13500:	01412783          	lw	a5,20(sp)
   13504:	001a1a13          	slli	s4,s4,0x1
   13508:	00800593          	li	a1,8
   1350c:	01478a33          	add	s4,a5,s4
   13510:	000a1a03          	lh	s4,0(s4)
   13514:	ff45c2e3          	blt	a1,s4,134f8 <__svfscanf_r+0xd58>
   13518:	eb1ff06f          	j	133c8 <__svfscanf_r+0xc28>
   1351c:	08047593          	andi	a1,s0,128
   13520:	ea0584e3          	beqz	a1,133c8 <__svfscanf_r+0xc28>
   13524:	f7f47413          	andi	s0,s0,-129
   13528:	f7dff06f          	j	134a4 <__svfscanf_r+0xd04>
   1352c:	000b8593          	mv	a1,s7
   13530:	00098513          	mv	a0,s3
   13534:	00c12c23          	sw	a2,24(sp)
   13538:	01012823          	sw	a6,16(sp)
   1353c:	01112623          	sw	a7,12(sp)
   13540:	1c5050ef          	jal	ra,18f04 <__srefill_r>
   13544:	00c12883          	lw	a7,12(sp)
   13548:	01012803          	lw	a6,16(sp)
   1354c:	01812603          	lw	a2,24(sp)
   13550:	f80506e3          	beqz	a0,134dc <__svfscanf_r+0xd3c>
   13554:	e75ff06f          	j	133c8 <__svfscanf_r+0xc28>
   13558:	00847713          	andi	a4,s0,8
   1355c:	02070263          	beqz	a4,13580 <__svfscanf_r+0xde0>
   13560:	000aa703          	lw	a4,0(s5)
   13564:	00a70023          	sb	a0,0(a4)
   13568:	001b0b13          	addi	s6,s6,1
   1356c:	00048a93          	mv	s5,s1
   13570:	00812783          	lw	a5,8(sp)
   13574:	40fc8cb3          	sub	s9,s9,a5
   13578:	018c8c33          	add	s8,s9,s8
   1357c:	dc9ff06f          	j	13344 <__svfscanf_r+0xba4>
   13580:	00447713          	andi	a4,s0,4
   13584:	00070863          	beqz	a4,13594 <__svfscanf_r+0xdf4>
   13588:	000aa703          	lw	a4,0(s5)
   1358c:	00a71023          	sh	a0,0(a4)
   13590:	fd9ff06f          	j	13568 <__svfscanf_r+0xdc8>
   13594:	00147713          	andi	a4,s0,1
   13598:	e80718e3          	bnez	a4,13428 <__svfscanf_r+0xc88>
   1359c:	00247413          	andi	s0,s0,2
   135a0:	e80404e3          	beqz	s0,13428 <__svfscanf_r+0xc88>
   135a4:	0001c7b7          	lui	a5,0x1c
   135a8:	80878713          	addi	a4,a5,-2040 # 1b808 <_strtoul_r>
   135ac:	00012783          	lw	a5,0(sp)
   135b0:	000a0693          	mv	a3,s4
   135b4:	00000613          	li	a2,0
   135b8:	00812583          	lw	a1,8(sp)
   135bc:	00098513          	mv	a0,s3
   135c0:	00e79c63          	bne	a5,a4,135d8 <__svfscanf_r+0xe38>
   135c4:	7f1070ef          	jal	ra,1b5b4 <_strtoull_r>
   135c8:	000aa703          	lw	a4,0(s5)
   135cc:	00a72023          	sw	a0,0(a4)
   135d0:	00b72223          	sw	a1,4(a4)
   135d4:	f95ff06f          	j	13568 <__svfscanf_r+0xdc8>
   135d8:	13d070ef          	jal	ra,1af14 <_strtoll_r>
   135dc:	fedff06f          	j	135c8 <__svfscanf_r+0xe28>
   135e0:	04500513          	li	a0,69
   135e4:	08a68c63          	beq	a3,a0,1367c <__svfscanf_r+0xedc>
   135e8:	02d56663          	bltu	a0,a3,13614 <__svfscanf_r+0xe74>
   135ec:	04100513          	li	a0,65
   135f0:	18a68663          	beq	a3,a0,1377c <__svfscanf_r+0xfdc>
   135f4:	01812783          	lw	a5,24(sp)
   135f8:	0007c503          	lbu	a0,0(a5)
   135fc:	18d51263          	bne	a0,a3,13780 <__svfscanf_r+0xfe0>
   13600:	20047513          	andi	a0,s0,512
   13604:	16050e63          	beqz	a0,13780 <__svfscanf_r+0xfe0>
   13608:	d7f47413          	andi	s0,s0,-641
   1360c:	01812623          	sw	s8,12(sp)
   13610:	12c0006f          	j	1373c <__svfscanf_r+0xf9c>
   13614:	04600513          	li	a0,70
   13618:	1ca68263          	beq	a3,a0,137dc <__svfscanf_r+0x103c>
   1361c:	04900513          	li	a0,73
   13620:	fca69ae3          	bne	a3,a0,135f4 <__svfscanf_r+0xe54>
   13624:	1a0c9463          	bnez	s9,137cc <__svfscanf_r+0x102c>
   13628:	140c1e63          	bnez	s8,13784 <__svfscanf_r+0xfe4>
   1362c:	70047513          	andi	a0,s0,1792
   13630:	15e51c63          	bne	a0,t5,13788 <__svfscanf_r+0xfe8>
   13634:	87f47413          	andi	s0,s0,-1921
   13638:	00100c93          	li	s9,1
   1363c:	1000006f          	j	1373c <__svfscanf_r+0xf9c>
   13640:	19f68e63          	beq	a3,t6,137dc <__svfscanf_r+0x103c>
   13644:	06dfea63          	bltu	t6,a3,136b8 <__svfscanf_r+0xf18>
   13648:	05900513          	li	a0,89
   1364c:	08a68863          	beq	a3,a0,136dc <__svfscanf_r+0xf3c>
   13650:	00d56e63          	bltu	a0,a3,1366c <__svfscanf_r+0xecc>
   13654:	05400513          	li	a0,84
   13658:	f8a69ee3          	bne	a3,a0,135f4 <__svfscanf_r+0xe54>
   1365c:	00600513          	li	a0,6
   13660:	12ac9063          	bne	s9,a0,13780 <__svfscanf_r+0xfe0>
   13664:	00700c93          	li	s9,7
   13668:	0d40006f          	j	1373c <__svfscanf_r+0xf9c>
   1366c:	06100513          	li	a0,97
   13670:	10a68663          	beq	a3,a0,1377c <__svfscanf_r+0xfdc>
   13674:	06500513          	li	a0,101
   13678:	f6a69ee3          	bne	a3,a0,135f4 <__svfscanf_r+0xe54>
   1367c:	50047513          	andi	a0,s0,1280
   13680:	00550863          	beq	a0,t0,13690 <__svfscanf_r+0xef0>
   13684:	40047513          	andi	a0,s0,1024
   13688:	0e050c63          	beqz	a0,13780 <__svfscanf_r+0xfe0>
   1368c:	0e0c0e63          	beqz	s8,13788 <__svfscanf_r+0xfe8>
   13690:	20047513          	andi	a0,s0,512
   13694:	00051a63          	bnez	a0,136a8 <__svfscanf_r+0xf08>
   13698:	00c12783          	lw	a5,12(sp)
   1369c:	000d0d93          	mv	s11,s10
   136a0:	40fc07b3          	sub	a5,s8,a5
   136a4:	00f12823          	sw	a5,16(sp)
   136a8:	87f47413          	andi	s0,s0,-1921
   136ac:	18046413          	ori	s0,s0,384
   136b0:	00000c13          	li	s8,0
   136b4:	0880006f          	j	1373c <__svfscanf_r+0xf9c>
   136b8:	06e00513          	li	a0,110
   136bc:	08a68663          	beq	a3,a0,13748 <__svfscanf_r+0xfa8>
   136c0:	00d56663          	bltu	a0,a3,136cc <__svfscanf_r+0xf2c>
   136c4:	06900513          	li	a0,105
   136c8:	f59ff06f          	j	13620 <__svfscanf_r+0xe80>
   136cc:	07400513          	li	a0,116
   136d0:	f8a686e3          	beq	a3,a0,1365c <__svfscanf_r+0xebc>
   136d4:	07900513          	li	a0,121
   136d8:	f0a69ee3          	bne	a3,a0,135f4 <__svfscanf_r+0xe54>
   136dc:	00700513          	li	a0,7
   136e0:	0aac9063          	bne	s9,a0,13780 <__svfscanf_r+0xfe0>
   136e4:	00800c93          	li	s9,8
   136e8:	0540006f          	j	1373c <__svfscanf_r+0xf9c>
   136ec:	10047513          	andi	a0,s0,256
   136f0:	04050063          	beqz	a0,13730 <__svfscanf_r+0xf90>
   136f4:	f7f47413          	andi	s0,s0,-129
   136f8:	001c0c13          	addi	s8,s8,1
   136fc:	00088663          	beqz	a7,13708 <__svfscanf_r+0xf68>
   13700:	fff88893          	addi	a7,a7,-1
   13704:	00148493          	addi	s1,s1,1
   13708:	004ba683          	lw	a3,4(s7)
   1370c:	fff48493          	addi	s1,s1,-1
   13710:	00190913          	addi	s2,s2,1
   13714:	fff68693          	addi	a3,a3,-1
   13718:	00dba223          	sw	a3,4(s7)
   1371c:	0cd05e63          	blez	a3,137f8 <__svfscanf_r+0x1058>
   13720:	00158593          	addi	a1,a1,1
   13724:	00bba023          	sw	a1,0(s7)
   13728:	fc049263          	bnez	s1,12eec <__svfscanf_r+0x74c>
   1372c:	0540006f          	j	13780 <__svfscanf_r+0xfe0>
   13730:	01960533          	add	a0,a2,s9
   13734:	04051663          	bnez	a0,13780 <__svfscanf_r+0xfe0>
   13738:	e7f47413          	andi	s0,s0,-385
   1373c:	00dd0023          	sb	a3,0(s10)
   13740:	001d0d13          	addi	s10,s10,1
   13744:	fc5ff06f          	j	13708 <__svfscanf_r+0xf68>
   13748:	00061e63          	bnez	a2,13764 <__svfscanf_r+0xfc4>
   1374c:	000c1e63          	bnez	s8,13768 <__svfscanf_r+0xfc8>
   13750:	70047513          	andi	a0,s0,1792
   13754:	01e51a63          	bne	a0,t5,13768 <__svfscanf_r+0xfc8>
   13758:	87f47413          	andi	s0,s0,-1921
   1375c:	00100613          	li	a2,1
   13760:	fddff06f          	j	1373c <__svfscanf_r+0xf9c>
   13764:	09d60263          	beq	a2,t4,137e8 <__svfscanf_r+0x1048>
   13768:	01cc8463          	beq	s9,t3,13770 <__svfscanf_r+0xfd0>
   1376c:	007c9a63          	bne	s9,t2,13780 <__svfscanf_r+0xfe0>
   13770:	001c8c93          	addi	s9,s9,1
   13774:	0ffcfc93          	andi	s9,s9,255
   13778:	fc5ff06f          	j	1373c <__svfscanf_r+0xf9c>
   1377c:	07c60a63          	beq	a2,t3,137f0 <__svfscanf_r+0x1050>
   13780:	000c0463          	beqz	s8,13788 <__svfscanf_r+0xfe8>
   13784:	eff47413          	andi	s0,s0,-257
   13788:	fff60613          	addi	a2,a2,-1
   1378c:	00100693          	li	a3,1
   13790:	0cc6e263          	bltu	a3,a2,13854 <__svfscanf_r+0x10b4>
   13794:	000017b7          	lui	a5,0x1
   13798:	fffff437          	lui	s0,0xfffff
   1379c:	49078793          	addi	a5,a5,1168 # 1490 <sulp-0xebe4>
   137a0:	04010713          	addi	a4,sp,64
   137a4:	c9040413          	addi	s0,s0,-880 # ffffec90 <__global_pointer$+0xfffd2578>
   137a8:	00e787b3          	add	a5,a5,a4
   137ac:	00878433          	add	s0,a5,s0
   137b0:	afa47863          	bleu	s10,s0,12aa0 <__svfscanf_r+0x300>
   137b4:	fffd0d13          	addi	s10,s10,-1
   137b8:	000d4583          	lbu	a1,0(s10)
   137bc:	000b8613          	mv	a2,s7
   137c0:	00098513          	mv	a0,s3
   137c4:	1280a0ef          	jal	ra,1d8ec <_ungetc_r>
   137c8:	fe9ff06f          	j	137b0 <__svfscanf_r+0x1010>
   137cc:	ffdc8513          	addi	a0,s9,-3
   137d0:	0fd57513          	andi	a0,a0,253
   137d4:	f8050ee3          	beqz	a0,13770 <__svfscanf_r+0xfd0>
   137d8:	fa9ff06f          	j	13780 <__svfscanf_r+0xfe0>
   137dc:	fbdc92e3          	bne	s9,t4,13780 <__svfscanf_r+0xfe0>
   137e0:	00300c93          	li	s9,3
   137e4:	f59ff06f          	j	1373c <__svfscanf_r+0xf9c>
   137e8:	00300613          	li	a2,3
   137ec:	f51ff06f          	j	1373c <__svfscanf_r+0xf9c>
   137f0:	00200613          	li	a2,2
   137f4:	f49ff06f          	j	1373c <__svfscanf_r+0xf9c>
   137f8:	000b8593          	mv	a1,s7
   137fc:	00098513          	mv	a0,s3
   13800:	03f12e23          	sw	t6,60(sp)
   13804:	02512c23          	sw	t0,56(sp)
   13808:	03e12a23          	sw	t5,52(sp)
   1380c:	03d12823          	sw	t4,48(sp)
   13810:	02712623          	sw	t2,44(sp)
   13814:	03c12423          	sw	t3,40(sp)
   13818:	02612223          	sw	t1,36(sp)
   1381c:	02c12023          	sw	a2,32(sp)
   13820:	01112e23          	sw	a7,28(sp)
   13824:	6e0050ef          	jal	ra,18f04 <__srefill_r>
   13828:	01c12883          	lw	a7,28(sp)
   1382c:	02012603          	lw	a2,32(sp)
   13830:	02412303          	lw	t1,36(sp)
   13834:	02812e03          	lw	t3,40(sp)
   13838:	02c12383          	lw	t2,44(sp)
   1383c:	03012e83          	lw	t4,48(sp)
   13840:	03412f03          	lw	t5,52(sp)
   13844:	03812283          	lw	t0,56(sp)
   13848:	03c12f83          	lw	t6,60(sp)
   1384c:	ec050ee3          	beqz	a0,13728 <__svfscanf_r+0xf88>
   13850:	f31ff06f          	j	13780 <__svfscanf_r+0xfe0>
   13854:	fffc8693          	addi	a3,s9,-1
   13858:	00600613          	li	a2,6
   1385c:	08d66263          	bltu	a2,a3,138e0 <__svfscanf_r+0x1140>
   13860:	00200693          	li	a3,2
   13864:	0d96e263          	bltu	a3,s9,13928 <__svfscanf_r+0x1188>
   13868:	000017b7          	lui	a5,0x1
   1386c:	fffff437          	lui	s0,0xfffff
   13870:	49078793          	addi	a5,a5,1168 # 1490 <sulp-0xebe4>
   13874:	04010713          	addi	a4,sp,64
   13878:	c9040413          	addi	s0,s0,-880 # ffffec90 <__global_pointer$+0xfffd2578>
   1387c:	00e787b3          	add	a5,a5,a4
   13880:	00878433          	add	s0,a5,s0
   13884:	a1a47e63          	bleu	s10,s0,12aa0 <__svfscanf_r+0x300>
   13888:	fffd0d13          	addi	s10,s10,-1
   1388c:	000d4583          	lbu	a1,0(s10)
   13890:	000b8613          	mv	a2,s7
   13894:	00098513          	mv	a0,s3
   13898:	0540a0ef          	jal	ra,1d8ec <_ungetc_r>
   1389c:	fe9ff06f          	j	13884 <__svfscanf_r+0x10e4>
   138a0:	fff6c583          	lbu	a1,-1(a3)
   138a4:	000b8613          	mv	a2,s7
   138a8:	fff68693          	addi	a3,a3,-1
   138ac:	00098513          	mv	a0,s3
   138b0:	01112e23          	sw	a7,28(sp)
   138b4:	00d12c23          	sw	a3,24(sp)
   138b8:	0340a0ef          	jal	ra,1d8ec <_ungetc_r>
   138bc:	01812683          	lw	a3,24(sp)
   138c0:	01c12883          	lw	a7,28(sp)
   138c4:	fff48493          	addi	s1,s1,-1
   138c8:	0ff4f493          	andi	s1,s1,255
   138cc:	fd149ae3          	bne	s1,a7,138a0 <__svfscanf_r+0x1100>
   138d0:	ffdc8c93          	addi	s9,s9,-3
   138d4:	0ffcfc93          	andi	s9,s9,255
   138d8:	419d0d33          	sub	s10,s10,s9
   138dc:	41990933          	sub	s2,s2,s9
   138e0:	10047693          	andi	a3,s0,256
   138e4:	08068e63          	beqz	a3,13980 <__svfscanf_r+0x11e0>
   138e8:	40047693          	andi	a3,s0,1024
   138ec:	04068663          	beqz	a3,13938 <__svfscanf_r+0x1198>
   138f0:	000017b7          	lui	a5,0x1
   138f4:	fffff437          	lui	s0,0xfffff
   138f8:	49078793          	addi	a5,a5,1168 # 1490 <sulp-0xebe4>
   138fc:	04010713          	addi	a4,sp,64
   13900:	c9040413          	addi	s0,s0,-880 # ffffec90 <__global_pointer$+0xfffd2578>
   13904:	00e787b3          	add	a5,a5,a4
   13908:	00878433          	add	s0,a5,s0
   1390c:	99a47a63          	bleu	s10,s0,12aa0 <__svfscanf_r+0x300>
   13910:	fffd0d13          	addi	s10,s10,-1
   13914:	000d4583          	lbu	a1,0(s10)
   13918:	000b8613          	mv	a2,s7
   1391c:	00098513          	mv	a0,s3
   13920:	7cd090ef          	jal	ra,1d8ec <_ungetc_r>
   13924:	fe9ff06f          	j	1390c <__svfscanf_r+0x116c>
   13928:	000c8493          	mv	s1,s9
   1392c:	000d0693          	mv	a3,s10
   13930:	00200893          	li	a7,2
   13934:	f91ff06f          	j	138c4 <__svfscanf_r+0x1124>
   13938:	fffd4583          	lbu	a1,-1(s10)
   1393c:	06500693          	li	a3,101
   13940:	fffd0493          	addi	s1,s10,-1
   13944:	fff90c93          	addi	s9,s2,-1
   13948:	02d58263          	beq	a1,a3,1396c <__svfscanf_r+0x11cc>
   1394c:	04500693          	li	a3,69
   13950:	00d58e63          	beq	a1,a3,1396c <__svfscanf_r+0x11cc>
   13954:	000b8613          	mv	a2,s7
   13958:	00098513          	mv	a0,s3
   1395c:	791090ef          	jal	ra,1d8ec <_ungetc_r>
   13960:	ffed4583          	lbu	a1,-2(s10)
   13964:	ffed0493          	addi	s1,s10,-2
   13968:	ffe90c93          	addi	s9,s2,-2
   1396c:	000b8613          	mv	a2,s7
   13970:	00098513          	mv	a0,s3
   13974:	779090ef          	jal	ra,1d8ec <_ungetc_r>
   13978:	000c8913          	mv	s2,s9
   1397c:	00048d13          	mv	s10,s1
   13980:	01047693          	andi	a3,s0,16
   13984:	00068463          	beqz	a3,1398c <__svfscanf_r+0x11ec>
   13988:	ed1fe06f          	j	12858 <__svfscanf_r+0xb8>
   1398c:	000d0023          	sb	zero,0(s10)
   13990:	60047693          	andi	a3,s0,1536
   13994:	40000613          	li	a2,1024
   13998:	06c69e63          	bne	a3,a2,13a14 <__svfscanf_r+0x1274>
   1399c:	00c12783          	lw	a5,12(sp)
   139a0:	40fc0c33          	sub	s8,s8,a5
   139a4:	41800633          	neg	a2,s8
   139a8:	080c1a63          	bnez	s8,13a3c <__svfscanf_r+0x129c>
   139ac:	00247493          	andi	s1,s0,2
   139b0:	0c048063          	beqz	s1,13a70 <__svfscanf_r+0x12d0>
   139b4:	fffff7b7          	lui	a5,0xfffff
   139b8:	b7078513          	addi	a0,a5,-1168 # ffffeb70 <__global_pointer$+0xfffd2458>
   139bc:	000017b7          	lui	a5,0x1
   139c0:	04010713          	addi	a4,sp,64
   139c4:	00812603          	lw	a2,8(sp)
   139c8:	49078793          	addi	a5,a5,1168 # 1490 <sulp-0xebe4>
   139cc:	00e787b3          	add	a5,a5,a4
   139d0:	00000693          	li	a3,0
   139d4:	00098593          	mv	a1,s3
   139d8:	00a78533          	add	a0,a5,a0
   139dc:	17c070ef          	jal	ra,1ab58 <_strtold_r>
   139e0:	04012583          	lw	a1,64(sp)
   139e4:	04412603          	lw	a2,68(sp)
   139e8:	04812683          	lw	a3,72(sp)
   139ec:	04c12703          	lw	a4,76(sp)
   139f0:	00000d13          	li	s10,0
   139f4:	00000d93          	li	s11,0
   139f8:	00147413          	andi	s0,s0,1
   139fc:	000aac03          	lw	s8,0(s5)
   13a00:	004a8a93          	addi	s5,s5,4
   13a04:	08040c63          	beqz	s0,13a9c <__svfscanf_r+0x12fc>
   13a08:	01ac2023          	sw	s10,0(s8)
   13a0c:	01bc2223          	sw	s11,4(s8)
   13a10:	d4cff06f          	j	12f5c <__svfscanf_r+0x7bc>
   13a14:	01012783          	lw	a5,16(sp)
   13a18:	f8078ae3          	beqz	a5,139ac <__svfscanf_r+0x120c>
   13a1c:	00000613          	li	a2,0
   13a20:	00a00693          	li	a3,10
   13a24:	001d8593          	addi	a1,s11,1
   13a28:	00098513          	mv	a0,s3
   13a2c:	758070ef          	jal	ra,1b184 <_strtol_r>
   13a30:	01012783          	lw	a5,16(sp)
   13a34:	000d8d13          	mv	s10,s11
   13a38:	40f50633          	sub	a2,a0,a5
   13a3c:	000017b7          	lui	a5,0x1
   13a40:	48378713          	addi	a4,a5,1155 # 1483 <sulp-0xebf1>
   13a44:	04010693          	addi	a3,sp,64
   13a48:	00e686b3          	add	a3,a3,a4
   13a4c:	00dd6863          	bltu	s10,a3,13a5c <__svfscanf_r+0x12bc>
   13a50:	48278793          	addi	a5,a5,1154
   13a54:	04010713          	addi	a4,sp,64
   13a58:	00f70d33          	add	s10,a4,a5
   13a5c:	000295b7          	lui	a1,0x29
   13a60:	7f058593          	addi	a1,a1,2032 # 297f0 <basefix.4425+0x24>
   13a64:	000d0513          	mv	a0,s10
   13a68:	085050ef          	jal	ra,192ec <sprintf>
   13a6c:	f41ff06f          	j	139ac <__svfscanf_r+0x120c>
   13a70:	00812583          	lw	a1,8(sp)
   13a74:	00000613          	li	a2,0
   13a78:	00098513          	mv	a0,s3
   13a7c:	5f5060ef          	jal	ra,1a870 <_strtod_r>
   13a80:	00058d93          	mv	s11,a1
   13a84:	00050d13          	mv	s10,a0
   13a88:	00000593          	li	a1,0
   13a8c:	00000613          	li	a2,0
   13a90:	00000693          	li	a3,0
   13a94:	00000713          	li	a4,0
   13a98:	f61ff06f          	j	139f8 <__svfscanf_r+0x1258>
   13a9c:	00048c63          	beqz	s1,13ab4 <__svfscanf_r+0x1314>
   13aa0:	00bc2023          	sw	a1,0(s8)
   13aa4:	00cc2223          	sw	a2,4(s8)
   13aa8:	00dc2423          	sw	a3,8(s8)
   13aac:	00ec2623          	sw	a4,12(s8)
   13ab0:	cacff06f          	j	12f5c <__svfscanf_r+0x7bc>
   13ab4:	000d0613          	mv	a2,s10
   13ab8:	000d8693          	mv	a3,s11
   13abc:	000d0513          	mv	a0,s10
   13ac0:	000d8593          	mv	a1,s11
   13ac4:	671110ef          	jal	ra,25934 <__unorddf2>
   13ac8:	00050a63          	beqz	a0,13adc <__svfscanf_r+0x133c>
   13acc:	00000513          	li	a0,0
   13ad0:	6f8050ef          	jal	ra,191c8 <nanf>
   13ad4:	00ac2023          	sw	a0,0(s8)
   13ad8:	c84ff06f          	j	12f5c <__svfscanf_r+0x7bc>
   13adc:	000d0513          	mv	a0,s10
   13ae0:	000d8593          	mv	a1,s11
   13ae4:	408150ef          	jal	ra,28eec <__truncdfsf2>
   13ae8:	fedff06f          	j	13ad4 <__svfscanf_r+0x1334>

00013aec <vfscanf>:
   13aec:	fe010113          	addi	sp,sp,-32
   13af0:	00812c23          	sw	s0,24(sp)
   13af4:	8681a403          	lw	s0,-1944(gp) # 2bf80 <_impure_ptr>
   13af8:	00912a23          	sw	s1,20(sp)
   13afc:	00112e23          	sw	ra,28(sp)
   13b00:	00050493          	mv	s1,a0
   13b04:	00060693          	mv	a3,a2
   13b08:	02040263          	beqz	s0,13b2c <vfscanf+0x40>
   13b0c:	03842783          	lw	a5,56(s0)
   13b10:	00079e63          	bnez	a5,13b2c <vfscanf+0x40>
   13b14:	00040513          	mv	a0,s0
   13b18:	00b12423          	sw	a1,8(sp)
   13b1c:	00c12623          	sw	a2,12(sp)
   13b20:	6ec000ef          	jal	ra,1420c <__sinit>
   13b24:	00c12683          	lw	a3,12(sp)
   13b28:	00812583          	lw	a1,8(sp)
   13b2c:	00040513          	mv	a0,s0
   13b30:	01812403          	lw	s0,24(sp)
   13b34:	01c12083          	lw	ra,28(sp)
   13b38:	00058613          	mv	a2,a1
   13b3c:	00048593          	mv	a1,s1
   13b40:	01412483          	lw	s1,20(sp)
   13b44:	02010113          	addi	sp,sp,32
   13b48:	c59fe06f          	j	127a0 <__svfscanf_r>

00013b4c <__svfscanf>:
   13b4c:	00060693          	mv	a3,a2
   13b50:	00058613          	mv	a2,a1
   13b54:	00050593          	mv	a1,a0
   13b58:	8681a503          	lw	a0,-1944(gp) # 2bf80 <_impure_ptr>
   13b5c:	c45fe06f          	j	127a0 <__svfscanf_r>

00013b60 <_vfscanf_r>:
   13b60:	fe010113          	addi	sp,sp,-32
   13b64:	00812c23          	sw	s0,24(sp)
   13b68:	00112e23          	sw	ra,28(sp)
   13b6c:	00050413          	mv	s0,a0
   13b70:	02050463          	beqz	a0,13b98 <_vfscanf_r+0x38>
   13b74:	03852783          	lw	a5,56(a0)
   13b78:	02079063          	bnez	a5,13b98 <_vfscanf_r+0x38>
   13b7c:	00d12623          	sw	a3,12(sp)
   13b80:	00c12423          	sw	a2,8(sp)
   13b84:	00b12223          	sw	a1,4(sp)
   13b88:	684000ef          	jal	ra,1420c <__sinit>
   13b8c:	00c12683          	lw	a3,12(sp)
   13b90:	00812603          	lw	a2,8(sp)
   13b94:	00412583          	lw	a1,4(sp)
   13b98:	00040513          	mv	a0,s0
   13b9c:	01812403          	lw	s0,24(sp)
   13ba0:	01c12083          	lw	ra,28(sp)
   13ba4:	02010113          	addi	sp,sp,32
   13ba8:	bf9fe06f          	j	127a0 <__svfscanf_r>

00013bac <__swsetup_r>:
   13bac:	ff010113          	addi	sp,sp,-16
   13bb0:	00912223          	sw	s1,4(sp)
   13bb4:	00050493          	mv	s1,a0
   13bb8:	8681a503          	lw	a0,-1944(gp) # 2bf80 <_impure_ptr>
   13bbc:	00812423          	sw	s0,8(sp)
   13bc0:	00112623          	sw	ra,12(sp)
   13bc4:	00058413          	mv	s0,a1
   13bc8:	00050863          	beqz	a0,13bd8 <__swsetup_r+0x2c>
   13bcc:	03852783          	lw	a5,56(a0)
   13bd0:	00079463          	bnez	a5,13bd8 <__swsetup_r+0x2c>
   13bd4:	638000ef          	jal	ra,1420c <__sinit>
   13bd8:	00c41703          	lh	a4,12(s0)
   13bdc:	01071793          	slli	a5,a4,0x10
   13be0:	0107d793          	srli	a5,a5,0x10
   13be4:	0087f693          	andi	a3,a5,8
   13be8:	06069e63          	bnez	a3,13c64 <__swsetup_r+0xb8>
   13bec:	0107f693          	andi	a3,a5,16
   13bf0:	02069663          	bnez	a3,13c1c <__swsetup_r+0x70>
   13bf4:	00900793          	li	a5,9
   13bf8:	00f4a023          	sw	a5,0(s1)
   13bfc:	04076713          	ori	a4,a4,64
   13c00:	00e41623          	sh	a4,12(s0)
   13c04:	fff00513          	li	a0,-1
   13c08:	00c12083          	lw	ra,12(sp)
   13c0c:	00812403          	lw	s0,8(sp)
   13c10:	00412483          	lw	s1,4(sp)
   13c14:	01010113          	addi	sp,sp,16
   13c18:	00008067          	ret
   13c1c:	0047f793          	andi	a5,a5,4
   13c20:	02078c63          	beqz	a5,13c58 <__swsetup_r+0xac>
   13c24:	03042583          	lw	a1,48(s0)
   13c28:	00058c63          	beqz	a1,13c40 <__swsetup_r+0x94>
   13c2c:	04040793          	addi	a5,s0,64
   13c30:	00f58663          	beq	a1,a5,13c3c <__swsetup_r+0x90>
   13c34:	00048513          	mv	a0,s1
   13c38:	1e1000ef          	jal	ra,14618 <_free_r>
   13c3c:	02042823          	sw	zero,48(s0)
   13c40:	00c45783          	lhu	a5,12(s0)
   13c44:	00042223          	sw	zero,4(s0)
   13c48:	fdb7f793          	andi	a5,a5,-37
   13c4c:	00f41623          	sh	a5,12(s0)
   13c50:	01042783          	lw	a5,16(s0)
   13c54:	00f42023          	sw	a5,0(s0)
   13c58:	00c45783          	lhu	a5,12(s0)
   13c5c:	0087e793          	ori	a5,a5,8
   13c60:	00f41623          	sh	a5,12(s0)
   13c64:	01042783          	lw	a5,16(s0)
   13c68:	02079063          	bnez	a5,13c88 <__swsetup_r+0xdc>
   13c6c:	00c45783          	lhu	a5,12(s0)
   13c70:	20000713          	li	a4,512
   13c74:	2807f793          	andi	a5,a5,640
   13c78:	00e78863          	beq	a5,a4,13c88 <__swsetup_r+0xdc>
   13c7c:	00040593          	mv	a1,s0
   13c80:	00048513          	mv	a0,s1
   13c84:	400030ef          	jal	ra,17084 <__smakebuf_r>
   13c88:	00c45783          	lhu	a5,12(s0)
   13c8c:	0017f713          	andi	a4,a5,1
   13c90:	02070c63          	beqz	a4,13cc8 <__swsetup_r+0x11c>
   13c94:	01442783          	lw	a5,20(s0)
   13c98:	00042423          	sw	zero,8(s0)
   13c9c:	40f007b3          	neg	a5,a5
   13ca0:	00f42c23          	sw	a5,24(s0)
   13ca4:	01042783          	lw	a5,16(s0)
   13ca8:	00000513          	li	a0,0
   13cac:	f4079ee3          	bnez	a5,13c08 <__swsetup_r+0x5c>
   13cb0:	00c41783          	lh	a5,12(s0)
   13cb4:	0807f713          	andi	a4,a5,128
   13cb8:	f40708e3          	beqz	a4,13c08 <__swsetup_r+0x5c>
   13cbc:	0407e793          	ori	a5,a5,64
   13cc0:	00f41623          	sh	a5,12(s0)
   13cc4:	f41ff06f          	j	13c04 <__swsetup_r+0x58>
   13cc8:	0027f793          	andi	a5,a5,2
   13ccc:	00000713          	li	a4,0
   13cd0:	00079463          	bnez	a5,13cd8 <__swsetup_r+0x12c>
   13cd4:	01442703          	lw	a4,20(s0)
   13cd8:	00e42423          	sw	a4,8(s0)
   13cdc:	fc9ff06f          	j	13ca4 <__swsetup_r+0xf8>

00013ce0 <__register_exitproc>:
   13ce0:	8641a703          	lw	a4,-1948(gp) # 2bf7c <_global_impure_ptr>
   13ce4:	00050313          	mv	t1,a0
   13ce8:	14872783          	lw	a5,328(a4)
   13cec:	00079663          	bnez	a5,13cf8 <__register_exitproc+0x18>
   13cf0:	14c70793          	addi	a5,a4,332
   13cf4:	14f72423          	sw	a5,328(a4)
   13cf8:	0047a703          	lw	a4,4(a5)
   13cfc:	01f00813          	li	a6,31
   13d00:	fff00513          	li	a0,-1
   13d04:	04e84a63          	blt	a6,a4,13d58 <__register_exitproc+0x78>
   13d08:	00271893          	slli	a7,a4,0x2
   13d0c:	02030c63          	beqz	t1,13d44 <__register_exitproc+0x64>
   13d10:	01178533          	add	a0,a5,a7
   13d14:	08c52423          	sw	a2,136(a0)
   13d18:	1887a803          	lw	a6,392(a5)
   13d1c:	00100613          	li	a2,1
   13d20:	00e61633          	sll	a2,a2,a4
   13d24:	00c86833          	or	a6,a6,a2
   13d28:	1907a423          	sw	a6,392(a5)
   13d2c:	10d52423          	sw	a3,264(a0)
   13d30:	00200693          	li	a3,2
   13d34:	00d31863          	bne	t1,a3,13d44 <__register_exitproc+0x64>
   13d38:	18c7a683          	lw	a3,396(a5)
   13d3c:	00c6e633          	or	a2,a3,a2
   13d40:	18c7a623          	sw	a2,396(a5)
   13d44:	00170713          	addi	a4,a4,1
   13d48:	00e7a223          	sw	a4,4(a5)
   13d4c:	011787b3          	add	a5,a5,a7
   13d50:	00b7a423          	sw	a1,8(a5)
   13d54:	00000513          	li	a0,0
   13d58:	00008067          	ret

00013d5c <__call_exitprocs>:
   13d5c:	fd010113          	addi	sp,sp,-48
   13d60:	01312e23          	sw	s3,28(sp)
   13d64:	8641a983          	lw	s3,-1948(gp) # 2bf7c <_global_impure_ptr>
   13d68:	01412c23          	sw	s4,24(sp)
   13d6c:	01512a23          	sw	s5,20(sp)
   13d70:	01612823          	sw	s6,16(sp)
   13d74:	02112623          	sw	ra,44(sp)
   13d78:	02812423          	sw	s0,40(sp)
   13d7c:	02912223          	sw	s1,36(sp)
   13d80:	03212023          	sw	s2,32(sp)
   13d84:	01712623          	sw	s7,12(sp)
   13d88:	00050a93          	mv	s5,a0
   13d8c:	00058a13          	mv	s4,a1
   13d90:	00100b13          	li	s6,1
   13d94:	1489a483          	lw	s1,328(s3)
   13d98:	00048c63          	beqz	s1,13db0 <__call_exitprocs+0x54>
   13d9c:	0044a403          	lw	s0,4(s1)
   13da0:	fff40913          	addi	s2,s0,-1
   13da4:	00241413          	slli	s0,s0,0x2
   13da8:	00848433          	add	s0,s1,s0
   13dac:	02095863          	bgez	s2,13ddc <__call_exitprocs+0x80>
   13db0:	02c12083          	lw	ra,44(sp)
   13db4:	02812403          	lw	s0,40(sp)
   13db8:	02412483          	lw	s1,36(sp)
   13dbc:	02012903          	lw	s2,32(sp)
   13dc0:	01c12983          	lw	s3,28(sp)
   13dc4:	01812a03          	lw	s4,24(sp)
   13dc8:	01412a83          	lw	s5,20(sp)
   13dcc:	01012b03          	lw	s6,16(sp)
   13dd0:	00c12b83          	lw	s7,12(sp)
   13dd4:	03010113          	addi	sp,sp,48
   13dd8:	00008067          	ret
   13ddc:	000a0c63          	beqz	s4,13df4 <__call_exitprocs+0x98>
   13de0:	10442783          	lw	a5,260(s0)
   13de4:	01478863          	beq	a5,s4,13df4 <__call_exitprocs+0x98>
   13de8:	fff90913          	addi	s2,s2,-1
   13dec:	ffc40413          	addi	s0,s0,-4
   13df0:	fbdff06f          	j	13dac <__call_exitprocs+0x50>
   13df4:	0044a703          	lw	a4,4(s1)
   13df8:	00442783          	lw	a5,4(s0)
   13dfc:	fff70713          	addi	a4,a4,-1
   13e00:	03271c63          	bne	a4,s2,13e38 <__call_exitprocs+0xdc>
   13e04:	0124a223          	sw	s2,4(s1)
   13e08:	fe0780e3          	beqz	a5,13de8 <__call_exitprocs+0x8c>
   13e0c:	1884a683          	lw	a3,392(s1)
   13e10:	012b1733          	sll	a4,s6,s2
   13e14:	0044ab83          	lw	s7,4(s1)
   13e18:	00d776b3          	and	a3,a4,a3
   13e1c:	02069263          	bnez	a3,13e40 <__call_exitprocs+0xe4>
   13e20:	000780e7          	jalr	a5
   13e24:	0044a703          	lw	a4,4(s1)
   13e28:	1489a783          	lw	a5,328(s3)
   13e2c:	f77714e3          	bne	a4,s7,13d94 <__call_exitprocs+0x38>
   13e30:	faf48ce3          	beq	s1,a5,13de8 <__call_exitprocs+0x8c>
   13e34:	f61ff06f          	j	13d94 <__call_exitprocs+0x38>
   13e38:	00042223          	sw	zero,4(s0)
   13e3c:	fcdff06f          	j	13e08 <__call_exitprocs+0xac>
   13e40:	18c4a683          	lw	a3,396(s1)
   13e44:	08442583          	lw	a1,132(s0)
   13e48:	00d77733          	and	a4,a4,a3
   13e4c:	00071863          	bnez	a4,13e5c <__call_exitprocs+0x100>
   13e50:	000a8513          	mv	a0,s5
   13e54:	000780e7          	jalr	a5
   13e58:	fcdff06f          	j	13e24 <__call_exitprocs+0xc8>
   13e5c:	00058513          	mv	a0,a1
   13e60:	000780e7          	jalr	a5
   13e64:	fc1ff06f          	j	13e24 <__call_exitprocs+0xc8>

00013e68 <__sflush_r>:
   13e68:	00c59783          	lh	a5,12(a1)
   13e6c:	fe010113          	addi	sp,sp,-32
   13e70:	00812c23          	sw	s0,24(sp)
   13e74:	01079713          	slli	a4,a5,0x10
   13e78:	01075713          	srli	a4,a4,0x10
   13e7c:	00912a23          	sw	s1,20(sp)
   13e80:	00112e23          	sw	ra,28(sp)
   13e84:	01212823          	sw	s2,16(sp)
   13e88:	01312623          	sw	s3,12(sp)
   13e8c:	00877693          	andi	a3,a4,8
   13e90:	00050493          	mv	s1,a0
   13e94:	00058413          	mv	s0,a1
   13e98:	16069c63          	bnez	a3,14010 <__sflush_r+0x1a8>
   13e9c:	00001737          	lui	a4,0x1
   13ea0:	80070713          	addi	a4,a4,-2048 # 800 <sulp-0xf874>
   13ea4:	00e7e7b3          	or	a5,a5,a4
   13ea8:	0045a703          	lw	a4,4(a1)
   13eac:	00f59623          	sh	a5,12(a1)
   13eb0:	02e04663          	bgtz	a4,13edc <__sflush_r+0x74>
   13eb4:	03c5a703          	lw	a4,60(a1)
   13eb8:	02e04263          	bgtz	a4,13edc <__sflush_r+0x74>
   13ebc:	00000513          	li	a0,0
   13ec0:	01c12083          	lw	ra,28(sp)
   13ec4:	01812403          	lw	s0,24(sp)
   13ec8:	01412483          	lw	s1,20(sp)
   13ecc:	01012903          	lw	s2,16(sp)
   13ed0:	00c12983          	lw	s3,12(sp)
   13ed4:	02010113          	addi	sp,sp,32
   13ed8:	00008067          	ret
   13edc:	02842703          	lw	a4,40(s0)
   13ee0:	fc070ee3          	beqz	a4,13ebc <__sflush_r+0x54>
   13ee4:	0004a903          	lw	s2,0(s1)
   13ee8:	01379693          	slli	a3,a5,0x13
   13eec:	0004a023          	sw	zero,0(s1)
   13ef0:	01c42583          	lw	a1,28(s0)
   13ef4:	0c06d863          	bgez	a3,13fc4 <__sflush_r+0x15c>
   13ef8:	05042603          	lw	a2,80(s0)
   13efc:	00c45783          	lhu	a5,12(s0)
   13f00:	0047f793          	andi	a5,a5,4
   13f04:	00078e63          	beqz	a5,13f20 <__sflush_r+0xb8>
   13f08:	00442783          	lw	a5,4(s0)
   13f0c:	40f60633          	sub	a2,a2,a5
   13f10:	03042783          	lw	a5,48(s0)
   13f14:	00078663          	beqz	a5,13f20 <__sflush_r+0xb8>
   13f18:	03c42783          	lw	a5,60(s0)
   13f1c:	40f60633          	sub	a2,a2,a5
   13f20:	02842783          	lw	a5,40(s0)
   13f24:	01c42583          	lw	a1,28(s0)
   13f28:	00000693          	li	a3,0
   13f2c:	00048513          	mv	a0,s1
   13f30:	000780e7          	jalr	a5
   13f34:	fff00793          	li	a5,-1
   13f38:	00c45683          	lhu	a3,12(s0)
   13f3c:	02f51263          	bne	a0,a5,13f60 <__sflush_r+0xf8>
   13f40:	0004a783          	lw	a5,0(s1)
   13f44:	01d00713          	li	a4,29
   13f48:	0af76c63          	bltu	a4,a5,14000 <__sflush_r+0x198>
   13f4c:	20400737          	lui	a4,0x20400
   13f50:	00170713          	addi	a4,a4,1 # 20400001 <__global_pointer$+0x203d38e9>
   13f54:	00f75733          	srl	a4,a4,a5
   13f58:	00177713          	andi	a4,a4,1
   13f5c:	0a070263          	beqz	a4,14000 <__sflush_r+0x198>
   13f60:	fffff7b7          	lui	a5,0xfffff
   13f64:	7ff78793          	addi	a5,a5,2047 # fffff7ff <__global_pointer$+0xfffd30e7>
   13f68:	01042703          	lw	a4,16(s0)
   13f6c:	00d7f7b3          	and	a5,a5,a3
   13f70:	01079793          	slli	a5,a5,0x10
   13f74:	4107d793          	srai	a5,a5,0x10
   13f78:	00e42023          	sw	a4,0(s0)
   13f7c:	00f41623          	sh	a5,12(s0)
   13f80:	00042223          	sw	zero,4(s0)
   13f84:	01379713          	slli	a4,a5,0x13
   13f88:	00075c63          	bgez	a4,13fa0 <__sflush_r+0x138>
   13f8c:	fff00793          	li	a5,-1
   13f90:	00f51663          	bne	a0,a5,13f9c <__sflush_r+0x134>
   13f94:	0004a783          	lw	a5,0(s1)
   13f98:	00079463          	bnez	a5,13fa0 <__sflush_r+0x138>
   13f9c:	04a42823          	sw	a0,80(s0)
   13fa0:	03042583          	lw	a1,48(s0)
   13fa4:	0124a023          	sw	s2,0(s1)
   13fa8:	f0058ae3          	beqz	a1,13ebc <__sflush_r+0x54>
   13fac:	04040793          	addi	a5,s0,64
   13fb0:	00f58663          	beq	a1,a5,13fbc <__sflush_r+0x154>
   13fb4:	00048513          	mv	a0,s1
   13fb8:	660000ef          	jal	ra,14618 <_free_r>
   13fbc:	02042823          	sw	zero,48(s0)
   13fc0:	efdff06f          	j	13ebc <__sflush_r+0x54>
   13fc4:	00000613          	li	a2,0
   13fc8:	00100693          	li	a3,1
   13fcc:	00048513          	mv	a0,s1
   13fd0:	000700e7          	jalr	a4
   13fd4:	fff00793          	li	a5,-1
   13fd8:	00050613          	mv	a2,a0
   13fdc:	f2f510e3          	bne	a0,a5,13efc <__sflush_r+0x94>
   13fe0:	0004a783          	lw	a5,0(s1)
   13fe4:	f0078ce3          	beqz	a5,13efc <__sflush_r+0x94>
   13fe8:	01d00713          	li	a4,29
   13fec:	00e78663          	beq	a5,a4,13ff8 <__sflush_r+0x190>
   13ff0:	01600713          	li	a4,22
   13ff4:	06e79263          	bne	a5,a4,14058 <__sflush_r+0x1f0>
   13ff8:	0124a023          	sw	s2,0(s1)
   13ffc:	ec1ff06f          	j	13ebc <__sflush_r+0x54>
   14000:	0406e793          	ori	a5,a3,64
   14004:	00f41623          	sh	a5,12(s0)
   14008:	fff00513          	li	a0,-1
   1400c:	eb5ff06f          	j	13ec0 <__sflush_r+0x58>
   14010:	0105a983          	lw	s3,16(a1)
   14014:	ea0984e3          	beqz	s3,13ebc <__sflush_r+0x54>
   14018:	0005a903          	lw	s2,0(a1)
   1401c:	00377713          	andi	a4,a4,3
   14020:	0135a023          	sw	s3,0(a1)
   14024:	41390933          	sub	s2,s2,s3
   14028:	00000793          	li	a5,0
   1402c:	00071463          	bnez	a4,14034 <__sflush_r+0x1cc>
   14030:	0145a783          	lw	a5,20(a1)
   14034:	00f42423          	sw	a5,8(s0)
   14038:	e92052e3          	blez	s2,13ebc <__sflush_r+0x54>
   1403c:	02442783          	lw	a5,36(s0)
   14040:	01c42583          	lw	a1,28(s0)
   14044:	00090693          	mv	a3,s2
   14048:	00098613          	mv	a2,s3
   1404c:	00048513          	mv	a0,s1
   14050:	000780e7          	jalr	a5
   14054:	00a04863          	bgtz	a0,14064 <__sflush_r+0x1fc>
   14058:	00c45783          	lhu	a5,12(s0)
   1405c:	0407e793          	ori	a5,a5,64
   14060:	fa5ff06f          	j	14004 <__sflush_r+0x19c>
   14064:	00a989b3          	add	s3,s3,a0
   14068:	40a90933          	sub	s2,s2,a0
   1406c:	fcdff06f          	j	14038 <__sflush_r+0x1d0>

00014070 <_fflush_r>:
   14070:	fe010113          	addi	sp,sp,-32
   14074:	00812c23          	sw	s0,24(sp)
   14078:	00112e23          	sw	ra,28(sp)
   1407c:	00050413          	mv	s0,a0
   14080:	00050c63          	beqz	a0,14098 <_fflush_r+0x28>
   14084:	03852783          	lw	a5,56(a0)
   14088:	00079863          	bnez	a5,14098 <_fflush_r+0x28>
   1408c:	00b12623          	sw	a1,12(sp)
   14090:	17c000ef          	jal	ra,1420c <__sinit>
   14094:	00c12583          	lw	a1,12(sp)
   14098:	00c59783          	lh	a5,12(a1)
   1409c:	00078c63          	beqz	a5,140b4 <_fflush_r+0x44>
   140a0:	00040513          	mv	a0,s0
   140a4:	01812403          	lw	s0,24(sp)
   140a8:	01c12083          	lw	ra,28(sp)
   140ac:	02010113          	addi	sp,sp,32
   140b0:	db9ff06f          	j	13e68 <__sflush_r>
   140b4:	01c12083          	lw	ra,28(sp)
   140b8:	01812403          	lw	s0,24(sp)
   140bc:	00000513          	li	a0,0
   140c0:	02010113          	addi	sp,sp,32
   140c4:	00008067          	ret

000140c8 <fflush>:
   140c8:	00050593          	mv	a1,a0
   140cc:	00051a63          	bnez	a0,140e0 <fflush+0x18>
   140d0:	8641a503          	lw	a0,-1948(gp) # 2bf7c <_global_impure_ptr>
   140d4:	000145b7          	lui	a1,0x14
   140d8:	07058593          	addi	a1,a1,112 # 14070 <_fflush_r>
   140dc:	49d0006f          	j	14d78 <_fwalk_reent>
   140e0:	8681a503          	lw	a0,-1944(gp) # 2bf80 <_impure_ptr>
   140e4:	f8dff06f          	j	14070 <_fflush_r>

000140e8 <__fp_lock>:
   140e8:	00000513          	li	a0,0
   140ec:	00008067          	ret

000140f0 <_cleanup_r>:
   140f0:	0001f5b7          	lui	a1,0x1f
   140f4:	a6058593          	addi	a1,a1,-1440 # 1ea60 <_fclose_r>
   140f8:	4810006f          	j	14d78 <_fwalk_reent>

000140fc <std.isra.0>:
   140fc:	ff010113          	addi	sp,sp,-16
   14100:	00812423          	sw	s0,8(sp)
   14104:	00112623          	sw	ra,12(sp)
   14108:	00050413          	mv	s0,a0
   1410c:	00b51623          	sh	a1,12(a0)
   14110:	00c51723          	sh	a2,14(a0)
   14114:	00052023          	sw	zero,0(a0)
   14118:	00052223          	sw	zero,4(a0)
   1411c:	00052423          	sw	zero,8(a0)
   14120:	06052223          	sw	zero,100(a0)
   14124:	00052823          	sw	zero,16(a0)
   14128:	00052a23          	sw	zero,20(a0)
   1412c:	00052c23          	sw	zero,24(a0)
   14130:	00800613          	li	a2,8
   14134:	00000593          	li	a1,0
   14138:	05c50513          	addi	a0,a0,92
   1413c:	a94fc0ef          	jal	ra,103d0 <memset>
   14140:	000197b7          	lui	a5,0x19
   14144:	35c78793          	addi	a5,a5,860 # 1935c <__sread>
   14148:	02f42023          	sw	a5,32(s0)
   1414c:	000197b7          	lui	a5,0x19
   14150:	3b478793          	addi	a5,a5,948 # 193b4 <__swrite>
   14154:	02f42223          	sw	a5,36(s0)
   14158:	000197b7          	lui	a5,0x19
   1415c:	43878793          	addi	a5,a5,1080 # 19438 <__sseek>
   14160:	02f42423          	sw	a5,40(s0)
   14164:	000197b7          	lui	a5,0x19
   14168:	49078793          	addi	a5,a5,1168 # 19490 <__sclose>
   1416c:	00842e23          	sw	s0,28(s0)
   14170:	02f42623          	sw	a5,44(s0)
   14174:	00c12083          	lw	ra,12(sp)
   14178:	00812403          	lw	s0,8(sp)
   1417c:	01010113          	addi	sp,sp,16
   14180:	00008067          	ret

00014184 <__fp_unlock>:
   14184:	00000513          	li	a0,0
   14188:	00008067          	ret

0001418c <__sfmoreglue>:
   1418c:	ff010113          	addi	sp,sp,-16
   14190:	01212023          	sw	s2,0(sp)
   14194:	00058913          	mv	s2,a1
   14198:	00812423          	sw	s0,8(sp)
   1419c:	06800593          	li	a1,104
   141a0:	00050413          	mv	s0,a0
   141a4:	fff90513          	addi	a0,s2,-1
   141a8:	00112623          	sw	ra,12(sp)
   141ac:	00912223          	sw	s1,4(sp)
   141b0:	22c150ef          	jal	ra,293dc <__mulsi3>
   141b4:	07450593          	addi	a1,a0,116
   141b8:	00050493          	mv	s1,a0
   141bc:	00040513          	mv	a0,s0
   141c0:	7b5020ef          	jal	ra,17174 <_malloc_r>
   141c4:	00050413          	mv	s0,a0
   141c8:	02050063          	beqz	a0,141e8 <__sfmoreglue+0x5c>
   141cc:	00052023          	sw	zero,0(a0)
   141d0:	01252223          	sw	s2,4(a0)
   141d4:	00c50513          	addi	a0,a0,12
   141d8:	00a42423          	sw	a0,8(s0)
   141dc:	06848613          	addi	a2,s1,104
   141e0:	00000593          	li	a1,0
   141e4:	9ecfc0ef          	jal	ra,103d0 <memset>
   141e8:	00040513          	mv	a0,s0
   141ec:	00c12083          	lw	ra,12(sp)
   141f0:	00812403          	lw	s0,8(sp)
   141f4:	00412483          	lw	s1,4(sp)
   141f8:	00012903          	lw	s2,0(sp)
   141fc:	01010113          	addi	sp,sp,16
   14200:	00008067          	ret

00014204 <_cleanup>:
   14204:	8641a503          	lw	a0,-1948(gp) # 2bf7c <_global_impure_ptr>
   14208:	ee9ff06f          	j	140f0 <_cleanup_r>

0001420c <__sinit>:
   1420c:	03852783          	lw	a5,56(a0)
   14210:	06079e63          	bnez	a5,1428c <__sinit+0x80>
   14214:	ff010113          	addi	sp,sp,-16
   14218:	000147b7          	lui	a5,0x14
   1421c:	00112623          	sw	ra,12(sp)
   14220:	00812423          	sw	s0,8(sp)
   14224:	0f078793          	addi	a5,a5,240 # 140f0 <_cleanup_r>
   14228:	02f52e23          	sw	a5,60(a0)
   1422c:	00300793          	li	a5,3
   14230:	2ef52223          	sw	a5,740(a0)
   14234:	2ec50793          	addi	a5,a0,748
   14238:	00050413          	mv	s0,a0
   1423c:	2ef52423          	sw	a5,744(a0)
   14240:	2e052023          	sw	zero,736(a0)
   14244:	00452503          	lw	a0,4(a0)
   14248:	00000613          	li	a2,0
   1424c:	00400593          	li	a1,4
   14250:	eadff0ef          	jal	ra,140fc <std.isra.0>
   14254:	00842503          	lw	a0,8(s0)
   14258:	00100613          	li	a2,1
   1425c:	00900593          	li	a1,9
   14260:	e9dff0ef          	jal	ra,140fc <std.isra.0>
   14264:	00c42503          	lw	a0,12(s0)
   14268:	00200613          	li	a2,2
   1426c:	01200593          	li	a1,18
   14270:	e8dff0ef          	jal	ra,140fc <std.isra.0>
   14274:	00100793          	li	a5,1
   14278:	02f42c23          	sw	a5,56(s0)
   1427c:	00c12083          	lw	ra,12(sp)
   14280:	00812403          	lw	s0,8(sp)
   14284:	01010113          	addi	sp,sp,16
   14288:	00008067          	ret
   1428c:	00008067          	ret

00014290 <__sfp>:
   14290:	ff010113          	addi	sp,sp,-16
   14294:	00912223          	sw	s1,4(sp)
   14298:	8641a483          	lw	s1,-1948(gp) # 2bf7c <_global_impure_ptr>
   1429c:	01212023          	sw	s2,0(sp)
   142a0:	00112623          	sw	ra,12(sp)
   142a4:	0384a783          	lw	a5,56(s1)
   142a8:	00812423          	sw	s0,8(sp)
   142ac:	00050913          	mv	s2,a0
   142b0:	00079663          	bnez	a5,142bc <__sfp+0x2c>
   142b4:	00048513          	mv	a0,s1
   142b8:	f55ff0ef          	jal	ra,1420c <__sinit>
   142bc:	2e048493          	addi	s1,s1,736
   142c0:	0084a403          	lw	s0,8(s1)
   142c4:	0044a783          	lw	a5,4(s1)
   142c8:	fff78793          	addi	a5,a5,-1
   142cc:	0007da63          	bgez	a5,142e0 <__sfp+0x50>
   142d0:	0004a783          	lw	a5,0(s1)
   142d4:	00078e63          	beqz	a5,142f0 <__sfp+0x60>
   142d8:	0004a483          	lw	s1,0(s1)
   142dc:	fe5ff06f          	j	142c0 <__sfp+0x30>
   142e0:	00c41703          	lh	a4,12(s0)
   142e4:	04070463          	beqz	a4,1432c <__sfp+0x9c>
   142e8:	06840413          	addi	s0,s0,104
   142ec:	fddff06f          	j	142c8 <__sfp+0x38>
   142f0:	00400593          	li	a1,4
   142f4:	00090513          	mv	a0,s2
   142f8:	e95ff0ef          	jal	ra,1418c <__sfmoreglue>
   142fc:	00a4a023          	sw	a0,0(s1)
   14300:	fc051ce3          	bnez	a0,142d8 <__sfp+0x48>
   14304:	00c00793          	li	a5,12
   14308:	00f92023          	sw	a5,0(s2)
   1430c:	00000413          	li	s0,0
   14310:	00040513          	mv	a0,s0
   14314:	00c12083          	lw	ra,12(sp)
   14318:	00812403          	lw	s0,8(sp)
   1431c:	00412483          	lw	s1,4(sp)
   14320:	00012903          	lw	s2,0(sp)
   14324:	01010113          	addi	sp,sp,16
   14328:	00008067          	ret
   1432c:	ffff07b7          	lui	a5,0xffff0
   14330:	00178793          	addi	a5,a5,1 # ffff0001 <__global_pointer$+0xfffc38e9>
   14334:	06042223          	sw	zero,100(s0)
   14338:	00042023          	sw	zero,0(s0)
   1433c:	00042223          	sw	zero,4(s0)
   14340:	00042423          	sw	zero,8(s0)
   14344:	00f42623          	sw	a5,12(s0)
   14348:	00042823          	sw	zero,16(s0)
   1434c:	00042a23          	sw	zero,20(s0)
   14350:	00042c23          	sw	zero,24(s0)
   14354:	00800613          	li	a2,8
   14358:	00000593          	li	a1,0
   1435c:	05c40513          	addi	a0,s0,92
   14360:	870fc0ef          	jal	ra,103d0 <memset>
   14364:	02042823          	sw	zero,48(s0)
   14368:	02042a23          	sw	zero,52(s0)
   1436c:	04042223          	sw	zero,68(s0)
   14370:	04042423          	sw	zero,72(s0)
   14374:	f9dff06f          	j	14310 <__sfp+0x80>

00014378 <__sfp_lock_acquire>:
   14378:	00008067          	ret

0001437c <__sfp_lock_release>:
   1437c:	00008067          	ret

00014380 <__sinit_lock_acquire>:
   14380:	00008067          	ret

00014384 <__sinit_lock_release>:
   14384:	00008067          	ret

00014388 <__fp_lock_all>:
   14388:	8681a503          	lw	a0,-1944(gp) # 2bf80 <_impure_ptr>
   1438c:	000145b7          	lui	a1,0x14
   14390:	0e858593          	addi	a1,a1,232 # 140e8 <__fp_lock>
   14394:	1450006f          	j	14cd8 <_fwalk>

00014398 <__fp_unlock_all>:
   14398:	8681a503          	lw	a0,-1944(gp) # 2bf80 <_impure_ptr>
   1439c:	000145b7          	lui	a1,0x14
   143a0:	18458593          	addi	a1,a1,388 # 14184 <__fp_unlock>
   143a4:	1350006f          	j	14cd8 <_fwalk>

000143a8 <_fread_r>:
   143a8:	fd010113          	addi	sp,sp,-48
   143ac:	01412c23          	sw	s4,24(sp)
   143b0:	01512a23          	sw	s5,20(sp)
   143b4:	00058a13          	mv	s4,a1
   143b8:	00050a93          	mv	s5,a0
   143bc:	00060593          	mv	a1,a2
   143c0:	00068513          	mv	a0,a3
   143c4:	02812423          	sw	s0,40(sp)
   143c8:	03212023          	sw	s2,32(sp)
   143cc:	01612823          	sw	s6,16(sp)
   143d0:	01712623          	sw	s7,12(sp)
   143d4:	02112623          	sw	ra,44(sp)
   143d8:	02912223          	sw	s1,36(sp)
   143dc:	01312e23          	sw	s3,28(sp)
   143e0:	00060b93          	mv	s7,a2
   143e4:	00068b13          	mv	s6,a3
   143e8:	00070413          	mv	s0,a4
   143ec:	7f1140ef          	jal	ra,293dc <__mulsi3>
   143f0:	00050913          	mv	s2,a0
   143f4:	0c050663          	beqz	a0,144c0 <_fread_r+0x118>
   143f8:	000a8a63          	beqz	s5,1440c <_fread_r+0x64>
   143fc:	038aa783          	lw	a5,56(s5)
   14400:	00079663          	bnez	a5,1440c <_fread_r+0x64>
   14404:	000a8513          	mv	a0,s5
   14408:	e05ff0ef          	jal	ra,1420c <__sinit>
   1440c:	00c41783          	lh	a5,12(s0)
   14410:	01279713          	slli	a4,a5,0x12
   14414:	02074263          	bltz	a4,14438 <_fread_r+0x90>
   14418:	000026b7          	lui	a3,0x2
   1441c:	06442703          	lw	a4,100(s0)
   14420:	00d7e7b3          	or	a5,a5,a3
   14424:	00f41623          	sh	a5,12(s0)
   14428:	ffffe7b7          	lui	a5,0xffffe
   1442c:	fff78793          	addi	a5,a5,-1 # ffffdfff <__global_pointer$+0xfffd18e7>
   14430:	00f777b3          	and	a5,a4,a5
   14434:	06f42223          	sw	a5,100(s0)
   14438:	00442783          	lw	a5,4(s0)
   1443c:	0007d463          	bgez	a5,14444 <_fread_r+0x9c>
   14440:	00042223          	sw	zero,4(s0)
   14444:	00090493          	mv	s1,s2
   14448:	00442983          	lw	s3,4(s0)
   1444c:	00042583          	lw	a1,0(s0)
   14450:	0299e863          	bltu	s3,s1,14480 <_fread_r+0xd8>
   14454:	00048613          	mv	a2,s1
   14458:	000a0513          	mv	a0,s4
   1445c:	4a0030ef          	jal	ra,178fc <memcpy>
   14460:	00442783          	lw	a5,4(s0)
   14464:	000b0913          	mv	s2,s6
   14468:	409787b3          	sub	a5,a5,s1
   1446c:	00f42223          	sw	a5,4(s0)
   14470:	00042783          	lw	a5,0(s0)
   14474:	009784b3          	add	s1,a5,s1
   14478:	00942023          	sw	s1,0(s0)
   1447c:	0440006f          	j	144c0 <_fread_r+0x118>
   14480:	000a0513          	mv	a0,s4
   14484:	00098613          	mv	a2,s3
   14488:	474030ef          	jal	ra,178fc <memcpy>
   1448c:	00042783          	lw	a5,0(s0)
   14490:	00040593          	mv	a1,s0
   14494:	000a8513          	mv	a0,s5
   14498:	013787b3          	add	a5,a5,s3
   1449c:	00f42023          	sw	a5,0(s0)
   144a0:	013a0a33          	add	s4,s4,s3
   144a4:	413484b3          	sub	s1,s1,s3
   144a8:	25d040ef          	jal	ra,18f04 <__srefill_r>
   144ac:	f8050ee3          	beqz	a0,14448 <_fread_r+0xa0>
   144b0:	40990533          	sub	a0,s2,s1
   144b4:	000b8593          	mv	a1,s7
   144b8:	7d9140ef          	jal	ra,29490 <__udivsi3>
   144bc:	00050913          	mv	s2,a0
   144c0:	02c12083          	lw	ra,44(sp)
   144c4:	02812403          	lw	s0,40(sp)
   144c8:	00090513          	mv	a0,s2
   144cc:	02412483          	lw	s1,36(sp)
   144d0:	02012903          	lw	s2,32(sp)
   144d4:	01c12983          	lw	s3,28(sp)
   144d8:	01812a03          	lw	s4,24(sp)
   144dc:	01412a83          	lw	s5,20(sp)
   144e0:	01012b03          	lw	s6,16(sp)
   144e4:	00c12b83          	lw	s7,12(sp)
   144e8:	03010113          	addi	sp,sp,48
   144ec:	00008067          	ret

000144f0 <fread>:
   144f0:	00068713          	mv	a4,a3
   144f4:	00060693          	mv	a3,a2
   144f8:	00058613          	mv	a2,a1
   144fc:	00050593          	mv	a1,a0
   14500:	8681a503          	lw	a0,-1944(gp) # 2bf80 <_impure_ptr>
   14504:	ea5ff06f          	j	143a8 <_fread_r>

00014508 <_malloc_trim_r>:
   14508:	fd010113          	addi	sp,sp,-48
   1450c:	03212023          	sw	s2,32(sp)
   14510:	0002c937          	lui	s2,0x2c
   14514:	02812423          	sw	s0,40(sp)
   14518:	02912223          	sw	s1,36(sp)
   1451c:	01312e23          	sw	s3,28(sp)
   14520:	00b12623          	sw	a1,12(sp)
   14524:	02112623          	sw	ra,44(sp)
   14528:	00050993          	mv	s3,a0
   1452c:	afc90913          	addi	s2,s2,-1284 # 2bafc <__malloc_av_>
   14530:	508030ef          	jal	ra,17a38 <__malloc_lock>
   14534:	00892783          	lw	a5,8(s2)
   14538:	00c12583          	lw	a1,12(sp)
   1453c:	0047a483          	lw	s1,4(a5)
   14540:	000017b7          	lui	a5,0x1
   14544:	fef78413          	addi	s0,a5,-17 # fef <sulp-0xf085>
   14548:	ffc4f493          	andi	s1,s1,-4
   1454c:	40b40433          	sub	s0,s0,a1
   14550:	00940433          	add	s0,s0,s1
   14554:	00c45413          	srli	s0,s0,0xc
   14558:	fff40413          	addi	s0,s0,-1
   1455c:	00c41413          	slli	s0,s0,0xc
   14560:	02f45663          	ble	a5,s0,1458c <_malloc_trim_r+0x84>
   14564:	00098513          	mv	a0,s3
   14568:	4d4030ef          	jal	ra,17a3c <__malloc_unlock>
   1456c:	00000513          	li	a0,0
   14570:	02c12083          	lw	ra,44(sp)
   14574:	02812403          	lw	s0,40(sp)
   14578:	02412483          	lw	s1,36(sp)
   1457c:	02012903          	lw	s2,32(sp)
   14580:	01c12983          	lw	s3,28(sp)
   14584:	03010113          	addi	sp,sp,48
   14588:	00008067          	ret
   1458c:	00000593          	li	a1,0
   14590:	00098513          	mv	a0,s3
   14594:	341040ef          	jal	ra,190d4 <_sbrk_r>
   14598:	00892783          	lw	a5,8(s2)
   1459c:	009787b3          	add	a5,a5,s1
   145a0:	fcf512e3          	bne	a0,a5,14564 <_malloc_trim_r+0x5c>
   145a4:	408005b3          	neg	a1,s0
   145a8:	00098513          	mv	a0,s3
   145ac:	329040ef          	jal	ra,190d4 <_sbrk_r>
   145b0:	fff00793          	li	a5,-1
   145b4:	02f51c63          	bne	a0,a5,145ec <_malloc_trim_r+0xe4>
   145b8:	00000593          	li	a1,0
   145bc:	00098513          	mv	a0,s3
   145c0:	315040ef          	jal	ra,190d4 <_sbrk_r>
   145c4:	00892703          	lw	a4,8(s2)
   145c8:	00f00693          	li	a3,15
   145cc:	40e507b3          	sub	a5,a0,a4
   145d0:	f8f6dae3          	ble	a5,a3,14564 <_malloc_trim_r+0x5c>
   145d4:	86c1a683          	lw	a3,-1940(gp) # 2bf84 <__malloc_sbrk_base>
   145d8:	0017e793          	ori	a5,a5,1
   145dc:	00f72223          	sw	a5,4(a4)
   145e0:	40d50533          	sub	a0,a0,a3
   145e4:	8aa1a623          	sw	a0,-1876(gp) # 2bfc4 <__malloc_current_mallinfo>
   145e8:	f7dff06f          	j	14564 <_malloc_trim_r+0x5c>
   145ec:	00892783          	lw	a5,8(s2)
   145f0:	408484b3          	sub	s1,s1,s0
   145f4:	0014e493          	ori	s1,s1,1
   145f8:	0097a223          	sw	s1,4(a5)
   145fc:	8ac1a783          	lw	a5,-1876(gp) # 2bfc4 <__malloc_current_mallinfo>
   14600:	00098513          	mv	a0,s3
   14604:	40878433          	sub	s0,a5,s0
   14608:	8a81a623          	sw	s0,-1876(gp) # 2bfc4 <__malloc_current_mallinfo>
   1460c:	430030ef          	jal	ra,17a3c <__malloc_unlock>
   14610:	00100513          	li	a0,1
   14614:	f5dff06f          	j	14570 <_malloc_trim_r+0x68>

00014618 <_free_r>:
   14618:	24058c63          	beqz	a1,14870 <_free_r+0x258>
   1461c:	ff010113          	addi	sp,sp,-16
   14620:	00812423          	sw	s0,8(sp)
   14624:	00912223          	sw	s1,4(sp)
   14628:	00050413          	mv	s0,a0
   1462c:	00058493          	mv	s1,a1
   14630:	00112623          	sw	ra,12(sp)
   14634:	404030ef          	jal	ra,17a38 <__malloc_lock>
   14638:	ffc4a503          	lw	a0,-4(s1)
   1463c:	0002c637          	lui	a2,0x2c
   14640:	ff848693          	addi	a3,s1,-8
   14644:	ffe57793          	andi	a5,a0,-2
   14648:	afc60813          	addi	a6,a2,-1284 # 2bafc <__malloc_av_>
   1464c:	00f685b3          	add	a1,a3,a5
   14650:	0045a703          	lw	a4,4(a1)
   14654:	00882803          	lw	a6,8(a6)
   14658:	afc60613          	addi	a2,a2,-1284
   1465c:	ffc77713          	andi	a4,a4,-4
   14660:	00157513          	andi	a0,a0,1
   14664:	06b81063          	bne	a6,a1,146c4 <_free_r+0xac>
   14668:	00e787b3          	add	a5,a5,a4
   1466c:	02051063          	bnez	a0,1468c <_free_r+0x74>
   14670:	ff84a703          	lw	a4,-8(s1)
   14674:	40e686b3          	sub	a3,a3,a4
   14678:	0086a583          	lw	a1,8(a3) # 2008 <sulp-0xe06c>
   1467c:	00e787b3          	add	a5,a5,a4
   14680:	00c6a703          	lw	a4,12(a3)
   14684:	00e5a623          	sw	a4,12(a1)
   14688:	00b72423          	sw	a1,8(a4)
   1468c:	0017e713          	ori	a4,a5,1
   14690:	00e6a223          	sw	a4,4(a3)
   14694:	8701a703          	lw	a4,-1936(gp) # 2bf88 <__malloc_trim_threshold>
   14698:	00d62423          	sw	a3,8(a2)
   1469c:	00e7e863          	bltu	a5,a4,146ac <_free_r+0x94>
   146a0:	8801a583          	lw	a1,-1920(gp) # 2bf98 <__malloc_top_pad>
   146a4:	00040513          	mv	a0,s0
   146a8:	e61ff0ef          	jal	ra,14508 <_malloc_trim_r>
   146ac:	00040513          	mv	a0,s0
   146b0:	00812403          	lw	s0,8(sp)
   146b4:	00c12083          	lw	ra,12(sp)
   146b8:	00412483          	lw	s1,4(sp)
   146bc:	01010113          	addi	sp,sp,16
   146c0:	37c0306f          	j	17a3c <__malloc_unlock>
   146c4:	00e5a223          	sw	a4,4(a1)
   146c8:	00000813          	li	a6,0
   146cc:	02051663          	bnez	a0,146f8 <_free_r+0xe0>
   146d0:	ff84a503          	lw	a0,-8(s1)
   146d4:	0002c8b7          	lui	a7,0x2c
   146d8:	b0488893          	addi	a7,a7,-1276 # 2bb04 <__malloc_av_+0x8>
   146dc:	40a686b3          	sub	a3,a3,a0
   146e0:	00a787b3          	add	a5,a5,a0
   146e4:	0086a503          	lw	a0,8(a3)
   146e8:	0b150663          	beq	a0,a7,14794 <_free_r+0x17c>
   146ec:	00c6a883          	lw	a7,12(a3)
   146f0:	01152623          	sw	a7,12(a0)
   146f4:	00a8a423          	sw	a0,8(a7)
   146f8:	00e58533          	add	a0,a1,a4
   146fc:	00452503          	lw	a0,4(a0)
   14700:	00157513          	andi	a0,a0,1
   14704:	02051863          	bnez	a0,14734 <_free_r+0x11c>
   14708:	00e787b3          	add	a5,a5,a4
   1470c:	0085a703          	lw	a4,8(a1)
   14710:	08081663          	bnez	a6,1479c <_free_r+0x184>
   14714:	0002c537          	lui	a0,0x2c
   14718:	b0450513          	addi	a0,a0,-1276 # 2bb04 <__malloc_av_+0x8>
   1471c:	08a71063          	bne	a4,a0,1479c <_free_r+0x184>
   14720:	00d62a23          	sw	a3,20(a2)
   14724:	00d62823          	sw	a3,16(a2)
   14728:	00e6a623          	sw	a4,12(a3)
   1472c:	00e6a423          	sw	a4,8(a3)
   14730:	00100813          	li	a6,1
   14734:	0017e713          	ori	a4,a5,1
   14738:	00e6a223          	sw	a4,4(a3)
   1473c:	00f68733          	add	a4,a3,a5
   14740:	00f72023          	sw	a5,0(a4)
   14744:	f60814e3          	bnez	a6,146ac <_free_r+0x94>
   14748:	1ff00713          	li	a4,511
   1474c:	06f76063          	bltu	a4,a5,147ac <_free_r+0x194>
   14750:	0037d793          	srli	a5,a5,0x3
   14754:	4027d593          	srai	a1,a5,0x2
   14758:	00100713          	li	a4,1
   1475c:	00b71733          	sll	a4,a4,a1
   14760:	00462583          	lw	a1,4(a2)
   14764:	00178793          	addi	a5,a5,1
   14768:	00379793          	slli	a5,a5,0x3
   1476c:	00f607b3          	add	a5,a2,a5
   14770:	00b76733          	or	a4,a4,a1
   14774:	00e62223          	sw	a4,4(a2)
   14778:	0007a703          	lw	a4,0(a5)
   1477c:	ff878613          	addi	a2,a5,-8
   14780:	00c6a623          	sw	a2,12(a3)
   14784:	00e6a423          	sw	a4,8(a3)
   14788:	00d7a023          	sw	a3,0(a5)
   1478c:	00d72623          	sw	a3,12(a4)
   14790:	f1dff06f          	j	146ac <_free_r+0x94>
   14794:	00100813          	li	a6,1
   14798:	f61ff06f          	j	146f8 <_free_r+0xe0>
   1479c:	00c5a583          	lw	a1,12(a1)
   147a0:	00b72623          	sw	a1,12(a4)
   147a4:	00e5a423          	sw	a4,8(a1)
   147a8:	f8dff06f          	j	14734 <_free_r+0x11c>
   147ac:	0097d593          	srli	a1,a5,0x9
   147b0:	00400713          	li	a4,4
   147b4:	04b76863          	bltu	a4,a1,14804 <_free_r+0x1ec>
   147b8:	0067d713          	srli	a4,a5,0x6
   147bc:	03870713          	addi	a4,a4,56
   147c0:	00170593          	addi	a1,a4,1
   147c4:	00359593          	slli	a1,a1,0x3
   147c8:	00b605b3          	add	a1,a2,a1
   147cc:	ff858513          	addi	a0,a1,-8
   147d0:	0005a583          	lw	a1,0(a1)
   147d4:	08b51463          	bne	a0,a1,1485c <_free_r+0x244>
   147d8:	00100793          	li	a5,1
   147dc:	40275713          	srai	a4,a4,0x2
   147e0:	00e79733          	sll	a4,a5,a4
   147e4:	00462783          	lw	a5,4(a2)
   147e8:	00f76733          	or	a4,a4,a5
   147ec:	00e62223          	sw	a4,4(a2)
   147f0:	00a6a623          	sw	a0,12(a3)
   147f4:	00b6a423          	sw	a1,8(a3)
   147f8:	00d52423          	sw	a3,8(a0)
   147fc:	00d5a623          	sw	a3,12(a1)
   14800:	eadff06f          	j	146ac <_free_r+0x94>
   14804:	01400713          	li	a4,20
   14808:	00b76663          	bltu	a4,a1,14814 <_free_r+0x1fc>
   1480c:	05b58713          	addi	a4,a1,91
   14810:	fb1ff06f          	j	147c0 <_free_r+0x1a8>
   14814:	05400713          	li	a4,84
   14818:	00b76863          	bltu	a4,a1,14828 <_free_r+0x210>
   1481c:	00c7d713          	srli	a4,a5,0xc
   14820:	06e70713          	addi	a4,a4,110
   14824:	f9dff06f          	j	147c0 <_free_r+0x1a8>
   14828:	15400713          	li	a4,340
   1482c:	00b76863          	bltu	a4,a1,1483c <_free_r+0x224>
   14830:	00f7d713          	srli	a4,a5,0xf
   14834:	07770713          	addi	a4,a4,119
   14838:	f89ff06f          	j	147c0 <_free_r+0x1a8>
   1483c:	55400513          	li	a0,1364
   14840:	07e00713          	li	a4,126
   14844:	f6b56ee3          	bltu	a0,a1,147c0 <_free_r+0x1a8>
   14848:	0127d713          	srli	a4,a5,0x12
   1484c:	07c70713          	addi	a4,a4,124
   14850:	f71ff06f          	j	147c0 <_free_r+0x1a8>
   14854:	0085a583          	lw	a1,8(a1)
   14858:	00b50863          	beq	a0,a1,14868 <_free_r+0x250>
   1485c:	0045a703          	lw	a4,4(a1)
   14860:	ffc77713          	andi	a4,a4,-4
   14864:	fee7e8e3          	bltu	a5,a4,14854 <_free_r+0x23c>
   14868:	00c5a503          	lw	a0,12(a1)
   1486c:	f85ff06f          	j	147f0 <_free_r+0x1d8>
   14870:	00008067          	ret

00014874 <__sfvwrite_r>:
   14874:	00862783          	lw	a5,8(a2)
   14878:	00079863          	bnez	a5,14888 <__sfvwrite_r+0x14>
   1487c:	00000793          	li	a5,0
   14880:	00078513          	mv	a0,a5
   14884:	00008067          	ret
   14888:	00c5d783          	lhu	a5,12(a1)
   1488c:	fc010113          	addi	sp,sp,-64
   14890:	02812c23          	sw	s0,56(sp)
   14894:	03212823          	sw	s2,48(sp)
   14898:	03612023          	sw	s6,32(sp)
   1489c:	02112e23          	sw	ra,60(sp)
   148a0:	02912a23          	sw	s1,52(sp)
   148a4:	03312623          	sw	s3,44(sp)
   148a8:	03412423          	sw	s4,40(sp)
   148ac:	03512223          	sw	s5,36(sp)
   148b0:	01712e23          	sw	s7,28(sp)
   148b4:	01812c23          	sw	s8,24(sp)
   148b8:	01912a23          	sw	s9,20(sp)
   148bc:	01a12823          	sw	s10,16(sp)
   148c0:	01b12623          	sw	s11,12(sp)
   148c4:	0087f793          	andi	a5,a5,8
   148c8:	00060b13          	mv	s6,a2
   148cc:	00058413          	mv	s0,a1
   148d0:	00050913          	mv	s2,a0
   148d4:	0e078263          	beqz	a5,149b8 <__sfvwrite_r+0x144>
   148d8:	0105a783          	lw	a5,16(a1)
   148dc:	0c078e63          	beqz	a5,149b8 <__sfvwrite_r+0x144>
   148e0:	00c45783          	lhu	a5,12(s0)
   148e4:	000b2a03          	lw	s4,0(s6)
   148e8:	0027f713          	andi	a4,a5,2
   148ec:	16071a63          	bnez	a4,14a60 <__sfvwrite_r+0x1ec>
   148f0:	0017f793          	andi	a5,a5,1
   148f4:	00000b93          	li	s7,0
   148f8:	20078a63          	beqz	a5,14b0c <__sfvwrite_r+0x298>
   148fc:	00000513          	li	a0,0
   14900:	00000a93          	li	s5,0
   14904:	00000993          	li	s3,0
   14908:	36098663          	beqz	s3,14c74 <__sfvwrite_r+0x400>
   1490c:	02051263          	bnez	a0,14930 <__sfvwrite_r+0xbc>
   14910:	00098613          	mv	a2,s3
   14914:	00a00593          	li	a1,10
   14918:	000a8513          	mv	a0,s5
   1491c:	7bd020ef          	jal	ra,178d8 <memchr>
   14920:	00198b93          	addi	s7,s3,1
   14924:	00050663          	beqz	a0,14930 <__sfvwrite_r+0xbc>
   14928:	00150513          	addi	a0,a0,1
   1492c:	41550bb3          	sub	s7,a0,s5
   14930:	000b8c13          	mv	s8,s7
   14934:	0179f463          	bleu	s7,s3,1493c <__sfvwrite_r+0xc8>
   14938:	00098c13          	mv	s8,s3
   1493c:	00042503          	lw	a0,0(s0)
   14940:	01042783          	lw	a5,16(s0)
   14944:	01442683          	lw	a3,20(s0)
   14948:	34a7f063          	bleu	a0,a5,14c88 <__sfvwrite_r+0x414>
   1494c:	00842483          	lw	s1,8(s0)
   14950:	009684b3          	add	s1,a3,s1
   14954:	3384da63          	ble	s8,s1,14c88 <__sfvwrite_r+0x414>
   14958:	000a8593          	mv	a1,s5
   1495c:	00048613          	mv	a2,s1
   14960:	084030ef          	jal	ra,179e4 <memmove>
   14964:	00042783          	lw	a5,0(s0)
   14968:	00040593          	mv	a1,s0
   1496c:	00090513          	mv	a0,s2
   14970:	009787b3          	add	a5,a5,s1
   14974:	00f42023          	sw	a5,0(s0)
   14978:	ef8ff0ef          	jal	ra,14070 <_fflush_r>
   1497c:	16051e63          	bnez	a0,14af8 <__sfvwrite_r+0x284>
   14980:	409b8bb3          	sub	s7,s7,s1
   14984:	00100513          	li	a0,1
   14988:	000b9a63          	bnez	s7,1499c <__sfvwrite_r+0x128>
   1498c:	00040593          	mv	a1,s0
   14990:	00090513          	mv	a0,s2
   14994:	edcff0ef          	jal	ra,14070 <_fflush_r>
   14998:	16051063          	bnez	a0,14af8 <__sfvwrite_r+0x284>
   1499c:	008b2783          	lw	a5,8(s6)
   149a0:	009a8ab3          	add	s5,s5,s1
   149a4:	409989b3          	sub	s3,s3,s1
   149a8:	409784b3          	sub	s1,a5,s1
   149ac:	009b2423          	sw	s1,8(s6)
   149b0:	f4049ce3          	bnez	s1,14908 <__sfvwrite_r+0x94>
   149b4:	0680006f          	j	14a1c <__sfvwrite_r+0x1a8>
   149b8:	00040593          	mv	a1,s0
   149bc:	00090513          	mv	a0,s2
   149c0:	9ecff0ef          	jal	ra,13bac <__swsetup_r>
   149c4:	fff00793          	li	a5,-1
   149c8:	f0050ce3          	beqz	a0,148e0 <__sfvwrite_r+0x6c>
   149cc:	0540006f          	j	14a20 <__sfvwrite_r+0x1ac>
   149d0:	000a2983          	lw	s3,0(s4)
   149d4:	004a2483          	lw	s1,4(s4)
   149d8:	008a0a13          	addi	s4,s4,8
   149dc:	fe048ae3          	beqz	s1,149d0 <__sfvwrite_r+0x15c>
   149e0:	00048693          	mv	a3,s1
   149e4:	009af463          	bleu	s1,s5,149ec <__sfvwrite_r+0x178>
   149e8:	000a8693          	mv	a3,s5
   149ec:	02442783          	lw	a5,36(s0)
   149f0:	01c42583          	lw	a1,28(s0)
   149f4:	00098613          	mv	a2,s3
   149f8:	00090513          	mv	a0,s2
   149fc:	000780e7          	jalr	a5
   14a00:	0ea05c63          	blez	a0,14af8 <__sfvwrite_r+0x284>
   14a04:	008b2783          	lw	a5,8(s6)
   14a08:	00a989b3          	add	s3,s3,a0
   14a0c:	40a484b3          	sub	s1,s1,a0
   14a10:	40a78533          	sub	a0,a5,a0
   14a14:	00ab2423          	sw	a0,8(s6)
   14a18:	fc0512e3          	bnez	a0,149dc <__sfvwrite_r+0x168>
   14a1c:	00000793          	li	a5,0
   14a20:	03c12083          	lw	ra,60(sp)
   14a24:	03812403          	lw	s0,56(sp)
   14a28:	03412483          	lw	s1,52(sp)
   14a2c:	03012903          	lw	s2,48(sp)
   14a30:	02c12983          	lw	s3,44(sp)
   14a34:	02812a03          	lw	s4,40(sp)
   14a38:	02412a83          	lw	s5,36(sp)
   14a3c:	02012b03          	lw	s6,32(sp)
   14a40:	01c12b83          	lw	s7,28(sp)
   14a44:	01812c03          	lw	s8,24(sp)
   14a48:	01412c83          	lw	s9,20(sp)
   14a4c:	01012d03          	lw	s10,16(sp)
   14a50:	00c12d83          	lw	s11,12(sp)
   14a54:	00078513          	mv	a0,a5
   14a58:	04010113          	addi	sp,sp,64
   14a5c:	00008067          	ret
   14a60:	80000ab7          	lui	s5,0x80000
   14a64:	00000993          	li	s3,0
   14a68:	00000493          	li	s1,0
   14a6c:	c00aca93          	xori	s5,s5,-1024
   14a70:	f6dff06f          	j	149dc <__sfvwrite_r+0x168>
   14a74:	000a2b83          	lw	s7,0(s4)
   14a78:	004a2483          	lw	s1,4(s4)
   14a7c:	008a0a13          	addi	s4,s4,8
   14a80:	fe048ae3          	beqz	s1,14a74 <__sfvwrite_r+0x200>
   14a84:	00c45983          	lhu	s3,12(s0)
   14a88:	00842d83          	lw	s11,8(s0)
   14a8c:	00042503          	lw	a0,0(s0)
   14a90:	2009f793          	andi	a5,s3,512
   14a94:	14078463          	beqz	a5,14bdc <__sfvwrite_r+0x368>
   14a98:	0db4e063          	bltu	s1,s11,14b58 <__sfvwrite_r+0x2e4>
   14a9c:	4809f793          	andi	a5,s3,1152
   14aa0:	0a078c63          	beqz	a5,14b58 <__sfvwrite_r+0x2e4>
   14aa4:	01042d83          	lw	s11,16(s0)
   14aa8:	00300593          	li	a1,3
   14aac:	41b50d33          	sub	s10,a0,s11
   14ab0:	01442503          	lw	a0,20(s0)
   14ab4:	129140ef          	jal	ra,293dc <__mulsi3>
   14ab8:	01f55a93          	srli	s5,a0,0x1f
   14abc:	00aa8ab3          	add	s5,s5,a0
   14ac0:	001d0793          	addi	a5,s10,1
   14ac4:	401ada93          	srai	s5,s5,0x1
   14ac8:	009787b3          	add	a5,a5,s1
   14acc:	00faf463          	bleu	a5,s5,14ad4 <__sfvwrite_r+0x260>
   14ad0:	00078a93          	mv	s5,a5
   14ad4:	4009f993          	andi	s3,s3,1024
   14ad8:	0c098863          	beqz	s3,14ba8 <__sfvwrite_r+0x334>
   14adc:	000a8593          	mv	a1,s5
   14ae0:	00090513          	mv	a0,s2
   14ae4:	690020ef          	jal	ra,17174 <_malloc_r>
   14ae8:	00050993          	mv	s3,a0
   14aec:	02051a63          	bnez	a0,14b20 <__sfvwrite_r+0x2ac>
   14af0:	00c00793          	li	a5,12
   14af4:	00f92023          	sw	a5,0(s2)
   14af8:	00c45783          	lhu	a5,12(s0)
   14afc:	0407e793          	ori	a5,a5,64
   14b00:	00f41623          	sh	a5,12(s0)
   14b04:	fff00793          	li	a5,-1
   14b08:	f19ff06f          	j	14a20 <__sfvwrite_r+0x1ac>
   14b0c:	80000c37          	lui	s8,0x80000
   14b10:	ffec4c93          	xori	s9,s8,-2
   14b14:	00000493          	li	s1,0
   14b18:	fffc4c13          	not	s8,s8
   14b1c:	f65ff06f          	j	14a80 <__sfvwrite_r+0x20c>
   14b20:	01042583          	lw	a1,16(s0)
   14b24:	000d0613          	mv	a2,s10
   14b28:	5d5020ef          	jal	ra,178fc <memcpy>
   14b2c:	00c45783          	lhu	a5,12(s0)
   14b30:	b7f7f793          	andi	a5,a5,-1153
   14b34:	0807e793          	ori	a5,a5,128
   14b38:	00f41623          	sh	a5,12(s0)
   14b3c:	01342823          	sw	s3,16(s0)
   14b40:	01542a23          	sw	s5,20(s0)
   14b44:	01a989b3          	add	s3,s3,s10
   14b48:	41aa8ab3          	sub	s5,s5,s10
   14b4c:	01342023          	sw	s3,0(s0)
   14b50:	00048d93          	mv	s11,s1
   14b54:	01542423          	sw	s5,8(s0)
   14b58:	00048993          	mv	s3,s1
   14b5c:	01b4f463          	bleu	s11,s1,14b64 <__sfvwrite_r+0x2f0>
   14b60:	00048d93          	mv	s11,s1
   14b64:	00042503          	lw	a0,0(s0)
   14b68:	000d8613          	mv	a2,s11
   14b6c:	000b8593          	mv	a1,s7
   14b70:	675020ef          	jal	ra,179e4 <memmove>
   14b74:	00842783          	lw	a5,8(s0)
   14b78:	41b787b3          	sub	a5,a5,s11
   14b7c:	00f42423          	sw	a5,8(s0)
   14b80:	00042783          	lw	a5,0(s0)
   14b84:	01b78db3          	add	s11,a5,s11
   14b88:	01b42023          	sw	s11,0(s0)
   14b8c:	008b2783          	lw	a5,8(s6)
   14b90:	013b8bb3          	add	s7,s7,s3
   14b94:	413484b3          	sub	s1,s1,s3
   14b98:	413789b3          	sub	s3,a5,s3
   14b9c:	013b2423          	sw	s3,8(s6)
   14ba0:	ee0990e3          	bnez	s3,14a80 <__sfvwrite_r+0x20c>
   14ba4:	e79ff06f          	j	14a1c <__sfvwrite_r+0x1a8>
   14ba8:	000a8613          	mv	a2,s5
   14bac:	000d8593          	mv	a1,s11
   14bb0:	00090513          	mv	a0,s2
   14bb4:	5dd030ef          	jal	ra,18990 <_realloc_r>
   14bb8:	00050993          	mv	s3,a0
   14bbc:	f80510e3          	bnez	a0,14b3c <__sfvwrite_r+0x2c8>
   14bc0:	01042583          	lw	a1,16(s0)
   14bc4:	00090513          	mv	a0,s2
   14bc8:	a51ff0ef          	jal	ra,14618 <_free_r>
   14bcc:	00c45783          	lhu	a5,12(s0)
   14bd0:	f7f7f793          	andi	a5,a5,-129
   14bd4:	00f41623          	sh	a5,12(s0)
   14bd8:	f19ff06f          	j	14af0 <__sfvwrite_r+0x27c>
   14bdc:	01042783          	lw	a5,16(s0)
   14be0:	00a7e663          	bltu	a5,a0,14bec <__sfvwrite_r+0x378>
   14be4:	01442983          	lw	s3,20(s0)
   14be8:	0534f663          	bleu	s3,s1,14c34 <__sfvwrite_r+0x3c0>
   14bec:	000d8993          	mv	s3,s11
   14bf0:	01b4f463          	bleu	s11,s1,14bf8 <__sfvwrite_r+0x384>
   14bf4:	00048993          	mv	s3,s1
   14bf8:	00098613          	mv	a2,s3
   14bfc:	000b8593          	mv	a1,s7
   14c00:	5e5020ef          	jal	ra,179e4 <memmove>
   14c04:	00842783          	lw	a5,8(s0)
   14c08:	00042703          	lw	a4,0(s0)
   14c0c:	413787b3          	sub	a5,a5,s3
   14c10:	01370733          	add	a4,a4,s3
   14c14:	00f42423          	sw	a5,8(s0)
   14c18:	00e42023          	sw	a4,0(s0)
   14c1c:	f60798e3          	bnez	a5,14b8c <__sfvwrite_r+0x318>
   14c20:	00040593          	mv	a1,s0
   14c24:	00090513          	mv	a0,s2
   14c28:	c48ff0ef          	jal	ra,14070 <_fflush_r>
   14c2c:	f60500e3          	beqz	a0,14b8c <__sfvwrite_r+0x318>
   14c30:	ec9ff06f          	j	14af8 <__sfvwrite_r+0x284>
   14c34:	000c0513          	mv	a0,s8
   14c38:	009ce463          	bltu	s9,s1,14c40 <__sfvwrite_r+0x3cc>
   14c3c:	00048513          	mv	a0,s1
   14c40:	00098593          	mv	a1,s3
   14c44:	045140ef          	jal	ra,29488 <__divsi3>
   14c48:	00098593          	mv	a1,s3
   14c4c:	790140ef          	jal	ra,293dc <__mulsi3>
   14c50:	02442783          	lw	a5,36(s0)
   14c54:	01c42583          	lw	a1,28(s0)
   14c58:	00050693          	mv	a3,a0
   14c5c:	000b8613          	mv	a2,s7
   14c60:	00090513          	mv	a0,s2
   14c64:	000780e7          	jalr	a5
   14c68:	00050993          	mv	s3,a0
   14c6c:	f2a040e3          	bgtz	a0,14b8c <__sfvwrite_r+0x318>
   14c70:	e89ff06f          	j	14af8 <__sfvwrite_r+0x284>
   14c74:	000a2a83          	lw	s5,0(s4)
   14c78:	004a2983          	lw	s3,4(s4)
   14c7c:	00000513          	li	a0,0
   14c80:	008a0a13          	addi	s4,s4,8
   14c84:	c85ff06f          	j	14908 <__sfvwrite_r+0x94>
   14c88:	02dc4263          	blt	s8,a3,14cac <__sfvwrite_r+0x438>
   14c8c:	02442783          	lw	a5,36(s0)
   14c90:	01c42583          	lw	a1,28(s0)
   14c94:	000a8613          	mv	a2,s5
   14c98:	00090513          	mv	a0,s2
   14c9c:	000780e7          	jalr	a5
   14ca0:	00050493          	mv	s1,a0
   14ca4:	cca04ee3          	bgtz	a0,14980 <__sfvwrite_r+0x10c>
   14ca8:	e51ff06f          	j	14af8 <__sfvwrite_r+0x284>
   14cac:	000c0613          	mv	a2,s8
   14cb0:	000a8593          	mv	a1,s5
   14cb4:	531020ef          	jal	ra,179e4 <memmove>
   14cb8:	00842783          	lw	a5,8(s0)
   14cbc:	000c0493          	mv	s1,s8
   14cc0:	418787b3          	sub	a5,a5,s8
   14cc4:	00f42423          	sw	a5,8(s0)
   14cc8:	00042783          	lw	a5,0(s0)
   14ccc:	018787b3          	add	a5,a5,s8
   14cd0:	00f42023          	sw	a5,0(s0)
   14cd4:	cadff06f          	j	14980 <__sfvwrite_r+0x10c>

00014cd8 <_fwalk>:
   14cd8:	fd010113          	addi	sp,sp,-48
   14cdc:	02812423          	sw	s0,40(sp)
   14ce0:	03212023          	sw	s2,32(sp)
   14ce4:	01412c23          	sw	s4,24(sp)
   14ce8:	01512a23          	sw	s5,20(sp)
   14cec:	02112623          	sw	ra,44(sp)
   14cf0:	02912223          	sw	s1,36(sp)
   14cf4:	01312e23          	sw	s3,28(sp)
   14cf8:	2e050413          	addi	s0,a0,736
   14cfc:	00000913          	li	s2,0
   14d00:	00100a13          	li	s4,1
   14d04:	fff00a93          	li	s5,-1
   14d08:	02041663          	bnez	s0,14d34 <_fwalk+0x5c>
   14d0c:	02c12083          	lw	ra,44(sp)
   14d10:	02812403          	lw	s0,40(sp)
   14d14:	00090513          	mv	a0,s2
   14d18:	02412483          	lw	s1,36(sp)
   14d1c:	02012903          	lw	s2,32(sp)
   14d20:	01c12983          	lw	s3,28(sp)
   14d24:	01812a03          	lw	s4,24(sp)
   14d28:	01412a83          	lw	s5,20(sp)
   14d2c:	03010113          	addi	sp,sp,48
   14d30:	00008067          	ret
   14d34:	00842483          	lw	s1,8(s0)
   14d38:	00442983          	lw	s3,4(s0)
   14d3c:	fff98993          	addi	s3,s3,-1
   14d40:	0009d663          	bgez	s3,14d4c <_fwalk+0x74>
   14d44:	00042403          	lw	s0,0(s0)
   14d48:	fc1ff06f          	j	14d08 <_fwalk+0x30>
   14d4c:	00c4d783          	lhu	a5,12(s1)
   14d50:	02fa7063          	bleu	a5,s4,14d70 <_fwalk+0x98>
   14d54:	00e49783          	lh	a5,14(s1)
   14d58:	01578c63          	beq	a5,s5,14d70 <_fwalk+0x98>
   14d5c:	00048513          	mv	a0,s1
   14d60:	00b12623          	sw	a1,12(sp)
   14d64:	000580e7          	jalr	a1
   14d68:	00c12583          	lw	a1,12(sp)
   14d6c:	00a96933          	or	s2,s2,a0
   14d70:	06848493          	addi	s1,s1,104
   14d74:	fc9ff06f          	j	14d3c <_fwalk+0x64>

00014d78 <_fwalk_reent>:
   14d78:	fd010113          	addi	sp,sp,-48
   14d7c:	02812423          	sw	s0,40(sp)
   14d80:	03212023          	sw	s2,32(sp)
   14d84:	01412c23          	sw	s4,24(sp)
   14d88:	01512a23          	sw	s5,20(sp)
   14d8c:	01612823          	sw	s6,16(sp)
   14d90:	01712623          	sw	s7,12(sp)
   14d94:	02112623          	sw	ra,44(sp)
   14d98:	02912223          	sw	s1,36(sp)
   14d9c:	01312e23          	sw	s3,28(sp)
   14da0:	00050a13          	mv	s4,a0
   14da4:	00058a93          	mv	s5,a1
   14da8:	2e050413          	addi	s0,a0,736
   14dac:	00000913          	li	s2,0
   14db0:	00100b13          	li	s6,1
   14db4:	fff00b93          	li	s7,-1
   14db8:	02041a63          	bnez	s0,14dec <_fwalk_reent+0x74>
   14dbc:	02c12083          	lw	ra,44(sp)
   14dc0:	02812403          	lw	s0,40(sp)
   14dc4:	00090513          	mv	a0,s2
   14dc8:	02412483          	lw	s1,36(sp)
   14dcc:	02012903          	lw	s2,32(sp)
   14dd0:	01c12983          	lw	s3,28(sp)
   14dd4:	01812a03          	lw	s4,24(sp)
   14dd8:	01412a83          	lw	s5,20(sp)
   14ddc:	01012b03          	lw	s6,16(sp)
   14de0:	00c12b83          	lw	s7,12(sp)
   14de4:	03010113          	addi	sp,sp,48
   14de8:	00008067          	ret
   14dec:	00842483          	lw	s1,8(s0)
   14df0:	00442983          	lw	s3,4(s0)
   14df4:	fff98993          	addi	s3,s3,-1
   14df8:	0009d663          	bgez	s3,14e04 <_fwalk_reent+0x8c>
   14dfc:	00042403          	lw	s0,0(s0)
   14e00:	fb9ff06f          	j	14db8 <_fwalk_reent+0x40>
   14e04:	00c4d783          	lhu	a5,12(s1)
   14e08:	00fb7e63          	bleu	a5,s6,14e24 <_fwalk_reent+0xac>
   14e0c:	00e49783          	lh	a5,14(s1)
   14e10:	01778a63          	beq	a5,s7,14e24 <_fwalk_reent+0xac>
   14e14:	00048593          	mv	a1,s1
   14e18:	000a0513          	mv	a0,s4
   14e1c:	000a80e7          	jalr	s5
   14e20:	00a96933          	or	s2,s2,a0
   14e24:	06848493          	addi	s1,s1,104
   14e28:	fcdff06f          	j	14df4 <_fwalk_reent+0x7c>

00014e2c <iswspace>:
   14e2c:	0ff00793          	li	a5,255
   14e30:	02a7ea63          	bltu	a5,a0,14e64 <iswspace+0x38>
   14e34:	ff010113          	addi	sp,sp,-16
   14e38:	00812423          	sw	s0,8(sp)
   14e3c:	00112623          	sw	ra,12(sp)
   14e40:	00050413          	mv	s0,a0
   14e44:	178020ef          	jal	ra,16fbc <__locale_ctype_ptr>
   14e48:	00850533          	add	a0,a0,s0
   14e4c:	00154503          	lbu	a0,1(a0)
   14e50:	00c12083          	lw	ra,12(sp)
   14e54:	00812403          	lw	s0,8(sp)
   14e58:	00857513          	andi	a0,a0,8
   14e5c:	01010113          	addi	sp,sp,16
   14e60:	00008067          	ret
   14e64:	00000513          	li	a0,0
   14e68:	00008067          	ret

00014e6c <eclear>:
   14e6c:	01450793          	addi	a5,a0,20
   14e70:	00250513          	addi	a0,a0,2
   14e74:	fe051f23          	sh	zero,-2(a0)
   14e78:	fef51ce3          	bne	a0,a5,14e70 <eclear+0x4>
   14e7c:	00008067          	ret

00014e80 <emov>:
   14e80:	01450793          	addi	a5,a0,20
   14e84:	00250513          	addi	a0,a0,2
   14e88:	ffe55703          	lhu	a4,-2(a0)
   14e8c:	00258593          	addi	a1,a1,2
   14e90:	fee59f23          	sh	a4,-2(a1)
   14e94:	fea798e3          	bne	a5,a0,14e84 <emov+0x4>
   14e98:	00008067          	ret

00014e9c <ecleaz>:
   14e9c:	01a50793          	addi	a5,a0,26
   14ea0:	00250513          	addi	a0,a0,2
   14ea4:	fe051f23          	sh	zero,-2(a0)
   14ea8:	fef51ce3          	bne	a0,a5,14ea0 <ecleaz+0x4>
   14eac:	00008067          	ret

00014eb0 <emovz>:
   14eb0:	01850713          	addi	a4,a0,24
   14eb4:	00058793          	mv	a5,a1
   14eb8:	00250513          	addi	a0,a0,2
   14ebc:	ffe55683          	lhu	a3,-2(a0)
   14ec0:	00278793          	addi	a5,a5,2
   14ec4:	fed79f23          	sh	a3,-2(a5)
   14ec8:	fea718e3          	bne	a4,a0,14eb8 <emovz+0x8>
   14ecc:	00059c23          	sh	zero,24(a1)
   14ed0:	00008067          	ret

00014ed4 <ecmpm>:
   14ed4:	00450793          	addi	a5,a0,4
   14ed8:	00458593          	addi	a1,a1,4
   14edc:	01a50513          	addi	a0,a0,26
   14ee0:	00278793          	addi	a5,a5,2
   14ee4:	00258593          	addi	a1,a1,2
   14ee8:	ffe7d683          	lhu	a3,-2(a5)
   14eec:	ffe5d703          	lhu	a4,-2(a1)
   14ef0:	00e69863          	bne	a3,a4,14f00 <ecmpm+0x2c>
   14ef4:	fef516e3          	bne	a0,a5,14ee0 <ecmpm+0xc>
   14ef8:	00000513          	li	a0,0
   14efc:	00008067          	ret
   14f00:	00100513          	li	a0,1
   14f04:	00d76463          	bltu	a4,a3,14f0c <ecmpm+0x38>
   14f08:	fff00513          	li	a0,-1
   14f0c:	00008067          	ret

00014f10 <eshdn1>:
   14f10:	00450693          	addi	a3,a0,4
   14f14:	00000793          	li	a5,0
   14f18:	01a50513          	addi	a0,a0,26
   14f1c:	ffff8637          	lui	a2,0xffff8
   14f20:	0006d703          	lhu	a4,0(a3)
   14f24:	00177593          	andi	a1,a4,1
   14f28:	00058463          	beqz	a1,14f30 <eshdn1+0x20>
   14f2c:	0017e793          	ori	a5,a5,1
   14f30:	0027f593          	andi	a1,a5,2
   14f34:	00175713          	srli	a4,a4,0x1
   14f38:	02059063          	bnez	a1,14f58 <eshdn1+0x48>
   14f3c:	00179793          	slli	a5,a5,0x1
   14f40:	00e69023          	sh	a4,0(a3)
   14f44:	01079793          	slli	a5,a5,0x10
   14f48:	00268693          	addi	a3,a3,2
   14f4c:	0107d793          	srli	a5,a5,0x10
   14f50:	fcd518e3          	bne	a0,a3,14f20 <eshdn1+0x10>
   14f54:	00008067          	ret
   14f58:	00c76733          	or	a4,a4,a2
   14f5c:	fe1ff06f          	j	14f3c <eshdn1+0x2c>

00014f60 <eshup1>:
   14f60:	01650693          	addi	a3,a0,22
   14f64:	00000713          	li	a4,0
   14f68:	0026d783          	lhu	a5,2(a3)
   14f6c:	01079613          	slli	a2,a5,0x10
   14f70:	41065613          	srai	a2,a2,0x10
   14f74:	00065463          	bgez	a2,14f7c <eshup1+0x1c>
   14f78:	00176713          	ori	a4,a4,1
   14f7c:	00179793          	slli	a5,a5,0x1
   14f80:	01079793          	slli	a5,a5,0x10
   14f84:	00277613          	andi	a2,a4,2
   14f88:	0107d793          	srli	a5,a5,0x10
   14f8c:	02061063          	bnez	a2,14fac <eshup1+0x4c>
   14f90:	00171713          	slli	a4,a4,0x1
   14f94:	00f69123          	sh	a5,2(a3)
   14f98:	01071713          	slli	a4,a4,0x10
   14f9c:	ffe68693          	addi	a3,a3,-2
   14fa0:	01075713          	srli	a4,a4,0x10
   14fa4:	fcd512e3          	bne	a0,a3,14f68 <eshup1+0x8>
   14fa8:	00008067          	ret
   14fac:	0017e793          	ori	a5,a5,1
   14fb0:	fe1ff06f          	j	14f90 <eshup1+0x30>

00014fb4 <eshdn8>:
   14fb4:	00450793          	addi	a5,a0,4
   14fb8:	00000713          	li	a4,0
   14fbc:	01a50513          	addi	a0,a0,26
   14fc0:	0007d683          	lhu	a3,0(a5)
   14fc4:	00278793          	addi	a5,a5,2
   14fc8:	0086d613          	srli	a2,a3,0x8
   14fcc:	00c76733          	or	a4,a4,a2
   14fd0:	fee79f23          	sh	a4,-2(a5)
   14fd4:	00869713          	slli	a4,a3,0x8
   14fd8:	01071713          	slli	a4,a4,0x10
   14fdc:	01075713          	srli	a4,a4,0x10
   14fe0:	fef510e3          	bne	a0,a5,14fc0 <eshdn8+0xc>
   14fe4:	00008067          	ret

00014fe8 <eshup8>:
   14fe8:	01650793          	addi	a5,a0,22
   14fec:	00000713          	li	a4,0
   14ff0:	0027d683          	lhu	a3,2(a5)
   14ff4:	ffe78793          	addi	a5,a5,-2
   14ff8:	00869613          	slli	a2,a3,0x8
   14ffc:	00c76733          	or	a4,a4,a2
   15000:	00e79223          	sh	a4,4(a5)
   15004:	0086d713          	srli	a4,a3,0x8
   15008:	fef514e3          	bne	a0,a5,14ff0 <eshup8+0x8>
   1500c:	00008067          	ret

00015010 <eshup6>:
   15010:	00450793          	addi	a5,a0,4
   15014:	01850713          	addi	a4,a0,24
   15018:	00278793          	addi	a5,a5,2
   1501c:	0007d683          	lhu	a3,0(a5)
   15020:	fed79f23          	sh	a3,-2(a5)
   15024:	fef71ae3          	bne	a4,a5,15018 <eshup6+0x8>
   15028:	00051c23          	sh	zero,24(a0)
   1502c:	00008067          	ret

00015030 <eshdn6>:
   15030:	01850793          	addi	a5,a0,24
   15034:	01a50713          	addi	a4,a0,26
   15038:	00450693          	addi	a3,a0,4
   1503c:	ffe78793          	addi	a5,a5,-2
   15040:	0007d603          	lhu	a2,0(a5)
   15044:	ffe70713          	addi	a4,a4,-2
   15048:	00c71023          	sh	a2,0(a4)
   1504c:	fef698e3          	bne	a3,a5,1503c <eshdn6+0xc>
   15050:	00051223          	sh	zero,4(a0)
   15054:	00008067          	ret

00015058 <eaddm>:
   15058:	01858593          	addi	a1,a1,24
   1505c:	01650713          	addi	a4,a0,22
   15060:	00000693          	li	a3,0
   15064:	00275783          	lhu	a5,2(a4)
   15068:	0005d603          	lhu	a2,0(a1)
   1506c:	ffe70713          	addi	a4,a4,-2
   15070:	ffe58593          	addi	a1,a1,-2
   15074:	00c787b3          	add	a5,a5,a2
   15078:	00d787b3          	add	a5,a5,a3
   1507c:	00f59123          	sh	a5,2(a1)
   15080:	0107d793          	srli	a5,a5,0x10
   15084:	0017f693          	andi	a3,a5,1
   15088:	fce51ee3          	bne	a0,a4,15064 <eaddm+0xc>
   1508c:	00008067          	ret

00015090 <esubm>:
   15090:	01858593          	addi	a1,a1,24
   15094:	01650713          	addi	a4,a0,22
   15098:	00000693          	li	a3,0
   1509c:	0005d783          	lhu	a5,0(a1)
   150a0:	00275603          	lhu	a2,2(a4)
   150a4:	ffe70713          	addi	a4,a4,-2
   150a8:	ffe58593          	addi	a1,a1,-2
   150ac:	40c787b3          	sub	a5,a5,a2
   150b0:	40d787b3          	sub	a5,a5,a3
   150b4:	00f59123          	sh	a5,2(a1)
   150b8:	0107d793          	srli	a5,a5,0x10
   150bc:	0017f693          	andi	a3,a5,1
   150c0:	fce51ee3          	bne	a0,a4,1509c <esubm+0xc>
   150c4:	00008067          	ret

000150c8 <m16m>:
   150c8:	fb010113          	addi	sp,sp,-80
   150cc:	03312e23          	sw	s3,60(sp)
   150d0:	000109b7          	lui	s3,0x10
   150d4:	04812423          	sw	s0,72(sp)
   150d8:	04912223          	sw	s1,68(sp)
   150dc:	05212023          	sw	s2,64(sp)
   150e0:	03412c23          	sw	s4,56(sp)
   150e4:	04112623          	sw	ra,76(sp)
   150e8:	00050a13          	mv	s4,a0
   150ec:	02011523          	sh	zero,42(sp)
   150f0:	02011623          	sh	zero,44(sp)
   150f4:	01858493          	addi	s1,a1,24
   150f8:	00458913          	addi	s2,a1,4
   150fc:	02c10413          	addi	s0,sp,44
   15100:	fff98993          	addi	s3,s3,-1 # ffff <sulp-0x75>
   15104:	0004d503          	lhu	a0,0(s1)
   15108:	ffe40413          	addi	s0,s0,-2
   1510c:	ffe48493          	addi	s1,s1,-2
   15110:	04051863          	bnez	a0,15160 <m16m+0x98>
   15114:	fe041f23          	sh	zero,-2(s0)
   15118:	fe9916e3          	bne	s2,s1,15104 <m16m+0x3c>
   1511c:	00400793          	li	a5,4
   15120:	01a00713          	li	a4,26
   15124:	01410593          	addi	a1,sp,20
   15128:	00f585b3          	add	a1,a1,a5
   1512c:	0005d583          	lhu	a1,0(a1)
   15130:	00f606b3          	add	a3,a2,a5
   15134:	00278793          	addi	a5,a5,2
   15138:	00b69023          	sh	a1,0(a3)
   1513c:	fee794e3          	bne	a5,a4,15124 <m16m+0x5c>
   15140:	04c12083          	lw	ra,76(sp)
   15144:	04812403          	lw	s0,72(sp)
   15148:	04412483          	lw	s1,68(sp)
   1514c:	04012903          	lw	s2,64(sp)
   15150:	03c12983          	lw	s3,60(sp)
   15154:	03812a03          	lw	s4,56(sp)
   15158:	05010113          	addi	sp,sp,80
   1515c:	00008067          	ret
   15160:	000a0593          	mv	a1,s4
   15164:	00c12623          	sw	a2,12(sp)
   15168:	274140ef          	jal	ra,293dc <__mulsi3>
   1516c:	00245703          	lhu	a4,2(s0)
   15170:	013577b3          	and	a5,a0,s3
   15174:	01055513          	srli	a0,a0,0x10
   15178:	00e787b3          	add	a5,a5,a4
   1517c:	00045703          	lhu	a4,0(s0)
   15180:	00f41123          	sh	a5,2(s0)
   15184:	0107d793          	srli	a5,a5,0x10
   15188:	00e50533          	add	a0,a0,a4
   1518c:	00f50533          	add	a0,a0,a5
   15190:	00a41023          	sh	a0,0(s0)
   15194:	01055513          	srli	a0,a0,0x10
   15198:	fea41f23          	sh	a0,-2(s0)
   1519c:	00c12603          	lw	a2,12(sp)
   151a0:	f79ff06f          	j	15118 <m16m+0x50>

000151a4 <eisnan>:
   151a4:	01255783          	lhu	a5,18(a0)
   151a8:	fff7c793          	not	a5,a5
   151ac:	01179713          	slli	a4,a5,0x11
   151b0:	00071c63          	bnez	a4,151c8 <eisnan+0x24>
   151b4:	01250793          	addi	a5,a0,18
   151b8:	00250513          	addi	a0,a0,2
   151bc:	ffe55703          	lhu	a4,-2(a0)
   151c0:	00071863          	bnez	a4,151d0 <eisnan+0x2c>
   151c4:	fea79ae3          	bne	a5,a0,151b8 <eisnan+0x14>
   151c8:	00000513          	li	a0,0
   151cc:	00008067          	ret
   151d0:	00100513          	li	a0,1
   151d4:	00008067          	ret

000151d8 <eisneg>:
   151d8:	ff010113          	addi	sp,sp,-16
   151dc:	00812423          	sw	s0,8(sp)
   151e0:	00112623          	sw	ra,12(sp)
   151e4:	00050413          	mv	s0,a0
   151e8:	fbdff0ef          	jal	ra,151a4 <eisnan>
   151ec:	00051e63          	bnez	a0,15208 <eisneg+0x30>
   151f0:	01241503          	lh	a0,18(s0)
   151f4:	01f55513          	srli	a0,a0,0x1f
   151f8:	00c12083          	lw	ra,12(sp)
   151fc:	00812403          	lw	s0,8(sp)
   15200:	01010113          	addi	sp,sp,16
   15204:	00008067          	ret
   15208:	00000513          	li	a0,0
   1520c:	fedff06f          	j	151f8 <eisneg+0x20>

00015210 <emovi>:
   15210:	01251783          	lh	a5,18(a0)
   15214:	ff010113          	addi	sp,sp,-16
   15218:	00112623          	sw	ra,12(sp)
   1521c:	00812423          	sw	s0,8(sp)
   15220:	00912223          	sw	s1,4(sp)
   15224:	01212023          	sw	s2,0(sp)
   15228:	0607d863          	bgez	a5,15298 <emovi+0x88>
   1522c:	fff00793          	li	a5,-1
   15230:	00f59023          	sh	a5,0(a1)
   15234:	01255703          	lhu	a4,18(a0)
   15238:	000087b7          	lui	a5,0x8
   1523c:	fff78793          	addi	a5,a5,-1 # 7fff <sulp-0x8075>
   15240:	00e7f733          	and	a4,a5,a4
   15244:	00e59123          	sh	a4,2(a1)
   15248:	01050913          	addi	s2,a0,16
   1524c:	06f71663          	bne	a4,a5,152b8 <emovi+0xa8>
   15250:	00058413          	mv	s0,a1
   15254:	00050493          	mv	s1,a0
   15258:	f4dff0ef          	jal	ra,151a4 <eisnan>
   1525c:	04050263          	beqz	a0,152a0 <emovi+0x90>
   15260:	00640793          	addi	a5,s0,6
   15264:	00041223          	sh	zero,4(s0)
   15268:	ffc48513          	addi	a0,s1,-4
   1526c:	ffe90913          	addi	s2,s2,-2
   15270:	00295703          	lhu	a4,2(s2)
   15274:	00278793          	addi	a5,a5,2
   15278:	fee79f23          	sh	a4,-2(a5)
   1527c:	fea918e3          	bne	s2,a0,1526c <emovi+0x5c>
   15280:	00c12083          	lw	ra,12(sp)
   15284:	00812403          	lw	s0,8(sp)
   15288:	00412483          	lw	s1,4(sp)
   1528c:	00012903          	lw	s2,0(sp)
   15290:	01010113          	addi	sp,sp,16
   15294:	00008067          	ret
   15298:	00059023          	sh	zero,0(a1)
   1529c:	f99ff06f          	j	15234 <emovi+0x24>
   152a0:	00440793          	addi	a5,s0,4
   152a4:	01a40593          	addi	a1,s0,26
   152a8:	00278793          	addi	a5,a5,2
   152ac:	fe079f23          	sh	zero,-2(a5)
   152b0:	feb79ce3          	bne	a5,a1,152a8 <emovi+0x98>
   152b4:	fcdff06f          	j	15280 <emovi+0x70>
   152b8:	00658793          	addi	a5,a1,6
   152bc:	00059223          	sh	zero,4(a1)
   152c0:	ffe50513          	addi	a0,a0,-2
   152c4:	ffe90913          	addi	s2,s2,-2
   152c8:	00295703          	lhu	a4,2(s2)
   152cc:	00278793          	addi	a5,a5,2
   152d0:	fee79f23          	sh	a4,-2(a5)
   152d4:	fea918e3          	bne	s2,a0,152c4 <emovi+0xb4>
   152d8:	00059c23          	sh	zero,24(a1)
   152dc:	fa5ff06f          	j	15280 <emovi+0x70>

000152e0 <ecmp>:
   152e0:	fb010113          	addi	sp,sp,-80
   152e4:	04912223          	sw	s1,68(sp)
   152e8:	05212023          	sw	s2,64(sp)
   152ec:	04112623          	sw	ra,76(sp)
   152f0:	04812423          	sw	s0,72(sp)
   152f4:	00050913          	mv	s2,a0
   152f8:	00058493          	mv	s1,a1
   152fc:	ea9ff0ef          	jal	ra,151a4 <eisnan>
   15300:	0e051063          	bnez	a0,153e0 <ecmp+0x100>
   15304:	00048513          	mv	a0,s1
   15308:	e9dff0ef          	jal	ra,151a4 <eisnan>
   1530c:	00050413          	mv	s0,a0
   15310:	0c051863          	bnez	a0,153e0 <ecmp+0x100>
   15314:	00810593          	addi	a1,sp,8
   15318:	00090513          	mv	a0,s2
   1531c:	ef5ff0ef          	jal	ra,15210 <emovi>
   15320:	02410593          	addi	a1,sp,36
   15324:	00048513          	mv	a0,s1
   15328:	ee9ff0ef          	jal	ra,15210 <emovi>
   1532c:	00815703          	lhu	a4,8(sp)
   15330:	02415783          	lhu	a5,36(sp)
   15334:	06e78063          	beq	a5,a4,15394 <ecmp+0xb4>
   15338:	00200793          	li	a5,2
   1533c:	01800693          	li	a3,24
   15340:	00810613          	addi	a2,sp,8
   15344:	00f60633          	add	a2,a2,a5
   15348:	00065603          	lhu	a2,0(a2) # ffff8000 <__global_pointer$+0xfffcb8e8>
   1534c:	02061c63          	bnez	a2,15384 <ecmp+0xa4>
   15350:	02410613          	addi	a2,sp,36
   15354:	00f60633          	add	a2,a2,a5
   15358:	00065603          	lhu	a2,0(a2)
   1535c:	02061463          	bnez	a2,15384 <ecmp+0xa4>
   15360:	00278793          	addi	a5,a5,2
   15364:	fcd79ee3          	bne	a5,a3,15340 <ecmp+0x60>
   15368:	00040513          	mv	a0,s0
   1536c:	04c12083          	lw	ra,76(sp)
   15370:	04812403          	lw	s0,72(sp)
   15374:	04412483          	lw	s1,68(sp)
   15378:	04012903          	lw	s2,64(sp)
   1537c:	05010113          	addi	sp,sp,80
   15380:	00008067          	ret
   15384:	00100413          	li	s0,1
   15388:	fe0700e3          	beqz	a4,15368 <ecmp+0x88>
   1538c:	fff00413          	li	s0,-1
   15390:	fd9ff06f          	j	15368 <ecmp+0x88>
   15394:	00100613          	li	a2,1
   15398:	00078463          	beqz	a5,153a0 <ecmp+0xc0>
   1539c:	fff00613          	li	a2,-1
   153a0:	00000793          	li	a5,0
   153a4:	01800593          	li	a1,24
   153a8:	00810713          	addi	a4,sp,8
   153ac:	00f70733          	add	a4,a4,a5
   153b0:	00075683          	lhu	a3,0(a4)
   153b4:	02410713          	addi	a4,sp,36
   153b8:	00f70733          	add	a4,a4,a5
   153bc:	00075703          	lhu	a4,0(a4)
   153c0:	00e69863          	bne	a3,a4,153d0 <ecmp+0xf0>
   153c4:	00278793          	addi	a5,a5,2
   153c8:	feb790e3          	bne	a5,a1,153a8 <ecmp+0xc8>
   153cc:	f9dff06f          	j	15368 <ecmp+0x88>
   153d0:	00060413          	mv	s0,a2
   153d4:	f8d76ae3          	bltu	a4,a3,15368 <ecmp+0x88>
   153d8:	40c00433          	neg	s0,a2
   153dc:	f8dff06f          	j	15368 <ecmp+0x88>
   153e0:	ffe00413          	li	s0,-2
   153e4:	f85ff06f          	j	15368 <ecmp+0x88>

000153e8 <eisinf>:
   153e8:	01255783          	lhu	a5,18(a0)
   153ec:	fff7c793          	not	a5,a5
   153f0:	01179713          	slli	a4,a5,0x11
   153f4:	02071063          	bnez	a4,15414 <eisinf+0x2c>
   153f8:	ff010113          	addi	sp,sp,-16
   153fc:	00112623          	sw	ra,12(sp)
   15400:	da5ff0ef          	jal	ra,151a4 <eisnan>
   15404:	00c12083          	lw	ra,12(sp)
   15408:	00153513          	seqz	a0,a0
   1540c:	01010113          	addi	sp,sp,16
   15410:	00008067          	ret
   15414:	00000513          	li	a0,0
   15418:	00008067          	ret

0001541c <einfin.isra.2>:
   1541c:	01250793          	addi	a5,a0,18
   15420:	00250513          	addi	a0,a0,2
   15424:	fe051f23          	sh	zero,-2(a0)
   15428:	fef51ce3          	bne	a0,a5,15420 <einfin.isra.2+0x4>
