
memory:     file format elf32-littleriscv


Disassembly of section .text:

00010074 <main>:
   10074:	00021537          	lui	a0,0x21
   10078:	ff010113          	addi	sp,sp,-16
   1007c:	40000593          	li	a1,1024
   10080:	6d050513          	addi	a0,a0,1744 # 216d0 <__clzsi2+0x4c>
   10084:	00112623          	sw	ra,12(sp)
   10088:	00812423          	sw	s0,8(sp)
   1008c:	289000ef          	jal	ra,10b14 <printf>
   10090:	00001537          	lui	a0,0x1
   10094:	300000ef          	jal	ra,10394 <malloc>
   10098:	00050593          	mv	a1,a0
   1009c:	00050413          	mv	s0,a0
   100a0:	00021537          	lui	a0,0x21
   100a4:	6ec50513          	addi	a0,a0,1772 # 216ec <__clzsi2+0x68>
   100a8:	26d000ef          	jal	ra,10b14 <printf>
   100ac:	00021537          	lui	a0,0x21
   100b0:	6fc50513          	addi	a0,a0,1788 # 216fc <__clzsi2+0x78>
   100b4:	375000ef          	jal	ra,10c28 <puts>
   100b8:	00040713          	mv	a4,s0
   100bc:	00000793          	li	a5,0
   100c0:	40000693          	li	a3,1024
   100c4:	00470713          	addi	a4,a4,4
   100c8:	fef72e23          	sw	a5,-4(a4)
   100cc:	00178793          	addi	a5,a5,1
   100d0:	fed79ae3          	bne	a5,a3,100c4 <main+0x50>
   100d4:	00021537          	lui	a0,0x21
   100d8:	72050513          	addi	a0,a0,1824 # 21720 <__clzsi2+0x9c>
   100dc:	34d000ef          	jal	ra,10c28 <puts>
   100e0:	00001537          	lui	a0,0x1
   100e4:	00a40533          	add	a0,s0,a0
   100e8:	2b8000ef          	jal	ra,103a0 <free>
   100ec:	00c12083          	lw	ra,12(sp)
   100f0:	00812403          	lw	s0,8(sp)
   100f4:	00000513          	li	a0,0
   100f8:	01010113          	addi	sp,sp,16
   100fc:	00008067          	ret

00010100 <_start>:
   10100:	00014197          	auipc	gp,0x14
   10104:	66018193          	addi	gp,gp,1632 # 24760 <__global_pointer$>
   10108:	00014517          	auipc	a0,0x14
   1010c:	e8450513          	addi	a0,a0,-380 # 23f8c <_edata>
   10110:	00014617          	auipc	a2,0x14
   10114:	ee060613          	addi	a2,a2,-288 # 23ff0 <_end>
   10118:	40a60633          	sub	a2,a2,a0
   1011c:	00000593          	li	a1,0
   10120:	0d1000ef          	jal	ra,109f0 <memset>
   10124:	00000517          	auipc	a0,0x0
   10128:	16050513          	addi	a0,a0,352 # 10284 <__libc_fini_array>
   1012c:	114000ef          	jal	ra,10240 <atexit>
   10130:	1c4000ef          	jal	ra,102f4 <__libc_init_array>
   10134:	00012503          	lw	a0,0(sp)
   10138:	00410593          	addi	a1,sp,4
   1013c:	00000613          	li	a2,0
   10140:	f35ff0ef          	jal	ra,10074 <main>
   10144:	1100006f          	j	10254 <exit>

00010148 <_fini>:
   10148:	00008067          	ret

0001014c <deregister_tm_clones>:
   1014c:	00024537          	lui	a0,0x24
   10150:	000247b7          	lui	a5,0x24
   10154:	f5c50713          	addi	a4,a0,-164 # 23f5c <__TMC_END__>
   10158:	f5c78793          	addi	a5,a5,-164 # 23f5c <__TMC_END__>
   1015c:	00e78c63          	beq	a5,a4,10174 <deregister_tm_clones+0x28>
   10160:	00000337          	lui	t1,0x0
   10164:	00030313          	mv	t1,t1
   10168:	00030663          	beqz	t1,10174 <deregister_tm_clones+0x28>
   1016c:	f5c50513          	addi	a0,a0,-164
   10170:	00030067          	jr	t1
   10174:	00008067          	ret

00010178 <register_tm_clones>:
   10178:	000247b7          	lui	a5,0x24
   1017c:	00024537          	lui	a0,0x24
   10180:	f5c78593          	addi	a1,a5,-164 # 23f5c <__TMC_END__>
   10184:	f5c50793          	addi	a5,a0,-164 # 23f5c <__TMC_END__>
   10188:	40f585b3          	sub	a1,a1,a5
   1018c:	4025d593          	srai	a1,a1,0x2
   10190:	01f5d793          	srli	a5,a1,0x1f
   10194:	00b785b3          	add	a1,a5,a1
   10198:	4015d593          	srai	a1,a1,0x1
   1019c:	00058c63          	beqz	a1,101b4 <register_tm_clones+0x3c>
   101a0:	00000337          	lui	t1,0x0
   101a4:	00030313          	mv	t1,t1
   101a8:	00030663          	beqz	t1,101b4 <register_tm_clones+0x3c>
   101ac:	f5c50513          	addi	a0,a0,-164
   101b0:	00030067          	jr	t1
   101b4:	00008067          	ret

000101b8 <__do_global_dtors_aux>:
   101b8:	8481c703          	lbu	a4,-1976(gp) # 23fa8 <completed.5148>
   101bc:	04071663          	bnez	a4,10208 <__do_global_dtors_aux+0x50>
   101c0:	ff010113          	addi	sp,sp,-16
   101c4:	00812423          	sw	s0,8(sp)
   101c8:	00112623          	sw	ra,12(sp)
   101cc:	00078413          	mv	s0,a5
   101d0:	f7dff0ef          	jal	ra,1014c <deregister_tm_clones>
   101d4:	000007b7          	lui	a5,0x0
   101d8:	00078793          	mv	a5,a5
   101dc:	00078a63          	beqz	a5,101f0 <__do_global_dtors_aux+0x38>
   101e0:	00022537          	lui	a0,0x22
   101e4:	44c50513          	addi	a0,a0,1100 # 2244c <__EH_FRAME_BEGIN__>
   101e8:	ffff0097          	auipc	ra,0xffff0
   101ec:	e18080e7          	jalr	-488(ra) # 0 <main-0x10074>
   101f0:	00100793          	li	a5,1
   101f4:	84f18423          	sb	a5,-1976(gp) # 23fa8 <completed.5148>
   101f8:	00c12083          	lw	ra,12(sp)
   101fc:	00812403          	lw	s0,8(sp)
   10200:	01010113          	addi	sp,sp,16
   10204:	00008067          	ret
   10208:	00008067          	ret

0001020c <frame_dummy>:
   1020c:	000007b7          	lui	a5,0x0
   10210:	00078793          	mv	a5,a5
   10214:	02078463          	beqz	a5,1023c <frame_dummy+0x30>
   10218:	00022537          	lui	a0,0x22
   1021c:	ff010113          	addi	sp,sp,-16
   10220:	84c18593          	addi	a1,gp,-1972 # 23fac <object.5153>
   10224:	44c50513          	addi	a0,a0,1100 # 2244c <__EH_FRAME_BEGIN__>
   10228:	00112623          	sw	ra,12(sp)
   1022c:	ffff0097          	auipc	ra,0xffff0
   10230:	dd4080e7          	jalr	-556(ra) # 0 <main-0x10074>
   10234:	00c12083          	lw	ra,12(sp)
   10238:	01010113          	addi	sp,sp,16
   1023c:	f3dff06f          	j	10178 <register_tm_clones>

00010240 <atexit>:
   10240:	00050593          	mv	a1,a0
   10244:	00000693          	li	a3,0
   10248:	00000613          	li	a2,0
   1024c:	00000513          	li	a0,0
   10250:	4690206f          	j	12eb8 <__register_exitproc>

00010254 <exit>:
   10254:	ff010113          	addi	sp,sp,-16
   10258:	00000593          	li	a1,0
   1025c:	00812423          	sw	s0,8(sp)
   10260:	00112623          	sw	ra,12(sp)
   10264:	00050413          	mv	s0,a0
   10268:	4cd020ef          	jal	ra,12f34 <__call_exitprocs>
   1026c:	81c1a503          	lw	a0,-2020(gp) # 23f7c <_global_impure_ptr>
   10270:	03c52783          	lw	a5,60(a0)
   10274:	00078463          	beqz	a5,1027c <exit+0x28>
   10278:	000780e7          	jalr	a5
   1027c:	00040513          	mv	a0,s0
   10280:	3e00c0ef          	jal	ra,1c660 <_exit>

00010284 <__libc_fini_array>:
   10284:	ff010113          	addi	sp,sp,-16
   10288:	000237b7          	lui	a5,0x23
   1028c:	00023737          	lui	a4,0x23
   10290:	00812423          	sw	s0,8(sp)
   10294:	5bc70713          	addi	a4,a4,1468 # 235bc <__init_array_end>
   10298:	5c078413          	addi	s0,a5,1472 # 235c0 <__fini_array_end>
   1029c:	40e40433          	sub	s0,s0,a4
   102a0:	00912223          	sw	s1,4(sp)
   102a4:	01212023          	sw	s2,0(sp)
   102a8:	00112623          	sw	ra,12(sp)
   102ac:	40245413          	srai	s0,s0,0x2
   102b0:	00000493          	li	s1,0
   102b4:	5c078913          	addi	s2,a5,1472
   102b8:	00941e63          	bne	s0,s1,102d4 <__libc_fini_array+0x50>
   102bc:	00812403          	lw	s0,8(sp)
   102c0:	00c12083          	lw	ra,12(sp)
   102c4:	00412483          	lw	s1,4(sp)
   102c8:	00012903          	lw	s2,0(sp)
   102cc:	01010113          	addi	sp,sp,16
   102d0:	e79ff06f          	j	10148 <_fini>
   102d4:	ffc00593          	li	a1,-4
   102d8:	00048513          	mv	a0,s1
   102dc:	2d0110ef          	jal	ra,215ac <__mulsi3>
   102e0:	00a90533          	add	a0,s2,a0
   102e4:	ffc52783          	lw	a5,-4(a0)
   102e8:	00148493          	addi	s1,s1,1
   102ec:	000780e7          	jalr	a5
   102f0:	fc9ff06f          	j	102b8 <__libc_fini_array+0x34>

000102f4 <__libc_init_array>:
   102f4:	ff010113          	addi	sp,sp,-16
   102f8:	00812423          	sw	s0,8(sp)
   102fc:	00912223          	sw	s1,4(sp)
   10300:	00023437          	lui	s0,0x23
   10304:	000234b7          	lui	s1,0x23
   10308:	5b848793          	addi	a5,s1,1464 # 235b8 <__frame_dummy_init_array_entry>
   1030c:	5b840413          	addi	s0,s0,1464 # 235b8 <__frame_dummy_init_array_entry>
   10310:	40f40433          	sub	s0,s0,a5
   10314:	01212023          	sw	s2,0(sp)
   10318:	00112623          	sw	ra,12(sp)
   1031c:	40245413          	srai	s0,s0,0x2
   10320:	5b848493          	addi	s1,s1,1464
   10324:	00000913          	li	s2,0
   10328:	04891263          	bne	s2,s0,1036c <__libc_init_array+0x78>
   1032c:	000234b7          	lui	s1,0x23
   10330:	e19ff0ef          	jal	ra,10148 <_fini>
   10334:	00023437          	lui	s0,0x23
   10338:	5b848793          	addi	a5,s1,1464 # 235b8 <__frame_dummy_init_array_entry>
   1033c:	5bc40413          	addi	s0,s0,1468 # 235bc <__init_array_end>
   10340:	40f40433          	sub	s0,s0,a5
   10344:	40245413          	srai	s0,s0,0x2
   10348:	5b848493          	addi	s1,s1,1464
   1034c:	00000913          	li	s2,0
   10350:	02891863          	bne	s2,s0,10380 <__libc_init_array+0x8c>
   10354:	00c12083          	lw	ra,12(sp)
   10358:	00812403          	lw	s0,8(sp)
   1035c:	00412483          	lw	s1,4(sp)
   10360:	00012903          	lw	s2,0(sp)
   10364:	01010113          	addi	sp,sp,16
   10368:	00008067          	ret
   1036c:	0004a783          	lw	a5,0(s1)
   10370:	00190913          	addi	s2,s2,1
   10374:	00448493          	addi	s1,s1,4
   10378:	000780e7          	jalr	a5
   1037c:	fadff06f          	j	10328 <__libc_init_array+0x34>
   10380:	0004a783          	lw	a5,0(s1)
   10384:	00190913          	addi	s2,s2,1
   10388:	00448493          	addi	s1,s1,4
   1038c:	000780e7          	jalr	a5
   10390:	fc1ff06f          	j	10350 <__libc_init_array+0x5c>

00010394 <malloc>:
   10394:	00050593          	mv	a1,a0
   10398:	8201a503          	lw	a0,-2016(gp) # 23f80 <_impure_ptr>
   1039c:	0100006f          	j	103ac <_malloc_r>

000103a0 <free>:
   103a0:	00050593          	mv	a1,a0
   103a4:	8201a503          	lw	a0,-2016(gp) # 23f80 <_impure_ptr>
   103a8:	2e80306f          	j	13690 <_free_r>

000103ac <_malloc_r>:
   103ac:	fd010113          	addi	sp,sp,-48
   103b0:	02112623          	sw	ra,44(sp)
   103b4:	02812423          	sw	s0,40(sp)
   103b8:	02912223          	sw	s1,36(sp)
   103bc:	03212023          	sw	s2,32(sp)
   103c0:	01312e23          	sw	s3,28(sp)
   103c4:	01412c23          	sw	s4,24(sp)
   103c8:	01512a23          	sw	s5,20(sp)
   103cc:	01612823          	sw	s6,16(sp)
   103d0:	01712623          	sw	s7,12(sp)
   103d4:	01812423          	sw	s8,8(sp)
   103d8:	00b58793          	addi	a5,a1,11
   103dc:	01600713          	li	a4,22
   103e0:	04f77463          	bleu	a5,a4,10428 <_malloc_r+0x7c>
   103e4:	ff87f493          	andi	s1,a5,-8
   103e8:	0404d263          	bgez	s1,1042c <_malloc_r+0x80>
   103ec:	00c00793          	li	a5,12
   103f0:	00f52023          	sw	a5,0(a0)
   103f4:	00000513          	li	a0,0
   103f8:	02c12083          	lw	ra,44(sp)
   103fc:	02812403          	lw	s0,40(sp)
   10400:	02412483          	lw	s1,36(sp)
   10404:	02012903          	lw	s2,32(sp)
   10408:	01c12983          	lw	s3,28(sp)
   1040c:	01812a03          	lw	s4,24(sp)
   10410:	01412a83          	lw	s5,20(sp)
   10414:	01012b03          	lw	s6,16(sp)
   10418:	00c12b83          	lw	s7,12(sp)
   1041c:	00812c03          	lw	s8,8(sp)
   10420:	03010113          	addi	sp,sp,48
   10424:	00008067          	ret
   10428:	01000493          	li	s1,16
   1042c:	fcb4e0e3          	bltu	s1,a1,103ec <_malloc_r+0x40>
   10430:	00050993          	mv	s3,a0
   10434:	698000ef          	jal	ra,10acc <__malloc_lock>
   10438:	00024937          	lui	s2,0x24
   1043c:	1f700793          	li	a5,503
   10440:	9e890913          	addi	s2,s2,-1560 # 239e8 <__malloc_av_>
   10444:	0497ea63          	bltu	a5,s1,10498 <_malloc_r+0xec>
   10448:	00848713          	addi	a4,s1,8
   1044c:	00e90733          	add	a4,s2,a4
   10450:	00472403          	lw	s0,4(a4)
   10454:	ff870693          	addi	a3,a4,-8
   10458:	0034d793          	srli	a5,s1,0x3
   1045c:	00d41863          	bne	s0,a3,1046c <_malloc_r+0xc0>
   10460:	00c72403          	lw	s0,12(a4)
   10464:	00278793          	addi	a5,a5,2
   10468:	08870063          	beq	a4,s0,104e8 <_malloc_r+0x13c>
   1046c:	00442783          	lw	a5,4(s0)
   10470:	00c42703          	lw	a4,12(s0)
   10474:	00842683          	lw	a3,8(s0)
   10478:	ffc7f793          	andi	a5,a5,-4
   1047c:	00f407b3          	add	a5,s0,a5
   10480:	00e6a623          	sw	a4,12(a3)
   10484:	00d72423          	sw	a3,8(a4)
   10488:	0047a703          	lw	a4,4(a5)
   1048c:	00176713          	ori	a4,a4,1
   10490:	00e7a223          	sw	a4,4(a5)
   10494:	0a80006f          	j	1053c <_malloc_r+0x190>
   10498:	0094d713          	srli	a4,s1,0x9
   1049c:	03f00793          	li	a5,63
   104a0:	00070a63          	beqz	a4,104b4 <_malloc_r+0x108>
   104a4:	00400793          	li	a5,4
   104a8:	0ae7e263          	bltu	a5,a4,1054c <_malloc_r+0x1a0>
   104ac:	0064d793          	srli	a5,s1,0x6
   104b0:	03878793          	addi	a5,a5,56
   104b4:	00178713          	addi	a4,a5,1
   104b8:	00371713          	slli	a4,a4,0x3
   104bc:	00e90733          	add	a4,s2,a4
   104c0:	00472403          	lw	s0,4(a4)
   104c4:	ff870593          	addi	a1,a4,-8
   104c8:	00f00513          	li	a0,15
   104cc:	00b40c63          	beq	s0,a1,104e4 <_malloc_r+0x138>
   104d0:	00442703          	lw	a4,4(s0)
   104d4:	ffc77713          	andi	a4,a4,-4
   104d8:	40970633          	sub	a2,a4,s1
   104dc:	0cc55063          	ble	a2,a0,1059c <_malloc_r+0x1f0>
   104e0:	fff78793          	addi	a5,a5,-1
   104e4:	00178793          	addi	a5,a5,1
   104e8:	01092403          	lw	s0,16(s2)
   104ec:	000245b7          	lui	a1,0x24
   104f0:	00890693          	addi	a3,s2,8
   104f4:	9f058593          	addi	a1,a1,-1552 # 239f0 <__malloc_av_+0x8>
   104f8:	12d40863          	beq	s0,a3,10628 <_malloc_r+0x27c>
   104fc:	00442703          	lw	a4,4(s0)
   10500:	00f00613          	li	a2,15
   10504:	ffc77713          	andi	a4,a4,-4
   10508:	40970533          	sub	a0,a4,s1
   1050c:	0aa65a63          	ble	a0,a2,105c0 <_malloc_r+0x214>
   10510:	0014e793          	ori	a5,s1,1
   10514:	00f42223          	sw	a5,4(s0)
   10518:	00940633          	add	a2,s0,s1
   1051c:	00c92a23          	sw	a2,20(s2)
   10520:	00c92823          	sw	a2,16(s2)
   10524:	00156793          	ori	a5,a0,1
   10528:	00d62623          	sw	a3,12(a2)
   1052c:	00d62423          	sw	a3,8(a2)
   10530:	00f62223          	sw	a5,4(a2)
   10534:	00e40733          	add	a4,s0,a4
   10538:	00a72023          	sw	a0,0(a4)
   1053c:	00098513          	mv	a0,s3
   10540:	590000ef          	jal	ra,10ad0 <__malloc_unlock>
   10544:	00840513          	addi	a0,s0,8
   10548:	eb1ff06f          	j	103f8 <_malloc_r+0x4c>
   1054c:	01400793          	li	a5,20
   10550:	00e7e663          	bltu	a5,a4,1055c <_malloc_r+0x1b0>
   10554:	05b70793          	addi	a5,a4,91
   10558:	f5dff06f          	j	104b4 <_malloc_r+0x108>
   1055c:	05400793          	li	a5,84
   10560:	00e7e863          	bltu	a5,a4,10570 <_malloc_r+0x1c4>
   10564:	00c4d793          	srli	a5,s1,0xc
   10568:	06e78793          	addi	a5,a5,110
   1056c:	f49ff06f          	j	104b4 <_malloc_r+0x108>
   10570:	15400793          	li	a5,340
   10574:	00e7e863          	bltu	a5,a4,10584 <_malloc_r+0x1d8>
   10578:	00f4d793          	srli	a5,s1,0xf
   1057c:	07778793          	addi	a5,a5,119
   10580:	f35ff06f          	j	104b4 <_malloc_r+0x108>
   10584:	55400693          	li	a3,1364
   10588:	07e00793          	li	a5,126
   1058c:	f2e6e4e3          	bltu	a3,a4,104b4 <_malloc_r+0x108>
   10590:	0124d793          	srli	a5,s1,0x12
   10594:	07c78793          	addi	a5,a5,124
   10598:	f1dff06f          	j	104b4 <_malloc_r+0x108>
   1059c:	00c42683          	lw	a3,12(s0)
   105a0:	00064c63          	bltz	a2,105b8 <_malloc_r+0x20c>
   105a4:	00842783          	lw	a5,8(s0)
   105a8:	00d7a623          	sw	a3,12(a5)
   105ac:	00f6a423          	sw	a5,8(a3)
   105b0:	00e407b3          	add	a5,s0,a4
   105b4:	ed5ff06f          	j	10488 <_malloc_r+0xdc>
   105b8:	00068413          	mv	s0,a3
   105bc:	f11ff06f          	j	104cc <_malloc_r+0x120>
   105c0:	00d92a23          	sw	a3,20(s2)
   105c4:	00d92823          	sw	a3,16(s2)
   105c8:	00054c63          	bltz	a0,105e0 <_malloc_r+0x234>
   105cc:	00e40733          	add	a4,s0,a4
   105d0:	00472783          	lw	a5,4(a4)
   105d4:	0017e793          	ori	a5,a5,1
   105d8:	00f72223          	sw	a5,4(a4)
   105dc:	f61ff06f          	j	1053c <_malloc_r+0x190>
   105e0:	1ff00693          	li	a3,511
   105e4:	00492803          	lw	a6,4(s2)
   105e8:	16e6e663          	bltu	a3,a4,10754 <_malloc_r+0x3a8>
   105ec:	00375713          	srli	a4,a4,0x3
   105f0:	40275613          	srai	a2,a4,0x2
   105f4:	00100693          	li	a3,1
   105f8:	00170713          	addi	a4,a4,1
   105fc:	00c696b3          	sll	a3,a3,a2
   10600:	00371713          	slli	a4,a4,0x3
   10604:	00e90733          	add	a4,s2,a4
   10608:	0106e6b3          	or	a3,a3,a6
   1060c:	00d92223          	sw	a3,4(s2)
   10610:	00072683          	lw	a3,0(a4)
   10614:	ff870613          	addi	a2,a4,-8
   10618:	00c42623          	sw	a2,12(s0)
   1061c:	00d42423          	sw	a3,8(s0)
   10620:	00872023          	sw	s0,0(a4)
   10624:	0086a623          	sw	s0,12(a3)
   10628:	4027d713          	srai	a4,a5,0x2
   1062c:	00100313          	li	t1,1
   10630:	00e31333          	sll	t1,t1,a4
   10634:	00492703          	lw	a4,4(s2)
   10638:	06676a63          	bltu	a4,t1,106ac <_malloc_r+0x300>
   1063c:	006776b3          	and	a3,a4,t1
   10640:	00069c63          	bnez	a3,10658 <_malloc_r+0x2ac>
   10644:	ffc7f793          	andi	a5,a5,-4
   10648:	00131313          	slli	t1,t1,0x1
   1064c:	006776b3          	and	a3,a4,t1
   10650:	00478793          	addi	a5,a5,4
   10654:	fe068ae3          	beqz	a3,10648 <_malloc_r+0x29c>
   10658:	00f00e13          	li	t3,15
   1065c:	00379693          	slli	a3,a5,0x3
   10660:	00d906b3          	add	a3,s2,a3
   10664:	00068813          	mv	a6,a3
   10668:	00078513          	mv	a0,a5
   1066c:	00c82403          	lw	s0,12(a6)
   10670:	1b041263          	bne	s0,a6,10814 <_malloc_r+0x468>
   10674:	00150513          	addi	a0,a0,1
   10678:	00357713          	andi	a4,a0,3
   1067c:	00880813          	addi	a6,a6,8
   10680:	fe0716e3          	bnez	a4,1066c <_malloc_r+0x2c0>
   10684:	0037f713          	andi	a4,a5,3
   10688:	20071463          	bnez	a4,10890 <_malloc_r+0x4e4>
   1068c:	00492703          	lw	a4,4(s2)
   10690:	fff34793          	not	a5,t1
   10694:	00f777b3          	and	a5,a4,a5
   10698:	00f92223          	sw	a5,4(s2)
   1069c:	00492703          	lw	a4,4(s2)
   106a0:	00131313          	slli	t1,t1,0x1
   106a4:	00676463          	bltu	a4,t1,106ac <_malloc_r+0x300>
   106a8:	20031863          	bnez	t1,108b8 <_malloc_r+0x50c>
   106ac:	00892b83          	lw	s7,8(s2)
   106b0:	004ba403          	lw	s0,4(s7)
   106b4:	ffc47a93          	andi	s5,s0,-4
   106b8:	009ae863          	bltu	s5,s1,106c8 <_malloc_r+0x31c>
   106bc:	409a8733          	sub	a4,s5,s1
   106c0:	00f00793          	li	a5,15
   106c4:	30e7ca63          	blt	a5,a4,109d8 <_malloc_r+0x62c>
   106c8:	8341a403          	lw	s0,-1996(gp) # 23f94 <__malloc_top_pad>
   106cc:	8241a703          	lw	a4,-2012(gp) # 23f84 <__malloc_sbrk_base>
   106d0:	fff00793          	li	a5,-1
   106d4:	00848433          	add	s0,s1,s0
   106d8:	1ef71463          	bne	a4,a5,108c0 <_malloc_r+0x514>
   106dc:	01040413          	addi	s0,s0,16
   106e0:	00040593          	mv	a1,s0
   106e4:	00098513          	mv	a0,s3
   106e8:	54c000ef          	jal	ra,10c34 <_sbrk_r>
   106ec:	fff00793          	li	a5,-1
   106f0:	00050b13          	mv	s6,a0
   106f4:	26f50863          	beq	a0,a5,10964 <_malloc_r+0x5b8>
   106f8:	015b87b3          	add	a5,s7,s5
   106fc:	00f57463          	bleu	a5,a0,10704 <_malloc_r+0x358>
   10700:	272b9263          	bne	s7,s2,10964 <_malloc_r+0x5b8>
   10704:	86418693          	addi	a3,gp,-1948 # 23fc4 <__malloc_current_mallinfo>
   10708:	0006a703          	lw	a4,0(a3)
   1070c:	86418c13          	addi	s8,gp,-1948 # 23fc4 <__malloc_current_mallinfo>
   10710:	00e40733          	add	a4,s0,a4
   10714:	00e6a023          	sw	a4,0(a3)
   10718:	1d679063          	bne	a5,s6,108d8 <_malloc_r+0x52c>
   1071c:	01479693          	slli	a3,a5,0x14
   10720:	1a069c63          	bnez	a3,108d8 <_malloc_r+0x52c>
   10724:	00892783          	lw	a5,8(s2)
   10728:	008a8433          	add	s0,s5,s0
   1072c:	00146413          	ori	s0,s0,1
   10730:	0087a223          	sw	s0,4(a5)
   10734:	000c2783          	lw	a5,0(s8)
   10738:	8301a683          	lw	a3,-2000(gp) # 23f90 <__malloc_max_sbrked_mem>
   1073c:	00f6f463          	bleu	a5,a3,10744 <_malloc_r+0x398>
   10740:	82f1a823          	sw	a5,-2000(gp) # 23f90 <__malloc_max_sbrked_mem>
   10744:	82c1a683          	lw	a3,-2004(gp) # 23f8c <_edata>
   10748:	20f6fe63          	bleu	a5,a3,10964 <_malloc_r+0x5b8>
   1074c:	82f1a623          	sw	a5,-2004(gp) # 23f8c <_edata>
   10750:	2140006f          	j	10964 <_malloc_r+0x5b8>
   10754:	00975613          	srli	a2,a4,0x9
   10758:	00400693          	li	a3,4
   1075c:	04c6e663          	bltu	a3,a2,107a8 <_malloc_r+0x3fc>
   10760:	00675693          	srli	a3,a4,0x6
   10764:	03868693          	addi	a3,a3,56
   10768:	00168613          	addi	a2,a3,1
   1076c:	00361613          	slli	a2,a2,0x3
   10770:	00c90633          	add	a2,s2,a2
   10774:	ff860513          	addi	a0,a2,-8
   10778:	00062603          	lw	a2,0(a2)
   1077c:	08c51263          	bne	a0,a2,10800 <_malloc_r+0x454>
   10780:	4026d693          	srai	a3,a3,0x2
   10784:	00100713          	li	a4,1
   10788:	00d716b3          	sll	a3,a4,a3
   1078c:	0106e6b3          	or	a3,a3,a6
   10790:	00d92223          	sw	a3,4(s2)
   10794:	00a42623          	sw	a0,12(s0)
   10798:	00c42423          	sw	a2,8(s0)
   1079c:	00852423          	sw	s0,8(a0)
   107a0:	00862623          	sw	s0,12(a2)
   107a4:	e85ff06f          	j	10628 <_malloc_r+0x27c>
   107a8:	01400693          	li	a3,20
   107ac:	00c6e663          	bltu	a3,a2,107b8 <_malloc_r+0x40c>
   107b0:	05b60693          	addi	a3,a2,91
   107b4:	fb5ff06f          	j	10768 <_malloc_r+0x3bc>
   107b8:	05400693          	li	a3,84
   107bc:	00c6e863          	bltu	a3,a2,107cc <_malloc_r+0x420>
   107c0:	00c75693          	srli	a3,a4,0xc
   107c4:	06e68693          	addi	a3,a3,110
   107c8:	fa1ff06f          	j	10768 <_malloc_r+0x3bc>
   107cc:	15400693          	li	a3,340
   107d0:	00c6e863          	bltu	a3,a2,107e0 <_malloc_r+0x434>
   107d4:	00f75693          	srli	a3,a4,0xf
   107d8:	07768693          	addi	a3,a3,119
   107dc:	f8dff06f          	j	10768 <_malloc_r+0x3bc>
   107e0:	55400513          	li	a0,1364
   107e4:	07e00693          	li	a3,126
   107e8:	f8c560e3          	bltu	a0,a2,10768 <_malloc_r+0x3bc>
   107ec:	01275693          	srli	a3,a4,0x12
   107f0:	07c68693          	addi	a3,a3,124
   107f4:	f75ff06f          	j	10768 <_malloc_r+0x3bc>
   107f8:	00862603          	lw	a2,8(a2)
   107fc:	00c50863          	beq	a0,a2,1080c <_malloc_r+0x460>
   10800:	00462683          	lw	a3,4(a2)
   10804:	ffc6f693          	andi	a3,a3,-4
   10808:	fed768e3          	bltu	a4,a3,107f8 <_malloc_r+0x44c>
   1080c:	00c62503          	lw	a0,12(a2)
   10810:	f85ff06f          	j	10794 <_malloc_r+0x3e8>
   10814:	00442703          	lw	a4,4(s0)
   10818:	00c42603          	lw	a2,12(s0)
   1081c:	ffc77713          	andi	a4,a4,-4
   10820:	409708b3          	sub	a7,a4,s1
   10824:	051e5063          	ble	a7,t3,10864 <_malloc_r+0x4b8>
   10828:	0014e793          	ori	a5,s1,1
   1082c:	00f42223          	sw	a5,4(s0)
   10830:	00842783          	lw	a5,8(s0)
   10834:	009406b3          	add	a3,s0,s1
   10838:	00e40733          	add	a4,s0,a4
   1083c:	00c7a623          	sw	a2,12(a5)
   10840:	00f62423          	sw	a5,8(a2)
   10844:	00d92a23          	sw	a3,20(s2)
   10848:	00d92823          	sw	a3,16(s2)
   1084c:	0018e793          	ori	a5,a7,1
   10850:	00b6a623          	sw	a1,12(a3)
   10854:	00b6a423          	sw	a1,8(a3)
   10858:	00f6a223          	sw	a5,4(a3)
   1085c:	01172023          	sw	a7,0(a4)
   10860:	cddff06f          	j	1053c <_malloc_r+0x190>
   10864:	0208c263          	bltz	a7,10888 <_malloc_r+0x4dc>
   10868:	00e40733          	add	a4,s0,a4
   1086c:	00472783          	lw	a5,4(a4)
   10870:	0017e793          	ori	a5,a5,1
   10874:	00f72223          	sw	a5,4(a4)
   10878:	00842783          	lw	a5,8(s0)
   1087c:	00c7a623          	sw	a2,12(a5)
   10880:	00f62423          	sw	a5,8(a2)
   10884:	cb9ff06f          	j	1053c <_malloc_r+0x190>
   10888:	00060413          	mv	s0,a2
   1088c:	de5ff06f          	j	10670 <_malloc_r+0x2c4>
   10890:	ff868713          	addi	a4,a3,-8
   10894:	0006a683          	lw	a3,0(a3)
   10898:	fff78793          	addi	a5,a5,-1
   1089c:	dee684e3          	beq	a3,a4,10684 <_malloc_r+0x2d8>
   108a0:	dfdff06f          	j	1069c <_malloc_r+0x2f0>
   108a4:	00478793          	addi	a5,a5,4
   108a8:	00131313          	slli	t1,t1,0x1
   108ac:	006776b3          	and	a3,a4,t1
   108b0:	fe068ae3          	beqz	a3,108a4 <_malloc_r+0x4f8>
   108b4:	da9ff06f          	j	1065c <_malloc_r+0x2b0>
   108b8:	00050793          	mv	a5,a0
   108bc:	ff1ff06f          	j	108ac <_malloc_r+0x500>
   108c0:	000017b7          	lui	a5,0x1
   108c4:	00f78793          	addi	a5,a5,15 # 100f <main-0xf065>
   108c8:	00f40433          	add	s0,s0,a5
   108cc:	fffff7b7          	lui	a5,0xfffff
   108d0:	00f47433          	and	s0,s0,a5
   108d4:	e0dff06f          	j	106e0 <_malloc_r+0x334>
   108d8:	8241a603          	lw	a2,-2012(gp) # 23f84 <__malloc_sbrk_base>
   108dc:	fff00693          	li	a3,-1
   108e0:	0ad61663          	bne	a2,a3,1098c <_malloc_r+0x5e0>
   108e4:	8361a223          	sw	s6,-2012(gp) # 23f84 <__malloc_sbrk_base>
   108e8:	007b7593          	andi	a1,s6,7
   108ec:	00058863          	beqz	a1,108fc <_malloc_r+0x550>
   108f0:	00800793          	li	a5,8
   108f4:	40b785b3          	sub	a1,a5,a1
   108f8:	00bb0b33          	add	s6,s6,a1
   108fc:	000017b7          	lui	a5,0x1
   10900:	00f585b3          	add	a1,a1,a5
   10904:	008b0433          	add	s0,s6,s0
   10908:	fff78793          	addi	a5,a5,-1 # fff <main-0xf075>
   1090c:	00f47433          	and	s0,s0,a5
   10910:	40858a33          	sub	s4,a1,s0
   10914:	000a0593          	mv	a1,s4
   10918:	00098513          	mv	a0,s3
   1091c:	318000ef          	jal	ra,10c34 <_sbrk_r>
   10920:	fff00793          	li	a5,-1
   10924:	00f51663          	bne	a0,a5,10930 <_malloc_r+0x584>
   10928:	000b0513          	mv	a0,s6
   1092c:	00000a13          	li	s4,0
   10930:	000c2783          	lw	a5,0(s8)
   10934:	41650533          	sub	a0,a0,s6
   10938:	01692423          	sw	s6,8(s2)
   1093c:	014787b3          	add	a5,a5,s4
   10940:	01450a33          	add	s4,a0,s4
   10944:	001a6a13          	ori	s4,s4,1
   10948:	00fc2023          	sw	a5,0(s8)
   1094c:	014b2223          	sw	s4,4(s6)
   10950:	df2b82e3          	beq	s7,s2,10734 <_malloc_r+0x388>
   10954:	00f00713          	li	a4,15
   10958:	05576263          	bltu	a4,s5,1099c <_malloc_r+0x5f0>
   1095c:	00100793          	li	a5,1
   10960:	00fb2223          	sw	a5,4(s6)
   10964:	00892783          	lw	a5,8(s2)
   10968:	0047a783          	lw	a5,4(a5)
   1096c:	ffc7f793          	andi	a5,a5,-4
   10970:	40978733          	sub	a4,a5,s1
   10974:	0097e663          	bltu	a5,s1,10980 <_malloc_r+0x5d4>
   10978:	00f00793          	li	a5,15
   1097c:	04e7ce63          	blt	a5,a4,109d8 <_malloc_r+0x62c>
   10980:	00098513          	mv	a0,s3
   10984:	14c000ef          	jal	ra,10ad0 <__malloc_unlock>
   10988:	a6dff06f          	j	103f4 <_malloc_r+0x48>
   1098c:	40fb07b3          	sub	a5,s6,a5
   10990:	00e787b3          	add	a5,a5,a4
   10994:	00fc2023          	sw	a5,0(s8)
   10998:	f51ff06f          	j	108e8 <_malloc_r+0x53c>
   1099c:	004ba783          	lw	a5,4(s7)
   109a0:	ff4a8413          	addi	s0,s5,-12
   109a4:	ff847413          	andi	s0,s0,-8
   109a8:	0017f793          	andi	a5,a5,1
   109ac:	0087e7b3          	or	a5,a5,s0
   109b0:	00fba223          	sw	a5,4(s7)
   109b4:	00500693          	li	a3,5
   109b8:	008b87b3          	add	a5,s7,s0
   109bc:	00d7a223          	sw	a3,4(a5)
   109c0:	00d7a423          	sw	a3,8(a5)
   109c4:	d68778e3          	bleu	s0,a4,10734 <_malloc_r+0x388>
   109c8:	008b8593          	addi	a1,s7,8
   109cc:	00098513          	mv	a0,s3
   109d0:	4c1020ef          	jal	ra,13690 <_free_r>
   109d4:	d61ff06f          	j	10734 <_malloc_r+0x388>
   109d8:	00892403          	lw	s0,8(s2)
   109dc:	0014e793          	ori	a5,s1,1
   109e0:	00f42223          	sw	a5,4(s0)
   109e4:	009407b3          	add	a5,s0,s1
   109e8:	00f92423          	sw	a5,8(s2)
   109ec:	aa1ff06f          	j	1048c <_malloc_r+0xe0>

000109f0 <memset>:
   109f0:	00f00813          	li	a6,15
   109f4:	00050713          	mv	a4,a0
   109f8:	02c87e63          	bleu	a2,a6,10a34 <memset+0x44>
   109fc:	00f77793          	andi	a5,a4,15
   10a00:	0a079063          	bnez	a5,10aa0 <memset+0xb0>
   10a04:	08059263          	bnez	a1,10a88 <memset+0x98>
   10a08:	ff067693          	andi	a3,a2,-16
   10a0c:	00f67613          	andi	a2,a2,15
   10a10:	00e686b3          	add	a3,a3,a4
   10a14:	00b72023          	sw	a1,0(a4)
   10a18:	00b72223          	sw	a1,4(a4)
   10a1c:	00b72423          	sw	a1,8(a4)
   10a20:	00b72623          	sw	a1,12(a4)
   10a24:	01070713          	addi	a4,a4,16
   10a28:	fed766e3          	bltu	a4,a3,10a14 <memset+0x24>
   10a2c:	00061463          	bnez	a2,10a34 <memset+0x44>
   10a30:	00008067          	ret
   10a34:	40c806b3          	sub	a3,a6,a2
   10a38:	00269693          	slli	a3,a3,0x2
   10a3c:	00000297          	auipc	t0,0x0
   10a40:	005686b3          	add	a3,a3,t0
   10a44:	00c68067          	jr	12(a3)
   10a48:	00b70723          	sb	a1,14(a4)
   10a4c:	00b706a3          	sb	a1,13(a4)
   10a50:	00b70623          	sb	a1,12(a4)
   10a54:	00b705a3          	sb	a1,11(a4)
   10a58:	00b70523          	sb	a1,10(a4)
   10a5c:	00b704a3          	sb	a1,9(a4)
   10a60:	00b70423          	sb	a1,8(a4)
   10a64:	00b703a3          	sb	a1,7(a4)
   10a68:	00b70323          	sb	a1,6(a4)
   10a6c:	00b702a3          	sb	a1,5(a4)
   10a70:	00b70223          	sb	a1,4(a4)
   10a74:	00b701a3          	sb	a1,3(a4)
   10a78:	00b70123          	sb	a1,2(a4)
   10a7c:	00b700a3          	sb	a1,1(a4)
   10a80:	00b70023          	sb	a1,0(a4)
   10a84:	00008067          	ret
   10a88:	0ff5f593          	andi	a1,a1,255
   10a8c:	00859693          	slli	a3,a1,0x8
   10a90:	00d5e5b3          	or	a1,a1,a3
   10a94:	01059693          	slli	a3,a1,0x10
   10a98:	00d5e5b3          	or	a1,a1,a3
   10a9c:	f6dff06f          	j	10a08 <memset+0x18>
   10aa0:	00279693          	slli	a3,a5,0x2
   10aa4:	00000297          	auipc	t0,0x0
   10aa8:	005686b3          	add	a3,a3,t0
   10aac:	00008293          	mv	t0,ra
   10ab0:	fa0680e7          	jalr	-96(a3)
   10ab4:	00028093          	mv	ra,t0
   10ab8:	ff078793          	addi	a5,a5,-16
   10abc:	40f70733          	sub	a4,a4,a5
   10ac0:	00f60633          	add	a2,a2,a5
   10ac4:	f6c878e3          	bleu	a2,a6,10a34 <memset+0x44>
   10ac8:	f3dff06f          	j	10a04 <memset+0x14>

00010acc <__malloc_lock>:
   10acc:	00008067          	ret

00010ad0 <__malloc_unlock>:
   10ad0:	00008067          	ret

00010ad4 <_printf_r>:
   10ad4:	fc010113          	addi	sp,sp,-64
   10ad8:	02c12423          	sw	a2,40(sp)
   10adc:	02d12623          	sw	a3,44(sp)
   10ae0:	02e12823          	sw	a4,48(sp)
   10ae4:	02f12a23          	sw	a5,52(sp)
   10ae8:	03012c23          	sw	a6,56(sp)
   10aec:	03112e23          	sw	a7,60(sp)
   10af0:	00058613          	mv	a2,a1
   10af4:	00852583          	lw	a1,8(a0)
   10af8:	02810693          	addi	a3,sp,40
   10afc:	00112e23          	sw	ra,28(sp)
   10b00:	00d12623          	sw	a3,12(sp)
   10b04:	194000ef          	jal	ra,10c98 <_vfprintf_r>
   10b08:	01c12083          	lw	ra,28(sp)
   10b0c:	04010113          	addi	sp,sp,64
   10b10:	00008067          	ret

00010b14 <printf>:
   10b14:	fc010113          	addi	sp,sp,-64
   10b18:	02f12a23          	sw	a5,52(sp)
   10b1c:	8201a783          	lw	a5,-2016(gp) # 23f80 <_impure_ptr>
   10b20:	02c12423          	sw	a2,40(sp)
   10b24:	02d12623          	sw	a3,44(sp)
   10b28:	02b12223          	sw	a1,36(sp)
   10b2c:	02e12823          	sw	a4,48(sp)
   10b30:	03012c23          	sw	a6,56(sp)
   10b34:	03112e23          	sw	a7,60(sp)
   10b38:	0087a583          	lw	a1,8(a5)
   10b3c:	02410693          	addi	a3,sp,36
   10b40:	00050613          	mv	a2,a0
   10b44:	00078513          	mv	a0,a5
   10b48:	00112e23          	sw	ra,28(sp)
   10b4c:	00d12623          	sw	a3,12(sp)
   10b50:	148000ef          	jal	ra,10c98 <_vfprintf_r>
   10b54:	01c12083          	lw	ra,28(sp)
   10b58:	04010113          	addi	sp,sp,64
   10b5c:	00008067          	ret

00010b60 <_puts_r>:
   10b60:	fc010113          	addi	sp,sp,-64
   10b64:	02812c23          	sw	s0,56(sp)
   10b68:	00050413          	mv	s0,a0
   10b6c:	00058513          	mv	a0,a1
   10b70:	00b12623          	sw	a1,12(sp)
   10b74:	02112e23          	sw	ra,60(sp)
   10b78:	104000ef          	jal	ra,10c7c <strlen>
   10b7c:	000217b7          	lui	a5,0x21
   10b80:	73878793          	addi	a5,a5,1848 # 21738 <__clzsi2+0xb4>
   10b84:	02f12423          	sw	a5,40(sp)
   10b88:	00100793          	li	a5,1
   10b8c:	02f12623          	sw	a5,44(sp)
   10b90:	02010793          	addi	a5,sp,32
   10b94:	00c12583          	lw	a1,12(sp)
   10b98:	00f12a23          	sw	a5,20(sp)
   10b9c:	00200793          	li	a5,2
   10ba0:	00f12c23          	sw	a5,24(sp)
   10ba4:	03842783          	lw	a5,56(s0)
   10ba8:	02a12223          	sw	a0,36(sp)
   10bac:	00150513          	addi	a0,a0,1
   10bb0:	02b12023          	sw	a1,32(sp)
   10bb4:	00a12e23          	sw	a0,28(sp)
   10bb8:	00842583          	lw	a1,8(s0)
   10bbc:	00079a63          	bnez	a5,10bd0 <_puts_r+0x70>
   10bc0:	00040513          	mv	a0,s0
   10bc4:	00b12623          	sw	a1,12(sp)
   10bc8:	01d020ef          	jal	ra,133e4 <__sinit>
   10bcc:	00c12583          	lw	a1,12(sp)
   10bd0:	00c59783          	lh	a5,12(a1)
   10bd4:	01279713          	slli	a4,a5,0x12
   10bd8:	02074263          	bltz	a4,10bfc <_puts_r+0x9c>
   10bdc:	000026b7          	lui	a3,0x2
   10be0:	0645a703          	lw	a4,100(a1)
   10be4:	00d7e7b3          	or	a5,a5,a3
   10be8:	00f59623          	sh	a5,12(a1)
   10bec:	ffffe7b7          	lui	a5,0xffffe
   10bf0:	fff78793          	addi	a5,a5,-1 # ffffdfff <__global_pointer$+0xfffd989f>
   10bf4:	00f777b3          	and	a5,a4,a5
   10bf8:	06f5a223          	sw	a5,100(a1)
   10bfc:	01410613          	addi	a2,sp,20
   10c00:	00040513          	mv	a0,s0
   10c04:	4e9020ef          	jal	ra,138ec <__sfvwrite_r>
   10c08:	fff00793          	li	a5,-1
   10c0c:	00051463          	bnez	a0,10c14 <_puts_r+0xb4>
   10c10:	00a00793          	li	a5,10
   10c14:	03c12083          	lw	ra,60(sp)
   10c18:	03812403          	lw	s0,56(sp)
   10c1c:	00078513          	mv	a0,a5
   10c20:	04010113          	addi	sp,sp,64
   10c24:	00008067          	ret

00010c28 <puts>:
   10c28:	00050593          	mv	a1,a0
   10c2c:	8201a503          	lw	a0,-2016(gp) # 23f80 <_impure_ptr>
   10c30:	f31ff06f          	j	10b60 <_puts_r>

00010c34 <_sbrk_r>:
   10c34:	ff010113          	addi	sp,sp,-16
   10c38:	00812423          	sw	s0,8(sp)
   10c3c:	00912223          	sw	s1,4(sp)
   10c40:	00050493          	mv	s1,a0
   10c44:	00058513          	mv	a0,a1
   10c48:	00112623          	sw	ra,12(sp)
   10c4c:	8801a623          	sw	zero,-1908(gp) # 23fec <errno>
   10c50:	1850b0ef          	jal	ra,1c5d4 <sbrk>
   10c54:	fff00793          	li	a5,-1
   10c58:	00f51863          	bne	a0,a5,10c68 <_sbrk_r+0x34>
   10c5c:	88c1a783          	lw	a5,-1908(gp) # 23fec <errno>
   10c60:	00078463          	beqz	a5,10c68 <_sbrk_r+0x34>
   10c64:	00f4a023          	sw	a5,0(s1)
   10c68:	00c12083          	lw	ra,12(sp)
   10c6c:	00812403          	lw	s0,8(sp)
   10c70:	00412483          	lw	s1,4(sp)
   10c74:	01010113          	addi	sp,sp,16
   10c78:	00008067          	ret

00010c7c <strlen>:
   10c7c:	00050793          	mv	a5,a0
   10c80:	00178793          	addi	a5,a5,1
   10c84:	fff7c703          	lbu	a4,-1(a5)
   10c88:	fe071ce3          	bnez	a4,10c80 <strlen+0x4>
   10c8c:	40a78533          	sub	a0,a5,a0
   10c90:	fff50513          	addi	a0,a0,-1
   10c94:	00008067          	ret

00010c98 <_vfprintf_r>:
   10c98:	e1010113          	addi	sp,sp,-496
   10c9c:	1e112623          	sw	ra,492(sp)
   10ca0:	1e912223          	sw	s1,484(sp)
   10ca4:	1f212023          	sw	s2,480(sp)
   10ca8:	1d312e23          	sw	s3,476(sp)
   10cac:	1d812423          	sw	s8,456(sp)
   10cb0:	00058913          	mv	s2,a1
   10cb4:	00060493          	mv	s1,a2
   10cb8:	00068c13          	mv	s8,a3
   10cbc:	1e812423          	sw	s0,488(sp)
   10cc0:	1d412c23          	sw	s4,472(sp)
   10cc4:	1d512a23          	sw	s5,468(sp)
   10cc8:	1d612823          	sw	s6,464(sp)
   10ccc:	1d712623          	sw	s7,460(sp)
   10cd0:	1d912223          	sw	s9,452(sp)
   10cd4:	1da12023          	sw	s10,448(sp)
   10cd8:	1bb12e23          	sw	s11,444(sp)
   10cdc:	00050993          	mv	s3,a0
   10ce0:	244050ef          	jal	ra,15f24 <_localeconv_r>
   10ce4:	00052783          	lw	a5,0(a0)
   10ce8:	00078513          	mv	a0,a5
   10cec:	02f12c23          	sw	a5,56(sp)
   10cf0:	f8dff0ef          	jal	ra,10c7c <strlen>
   10cf4:	02a12223          	sw	a0,36(sp)
   10cf8:	0e012823          	sw	zero,240(sp)
   10cfc:	0e012a23          	sw	zero,244(sp)
   10d00:	0e012c23          	sw	zero,248(sp)
   10d04:	0e012e23          	sw	zero,252(sp)
   10d08:	00098a63          	beqz	s3,10d1c <_vfprintf_r+0x84>
   10d0c:	0389a783          	lw	a5,56(s3)
   10d10:	00079663          	bnez	a5,10d1c <_vfprintf_r+0x84>
   10d14:	00098513          	mv	a0,s3
   10d18:	6cc020ef          	jal	ra,133e4 <__sinit>
   10d1c:	00c91783          	lh	a5,12(s2)
   10d20:	01279713          	slli	a4,a5,0x12
   10d24:	02074263          	bltz	a4,10d48 <_vfprintf_r+0xb0>
   10d28:	000026b7          	lui	a3,0x2
   10d2c:	06492703          	lw	a4,100(s2)
   10d30:	00d7e7b3          	or	a5,a5,a3
   10d34:	00f91623          	sh	a5,12(s2)
   10d38:	ffffe7b7          	lui	a5,0xffffe
   10d3c:	fff78793          	addi	a5,a5,-1 # ffffdfff <__global_pointer$+0xfffd989f>
   10d40:	00f777b3          	and	a5,a4,a5
   10d44:	06f92223          	sw	a5,100(s2)
   10d48:	00c95783          	lhu	a5,12(s2)
   10d4c:	0087f793          	andi	a5,a5,8
   10d50:	06078e63          	beqz	a5,10dcc <_vfprintf_r+0x134>
   10d54:	01092783          	lw	a5,16(s2)
   10d58:	06078a63          	beqz	a5,10dcc <_vfprintf_r+0x134>
   10d5c:	00c95783          	lhu	a5,12(s2)
   10d60:	00a00713          	li	a4,10
   10d64:	01a7f793          	andi	a5,a5,26
   10d68:	08e79063          	bne	a5,a4,10de8 <_vfprintf_r+0x150>
   10d6c:	00e91783          	lh	a5,14(s2)
   10d70:	0607cc63          	bltz	a5,10de8 <_vfprintf_r+0x150>
   10d74:	000c0693          	mv	a3,s8
   10d78:	00048613          	mv	a2,s1
   10d7c:	00090593          	mv	a1,s2
   10d80:	00098513          	mv	a0,s3
   10d84:	745010ef          	jal	ra,12cc8 <__sbprintf>
   10d88:	02a12423          	sw	a0,40(sp)
   10d8c:	1ec12083          	lw	ra,492(sp)
   10d90:	1e812403          	lw	s0,488(sp)
   10d94:	02812503          	lw	a0,40(sp)
   10d98:	1e412483          	lw	s1,484(sp)
   10d9c:	1e012903          	lw	s2,480(sp)
   10da0:	1dc12983          	lw	s3,476(sp)
   10da4:	1d812a03          	lw	s4,472(sp)
   10da8:	1d412a83          	lw	s5,468(sp)
   10dac:	1d012b03          	lw	s6,464(sp)
   10db0:	1cc12b83          	lw	s7,460(sp)
   10db4:	1c812c03          	lw	s8,456(sp)
   10db8:	1c412c83          	lw	s9,452(sp)
   10dbc:	1c012d03          	lw	s10,448(sp)
   10dc0:	1bc12d83          	lw	s11,444(sp)
   10dc4:	1f010113          	addi	sp,sp,496
   10dc8:	00008067          	ret
   10dcc:	00090593          	mv	a1,s2
   10dd0:	00098513          	mv	a0,s3
   10dd4:	7b1010ef          	jal	ra,12d84 <__swsetup_r>
   10dd8:	f80502e3          	beqz	a0,10d5c <_vfprintf_r+0xc4>
   10ddc:	fff00793          	li	a5,-1
   10de0:	02f12423          	sw	a5,40(sp)
   10de4:	fa9ff06f          	j	10d8c <_vfprintf_r+0xf4>
   10de8:	000217b7          	lui	a5,0x21
   10dec:	73c78793          	addi	a5,a5,1852 # 2173c <__clzsi2+0xb8>
   10df0:	06f12023          	sw	a5,96(sp)
   10df4:	000227b7          	lui	a5,0x22
   10df8:	10c10893          	addi	a7,sp,268
   10dfc:	8b878793          	addi	a5,a5,-1864 # 218b8 <zeroes.4377>
   10e00:	0f112223          	sw	a7,228(sp)
   10e04:	0e012623          	sw	zero,236(sp)
   10e08:	0e012423          	sw	zero,232(sp)
   10e0c:	00000a13          	li	s4,0
   10e10:	00088d13          	mv	s10,a7
   10e14:	04012223          	sw	zero,68(sp)
   10e18:	04012023          	sw	zero,64(sp)
   10e1c:	00012a23          	sw	zero,20(sp)
   10e20:	02012a23          	sw	zero,52(sp)
   10e24:	02012e23          	sw	zero,60(sp)
   10e28:	02012423          	sw	zero,40(sp)
   10e2c:	00f12c23          	sw	a5,24(sp)
   10e30:	00048413          	mv	s0,s1
   10e34:	02500713          	li	a4,37
   10e38:	00044783          	lbu	a5,0(s0)
   10e3c:	00078463          	beqz	a5,10e44 <_vfprintf_r+0x1ac>
   10e40:	0ce79263          	bne	a5,a4,10f04 <_vfprintf_r+0x26c>
   10e44:	40940ab3          	sub	s5,s0,s1
   10e48:	040a8a63          	beqz	s5,10e9c <_vfprintf_r+0x204>
   10e4c:	0ec12783          	lw	a5,236(sp)
   10e50:	009d2023          	sw	s1,0(s10)
   10e54:	015d2223          	sw	s5,4(s10)
   10e58:	015787b3          	add	a5,a5,s5
   10e5c:	0ef12623          	sw	a5,236(sp)
   10e60:	0e812783          	lw	a5,232(sp)
   10e64:	00700713          	li	a4,7
   10e68:	008d0d13          	addi	s10,s10,8
   10e6c:	00178793          	addi	a5,a5,1
   10e70:	0ef12423          	sw	a5,232(sp)
   10e74:	00f75e63          	ble	a5,a4,10e90 <_vfprintf_r+0x1f8>
   10e78:	0e410613          	addi	a2,sp,228
   10e7c:	00090593          	mv	a1,s2
   10e80:	00098513          	mv	a0,s3
   10e84:	759080ef          	jal	ra,19ddc <__sprint_r>
   10e88:	78051063          	bnez	a0,11608 <_vfprintf_r+0x970>
   10e8c:	10c10d13          	addi	s10,sp,268
   10e90:	02812783          	lw	a5,40(sp)
   10e94:	015787b3          	add	a5,a5,s5
   10e98:	02f12423          	sw	a5,40(sp)
   10e9c:	00044783          	lbu	a5,0(s0)
   10ea0:	00079463          	bnez	a5,10ea8 <_vfprintf_r+0x210>
   10ea4:	5f10106f          	j	12c94 <_vfprintf_r+0x1ffc>
   10ea8:	00140793          	addi	a5,s0,1
   10eac:	02f12023          	sw	a5,32(sp)
   10eb0:	0c0103a3          	sb	zero,199(sp)
   10eb4:	fff00b13          	li	s6,-1
   10eb8:	02012623          	sw	zero,44(sp)
   10ebc:	00000413          	li	s0,0
   10ec0:	00900a93          	li	s5,9
   10ec4:	05a00b93          	li	s7,90
   10ec8:	02012783          	lw	a5,32(sp)
   10ecc:	0007c783          	lbu	a5,0(a5)
   10ed0:	00f12623          	sw	a5,12(sp)
   10ed4:	02012783          	lw	a5,32(sp)
   10ed8:	00178793          	addi	a5,a5,1
   10edc:	02f12023          	sw	a5,32(sp)
   10ee0:	00c12783          	lw	a5,12(sp)
   10ee4:	fe078793          	addi	a5,a5,-32
   10ee8:	00fbf463          	bleu	a5,s7,10ef0 <_vfprintf_r+0x258>
   10eec:	2ac0106f          	j	12198 <_vfprintf_r+0x1500>
   10ef0:	06012703          	lw	a4,96(sp)
   10ef4:	00279793          	slli	a5,a5,0x2
   10ef8:	00e787b3          	add	a5,a5,a4
   10efc:	0007a783          	lw	a5,0(a5)
   10f00:	00078067          	jr	a5
   10f04:	00140413          	addi	s0,s0,1
   10f08:	f31ff06f          	j	10e38 <_vfprintf_r+0x1a0>
   10f0c:	000227b7          	lui	a5,0x22
   10f10:	92478793          	addi	a5,a5,-1756 # 21924 <zeroes.4377+0x6c>
   10f14:	04f12223          	sw	a5,68(sp)
   10f18:	02047793          	andi	a5,s0,32
   10f1c:	00079463          	bnez	a5,10f24 <_vfprintf_r+0x28c>
   10f20:	0ac0106f          	j	11fcc <_vfprintf_r+0x1334>
   10f24:	007c0c13          	addi	s8,s8,7
   10f28:	ff8c7c13          	andi	s8,s8,-8
   10f2c:	008c0793          	addi	a5,s8,8
   10f30:	000c2c83          	lw	s9,0(s8)
   10f34:	004c2c03          	lw	s8,4(s8)
   10f38:	00f12e23          	sw	a5,28(sp)
   10f3c:	00147793          	andi	a5,s0,1
   10f40:	02078063          	beqz	a5,10f60 <_vfprintf_r+0x2c8>
   10f44:	018ce7b3          	or	a5,s9,s8
   10f48:	00078c63          	beqz	a5,10f60 <_vfprintf_r+0x2c8>
   10f4c:	03000793          	li	a5,48
   10f50:	0cf10423          	sb	a5,200(sp)
   10f54:	00c14783          	lbu	a5,12(sp)
   10f58:	00246413          	ori	s0,s0,2
   10f5c:	0cf104a3          	sb	a5,201(sp)
   10f60:	bff47413          	andi	s0,s0,-1025
   10f64:	00200793          	li	a5,2
   10f68:	7010006f          	j	11e68 <_vfprintf_r+0x11d0>
   10f6c:	00098513          	mv	a0,s3
   10f70:	7b5040ef          	jal	ra,15f24 <_localeconv_r>
   10f74:	00452783          	lw	a5,4(a0)
   10f78:	00078513          	mv	a0,a5
   10f7c:	02f12e23          	sw	a5,60(sp)
   10f80:	cfdff0ef          	jal	ra,10c7c <strlen>
   10f84:	02a12a23          	sw	a0,52(sp)
   10f88:	00098513          	mv	a0,s3
   10f8c:	799040ef          	jal	ra,15f24 <_localeconv_r>
   10f90:	00852783          	lw	a5,8(a0)
   10f94:	00f12a23          	sw	a5,20(sp)
   10f98:	03412783          	lw	a5,52(sp)
   10f9c:	f20784e3          	beqz	a5,10ec4 <_vfprintf_r+0x22c>
   10fa0:	01412783          	lw	a5,20(sp)
   10fa4:	f20780e3          	beqz	a5,10ec4 <_vfprintf_r+0x22c>
   10fa8:	0007c783          	lbu	a5,0(a5)
   10fac:	f0078ce3          	beqz	a5,10ec4 <_vfprintf_r+0x22c>
   10fb0:	40046413          	ori	s0,s0,1024
   10fb4:	f11ff06f          	j	10ec4 <_vfprintf_r+0x22c>
   10fb8:	0c714783          	lbu	a5,199(sp)
   10fbc:	f00794e3          	bnez	a5,10ec4 <_vfprintf_r+0x22c>
   10fc0:	02000793          	li	a5,32
   10fc4:	0cf103a3          	sb	a5,199(sp)
   10fc8:	efdff06f          	j	10ec4 <_vfprintf_r+0x22c>
   10fcc:	00146413          	ori	s0,s0,1
   10fd0:	ef5ff06f          	j	10ec4 <_vfprintf_r+0x22c>
   10fd4:	000c2783          	lw	a5,0(s8)
   10fd8:	004c0c13          	addi	s8,s8,4
   10fdc:	02f12623          	sw	a5,44(sp)
   10fe0:	ee07d2e3          	bgez	a5,10ec4 <_vfprintf_r+0x22c>
   10fe4:	40f007b3          	neg	a5,a5
   10fe8:	02f12623          	sw	a5,44(sp)
   10fec:	00446413          	ori	s0,s0,4
   10ff0:	ed5ff06f          	j	10ec4 <_vfprintf_r+0x22c>
   10ff4:	02b00793          	li	a5,43
   10ff8:	fcdff06f          	j	10fc4 <_vfprintf_r+0x32c>
   10ffc:	02012783          	lw	a5,32(sp)
   11000:	02a00713          	li	a4,42
   11004:	00178c93          	addi	s9,a5,1
   11008:	0007c783          	lbu	a5,0(a5)
   1100c:	00f12623          	sw	a5,12(sp)
   11010:	04e79863          	bne	a5,a4,11060 <_vfprintf_r+0x3c8>
   11014:	000c2b03          	lw	s6,0(s8)
   11018:	004c0793          	addi	a5,s8,4
   1101c:	000b5463          	bgez	s6,11024 <_vfprintf_r+0x38c>
   11020:	fff00b13          	li	s6,-1
   11024:	00078c13          	mv	s8,a5
   11028:	03912023          	sw	s9,32(sp)
   1102c:	e99ff06f          	j	10ec4 <_vfprintf_r+0x22c>
   11030:	000b0513          	mv	a0,s6
   11034:	00a00593          	li	a1,10
   11038:	574100ef          	jal	ra,215ac <__mulsi3>
   1103c:	001c8c93          	addi	s9,s9,1
   11040:	fffcc783          	lbu	a5,-1(s9)
   11044:	01b50b33          	add	s6,a0,s11
   11048:	00f12623          	sw	a5,12(sp)
   1104c:	00c12783          	lw	a5,12(sp)
   11050:	fd078d93          	addi	s11,a5,-48
   11054:	fdbafee3          	bleu	s11,s5,11030 <_vfprintf_r+0x398>
   11058:	03912023          	sw	s9,32(sp)
   1105c:	e85ff06f          	j	10ee0 <_vfprintf_r+0x248>
   11060:	00000b13          	li	s6,0
   11064:	fe9ff06f          	j	1104c <_vfprintf_r+0x3b4>
   11068:	08046413          	ori	s0,s0,128
   1106c:	e59ff06f          	j	10ec4 <_vfprintf_r+0x22c>
   11070:	02012c83          	lw	s9,32(sp)
   11074:	02012623          	sw	zero,44(sp)
   11078:	02c12503          	lw	a0,44(sp)
   1107c:	00a00593          	li	a1,10
   11080:	001c8c93          	addi	s9,s9,1
   11084:	528100ef          	jal	ra,215ac <__mulsi3>
   11088:	00c12783          	lw	a5,12(sp)
   1108c:	fd078793          	addi	a5,a5,-48
   11090:	00a787b3          	add	a5,a5,a0
   11094:	02f12623          	sw	a5,44(sp)
   11098:	fffcc783          	lbu	a5,-1(s9)
   1109c:	00f12623          	sw	a5,12(sp)
   110a0:	fd078793          	addi	a5,a5,-48
   110a4:	fcfafae3          	bleu	a5,s5,11078 <_vfprintf_r+0x3e0>
   110a8:	fb1ff06f          	j	11058 <_vfprintf_r+0x3c0>
   110ac:	00846413          	ori	s0,s0,8
   110b0:	e15ff06f          	j	10ec4 <_vfprintf_r+0x22c>
   110b4:	02012783          	lw	a5,32(sp)
   110b8:	0007c703          	lbu	a4,0(a5)
   110bc:	06800793          	li	a5,104
   110c0:	00f71c63          	bne	a4,a5,110d8 <_vfprintf_r+0x440>
   110c4:	02012783          	lw	a5,32(sp)
   110c8:	20046413          	ori	s0,s0,512
   110cc:	00178793          	addi	a5,a5,1
   110d0:	02f12023          	sw	a5,32(sp)
   110d4:	df1ff06f          	j	10ec4 <_vfprintf_r+0x22c>
   110d8:	04046413          	ori	s0,s0,64
   110dc:	de9ff06f          	j	10ec4 <_vfprintf_r+0x22c>
   110e0:	02012783          	lw	a5,32(sp)
   110e4:	0007c703          	lbu	a4,0(a5)
   110e8:	06c00793          	li	a5,108
   110ec:	00f71c63          	bne	a4,a5,11104 <_vfprintf_r+0x46c>
   110f0:	02012783          	lw	a5,32(sp)
   110f4:	00178793          	addi	a5,a5,1
   110f8:	02f12023          	sw	a5,32(sp)
   110fc:	02046413          	ori	s0,s0,32
   11100:	dc5ff06f          	j	10ec4 <_vfprintf_r+0x22c>
   11104:	01046413          	ori	s0,s0,16
   11108:	dbdff06f          	j	10ec4 <_vfprintf_r+0x22c>
   1110c:	004c0793          	addi	a5,s8,4
   11110:	00f12e23          	sw	a5,28(sp)
   11114:	000c2783          	lw	a5,0(s8)
   11118:	0c0103a3          	sb	zero,199(sp)
   1111c:	14f10623          	sb	a5,332(sp)
   11120:	00012823          	sw	zero,16(sp)
   11124:	00100b13          	li	s6,1
   11128:	00000a93          	li	s5,0
   1112c:	00000c13          	li	s8,0
   11130:	00000b93          	li	s7,0
   11134:	00000c93          	li	s9,0
   11138:	14c10493          	addi	s1,sp,332
   1113c:	03512823          	sw	s5,48(sp)
   11140:	016ad463          	ble	s6,s5,11148 <_vfprintf_r+0x4b0>
   11144:	03612823          	sw	s6,48(sp)
   11148:	0c714703          	lbu	a4,199(sp)
   1114c:	00070863          	beqz	a4,1115c <_vfprintf_r+0x4c4>
   11150:	03012783          	lw	a5,48(sp)
   11154:	00178793          	addi	a5,a5,1
   11158:	02f12823          	sw	a5,48(sp)
   1115c:	00247d93          	andi	s11,s0,2
   11160:	000d8863          	beqz	s11,11170 <_vfprintf_r+0x4d8>
   11164:	03012783          	lw	a5,48(sp)
   11168:	00278793          	addi	a5,a5,2
   1116c:	02f12823          	sw	a5,48(sp)
   11170:	08447793          	andi	a5,s0,132
   11174:	04f12423          	sw	a5,72(sp)
   11178:	06079c63          	bnez	a5,111f0 <_vfprintf_r+0x558>
   1117c:	02c12783          	lw	a5,44(sp)
   11180:	03012703          	lw	a4,48(sp)
   11184:	40e78733          	sub	a4,a5,a4
   11188:	06e05463          	blez	a4,111f0 <_vfprintf_r+0x558>
   1118c:	00022e37          	lui	t3,0x22
   11190:	01000e93          	li	t4,16
   11194:	8a8e0e13          	addi	t3,t3,-1880 # 218a8 <blanks.4376>
   11198:	00700f13          	li	t5,7
   1119c:	0e812683          	lw	a3,232(sp)
   111a0:	01cd2023          	sw	t3,0(s10)
   111a4:	0ec12603          	lw	a2,236(sp)
   111a8:	00168693          	addi	a3,a3,1 # 2001 <main-0xe073>
   111ac:	008d0593          	addi	a1,s10,8
   111b0:	00eed463          	ble	a4,t4,111b8 <_vfprintf_r+0x520>
   111b4:	0000106f          	j	121b4 <_vfprintf_r+0x151c>
   111b8:	00ed2223          	sw	a4,4(s10)
   111bc:	00c70733          	add	a4,a4,a2
   111c0:	0ee12623          	sw	a4,236(sp)
   111c4:	0ed12423          	sw	a3,232(sp)
   111c8:	00700713          	li	a4,7
   111cc:	00058d13          	mv	s10,a1
   111d0:	02d75063          	ble	a3,a4,111f0 <_vfprintf_r+0x558>
   111d4:	0e410613          	addi	a2,sp,228
   111d8:	00090593          	mv	a1,s2
   111dc:	00098513          	mv	a0,s3
   111e0:	3fd080ef          	jal	ra,19ddc <__sprint_r>
   111e4:	00050463          	beqz	a0,111ec <_vfprintf_r+0x554>
   111e8:	2490106f          	j	12c30 <_vfprintf_r+0x1f98>
   111ec:	10c10d13          	addi	s10,sp,268
   111f0:	0c714703          	lbu	a4,199(sp)
   111f4:	04070a63          	beqz	a4,11248 <_vfprintf_r+0x5b0>
   111f8:	0c710713          	addi	a4,sp,199
   111fc:	00ed2023          	sw	a4,0(s10)
   11200:	00100713          	li	a4,1
   11204:	00ed2223          	sw	a4,4(s10)
   11208:	0ec12703          	lw	a4,236(sp)
   1120c:	00700693          	li	a3,7
   11210:	008d0d13          	addi	s10,s10,8
   11214:	00170713          	addi	a4,a4,1
   11218:	0ee12623          	sw	a4,236(sp)
   1121c:	0e812703          	lw	a4,232(sp)
   11220:	00170713          	addi	a4,a4,1
   11224:	0ee12423          	sw	a4,232(sp)
   11228:	02e6d063          	ble	a4,a3,11248 <_vfprintf_r+0x5b0>
   1122c:	0e410613          	addi	a2,sp,228
   11230:	00090593          	mv	a1,s2
   11234:	00098513          	mv	a0,s3
   11238:	3a5080ef          	jal	ra,19ddc <__sprint_r>
   1123c:	00050463          	beqz	a0,11244 <_vfprintf_r+0x5ac>
   11240:	1f10106f          	j	12c30 <_vfprintf_r+0x1f98>
   11244:	10c10d13          	addi	s10,sp,268
   11248:	040d8a63          	beqz	s11,1129c <_vfprintf_r+0x604>
   1124c:	0c810713          	addi	a4,sp,200
   11250:	00ed2023          	sw	a4,0(s10)
   11254:	00200713          	li	a4,2
   11258:	00ed2223          	sw	a4,4(s10)
   1125c:	0ec12703          	lw	a4,236(sp)
   11260:	00700693          	li	a3,7
   11264:	008d0d13          	addi	s10,s10,8
   11268:	00270713          	addi	a4,a4,2
   1126c:	0ee12623          	sw	a4,236(sp)
   11270:	0e812703          	lw	a4,232(sp)
   11274:	00170713          	addi	a4,a4,1
   11278:	0ee12423          	sw	a4,232(sp)
   1127c:	02e6d063          	ble	a4,a3,1129c <_vfprintf_r+0x604>
   11280:	0e410613          	addi	a2,sp,228
   11284:	00090593          	mv	a1,s2
   11288:	00098513          	mv	a0,s3
   1128c:	351080ef          	jal	ra,19ddc <__sprint_r>
   11290:	00050463          	beqz	a0,11298 <_vfprintf_r+0x600>
   11294:	19d0106f          	j	12c30 <_vfprintf_r+0x1f98>
   11298:	10c10d13          	addi	s10,sp,268
   1129c:	04812783          	lw	a5,72(sp)
   112a0:	08000713          	li	a4,128
   112a4:	06e79863          	bne	a5,a4,11314 <_vfprintf_r+0x67c>
   112a8:	02c12783          	lw	a5,44(sp)
   112ac:	03012703          	lw	a4,48(sp)
   112b0:	40e78db3          	sub	s11,a5,a4
   112b4:	07b05063          	blez	s11,11314 <_vfprintf_r+0x67c>
   112b8:	01000793          	li	a5,16
   112bc:	00700e13          	li	t3,7
   112c0:	0e812703          	lw	a4,232(sp)
   112c4:	0ec12683          	lw	a3,236(sp)
   112c8:	008d0613          	addi	a2,s10,8
   112cc:	00170713          	addi	a4,a4,1
   112d0:	73b7cee3          	blt	a5,s11,1220c <_vfprintf_r+0x1574>
   112d4:	01812783          	lw	a5,24(sp)
   112d8:	01bd2223          	sw	s11,4(s10)
   112dc:	00dd8db3          	add	s11,s11,a3
   112e0:	00fd2023          	sw	a5,0(s10)
   112e4:	0fb12623          	sw	s11,236(sp)
   112e8:	0ee12423          	sw	a4,232(sp)
   112ec:	00700693          	li	a3,7
   112f0:	00060d13          	mv	s10,a2
   112f4:	02e6d063          	ble	a4,a3,11314 <_vfprintf_r+0x67c>
   112f8:	0e410613          	addi	a2,sp,228
   112fc:	00090593          	mv	a1,s2
   11300:	00098513          	mv	a0,s3
   11304:	2d9080ef          	jal	ra,19ddc <__sprint_r>
   11308:	00050463          	beqz	a0,11310 <_vfprintf_r+0x678>
   1130c:	1250106f          	j	12c30 <_vfprintf_r+0x1f98>
   11310:	10c10d13          	addi	s10,sp,268
   11314:	416a8ab3          	sub	s5,s5,s6
   11318:	07505063          	blez	s5,11378 <_vfprintf_r+0x6e0>
   1131c:	01000d93          	li	s11,16
   11320:	00700813          	li	a6,7
   11324:	01812783          	lw	a5,24(sp)
   11328:	0e812703          	lw	a4,232(sp)
   1132c:	0ec12683          	lw	a3,236(sp)
   11330:	00fd2023          	sw	a5,0(s10)
   11334:	00170713          	addi	a4,a4,1
   11338:	008d0613          	addi	a2,s10,8
   1133c:	735dc0e3          	blt	s11,s5,1225c <_vfprintf_r+0x15c4>
   11340:	015d2223          	sw	s5,4(s10)
   11344:	00da8ab3          	add	s5,s5,a3
   11348:	0f512623          	sw	s5,236(sp)
   1134c:	0ee12423          	sw	a4,232(sp)
   11350:	00700693          	li	a3,7
   11354:	00060d13          	mv	s10,a2
   11358:	02e6d063          	ble	a4,a3,11378 <_vfprintf_r+0x6e0>
   1135c:	0e410613          	addi	a2,sp,228
   11360:	00090593          	mv	a1,s2
   11364:	00098513          	mv	a0,s3
   11368:	275080ef          	jal	ra,19ddc <__sprint_r>
   1136c:	00050463          	beqz	a0,11374 <_vfprintf_r+0x6dc>
   11370:	0c10106f          	j	12c30 <_vfprintf_r+0x1f98>
   11374:	10c10d13          	addi	s10,sp,268
   11378:	10047713          	andi	a4,s0,256
   1137c:	0ec12d83          	lw	s11,236(sp)
   11380:	70071ee3          	bnez	a4,1229c <_vfprintf_r+0x1604>
   11384:	0e812783          	lw	a5,232(sp)
   11388:	01bb0333          	add	t1,s6,s11
   1138c:	009d2023          	sw	s1,0(s10)
   11390:	00178793          	addi	a5,a5,1
   11394:	016d2223          	sw	s6,4(s10)
   11398:	0e612623          	sw	t1,236(sp)
   1139c:	0ef12423          	sw	a5,232(sp)
   113a0:	00700713          	li	a4,7
   113a4:	008d0d13          	addi	s10,s10,8
   113a8:	00f74463          	blt	a4,a5,113b0 <_vfprintf_r+0x718>
   113ac:	1b80106f          	j	12564 <_vfprintf_r+0x18cc>
   113b0:	0e410613          	addi	a2,sp,228
   113b4:	00090593          	mv	a1,s2
   113b8:	00098513          	mv	a0,s3
   113bc:	221080ef          	jal	ra,19ddc <__sprint_r>
   113c0:	00050463          	beqz	a0,113c8 <_vfprintf_r+0x730>
   113c4:	06d0106f          	j	12c30 <_vfprintf_r+0x1f98>
   113c8:	10c10d13          	addi	s10,sp,268
   113cc:	1980106f          	j	12564 <_vfprintf_r+0x18cc>
   113d0:	01046413          	ori	s0,s0,16
   113d4:	02047793          	andi	a5,s0,32
   113d8:	04078e63          	beqz	a5,11434 <_vfprintf_r+0x79c>
   113dc:	007c0c13          	addi	s8,s8,7
   113e0:	ff8c7c13          	andi	s8,s8,-8
   113e4:	008c0793          	addi	a5,s8,8
   113e8:	000c2c83          	lw	s9,0(s8)
   113ec:	004c2c03          	lw	s8,4(s8)
   113f0:	00f12e23          	sw	a5,28(sp)
   113f4:	000c5e63          	bgez	s8,11410 <_vfprintf_r+0x778>
   113f8:	41900cb3          	neg	s9,s9
   113fc:	019037b3          	snez	a5,s9
   11400:	41800c33          	neg	s8,s8
   11404:	40fc0c33          	sub	s8,s8,a5
   11408:	02d00793          	li	a5,45
   1140c:	0cf103a3          	sb	a5,199(sp)
   11410:	fff00793          	li	a5,-1
   11414:	3efb1ae3          	bne	s6,a5,12008 <_vfprintf_r+0x1370>
   11418:	460c1ce3          	bnez	s8,12090 <_vfprintf_r+0x13f8>
   1141c:	00900793          	li	a5,9
   11420:	4797e8e3          	bltu	a5,s9,12090 <_vfprintf_r+0x13f8>
   11424:	030c8c93          	addi	s9,s9,48
   11428:	1b9107a3          	sb	s9,431(sp)
   1142c:	1af10493          	addi	s1,sp,431
   11430:	4390006f          	j	12068 <_vfprintf_r+0x13d0>
   11434:	004c0793          	addi	a5,s8,4
   11438:	00f12e23          	sw	a5,28(sp)
   1143c:	01047793          	andi	a5,s0,16
   11440:	00078863          	beqz	a5,11450 <_vfprintf_r+0x7b8>
   11444:	000c2c83          	lw	s9,0(s8)
   11448:	41fcdc13          	srai	s8,s9,0x1f
   1144c:	fa9ff06f          	j	113f4 <_vfprintf_r+0x75c>
   11450:	04047793          	andi	a5,s0,64
   11454:	000c2c83          	lw	s9,0(s8)
   11458:	00078863          	beqz	a5,11468 <_vfprintf_r+0x7d0>
   1145c:	010c9c93          	slli	s9,s9,0x10
   11460:	410cdc93          	srai	s9,s9,0x10
   11464:	fe5ff06f          	j	11448 <_vfprintf_r+0x7b0>
   11468:	20047793          	andi	a5,s0,512
   1146c:	fc078ee3          	beqz	a5,11448 <_vfprintf_r+0x7b0>
   11470:	018c9c93          	slli	s9,s9,0x18
   11474:	418cdc93          	srai	s9,s9,0x18
   11478:	fd1ff06f          	j	11448 <_vfprintf_r+0x7b0>
   1147c:	00847793          	andi	a5,s0,8
   11480:	0a078a63          	beqz	a5,11534 <_vfprintf_r+0x89c>
   11484:	004c0793          	addi	a5,s8,4
   11488:	00f12e23          	sw	a5,28(sp)
   1148c:	000c2783          	lw	a5,0(s8)
   11490:	0007a603          	lw	a2,0(a5)
   11494:	0047a683          	lw	a3,4(a5)
   11498:	0087a703          	lw	a4,8(a5)
   1149c:	00c7a783          	lw	a5,12(a5)
   114a0:	0ec12823          	sw	a2,240(sp)
   114a4:	0ed12a23          	sw	a3,244(sp)
   114a8:	0ee12c23          	sw	a4,248(sp)
   114ac:	0f010513          	addi	a0,sp,240
   114b0:	0ef12e23          	sw	a5,252(sp)
   114b4:	205040ef          	jal	ra,15eb8 <_ldcheck>
   114b8:	0ca12623          	sw	a0,204(sp)
   114bc:	00200793          	li	a5,2
   114c0:	0cf51063          	bne	a0,a5,11580 <_vfprintf_r+0x8e8>
   114c4:	0f012783          	lw	a5,240(sp)
   114c8:	0a010593          	addi	a1,sp,160
   114cc:	0b010513          	addi	a0,sp,176
   114d0:	0af12823          	sw	a5,176(sp)
   114d4:	0f412783          	lw	a5,244(sp)
   114d8:	0a012023          	sw	zero,160(sp)
   114dc:	0a012223          	sw	zero,164(sp)
   114e0:	0af12a23          	sw	a5,180(sp)
   114e4:	0f812783          	lw	a5,248(sp)
   114e8:	0a012423          	sw	zero,168(sp)
   114ec:	0a012623          	sw	zero,172(sp)
   114f0:	0af12c23          	sw	a5,184(sp)
   114f4:	0fc12783          	lw	a5,252(sp)
   114f8:	0af12e23          	sw	a5,188(sp)
   114fc:	5910c0ef          	jal	ra,1e28c <__letf2>
   11500:	00055663          	bgez	a0,1150c <_vfprintf_r+0x874>
   11504:	02d00793          	li	a5,45
   11508:	0cf103a3          	sb	a5,199(sp)
   1150c:	00c12703          	lw	a4,12(sp)
   11510:	04700793          	li	a5,71
   11514:	06e7c063          	blt	a5,a4,11574 <_vfprintf_r+0x8dc>
   11518:	000224b7          	lui	s1,0x22
   1151c:	90048493          	addi	s1,s1,-1792 # 21900 <zeroes.4377+0x48>
   11520:	f7f47413          	andi	s0,s0,-129
   11524:	00012823          	sw	zero,16(sp)
   11528:	00300b13          	li	s6,3
   1152c:	00000a93          	li	s5,0
   11530:	3490006f          	j	12078 <_vfprintf_r+0x13e0>
   11534:	007c0c13          	addi	s8,s8,7
   11538:	ff8c7c13          	andi	s8,s8,-8
   1153c:	000c2583          	lw	a1,0(s8)
   11540:	004c2603          	lw	a2,4(s8)
   11544:	008c0793          	addi	a5,s8,8
   11548:	0b010513          	addi	a0,sp,176
   1154c:	00f12e23          	sw	a5,28(sp)
   11550:	2b50f0ef          	jal	ra,21004 <__extenddftf2>
   11554:	0b012783          	lw	a5,176(sp)
   11558:	0ef12823          	sw	a5,240(sp)
   1155c:	0b412783          	lw	a5,180(sp)
   11560:	0ef12a23          	sw	a5,244(sp)
   11564:	0b812783          	lw	a5,184(sp)
   11568:	0ef12c23          	sw	a5,248(sp)
   1156c:	0bc12783          	lw	a5,188(sp)
   11570:	f3dff06f          	j	114ac <_vfprintf_r+0x814>
   11574:	000224b7          	lui	s1,0x22
   11578:	90448493          	addi	s1,s1,-1788 # 21904 <zeroes.4377+0x4c>
   1157c:	fa5ff06f          	j	11520 <_vfprintf_r+0x888>
   11580:	00100793          	li	a5,1
   11584:	02f51463          	bne	a0,a5,115ac <_vfprintf_r+0x914>
   11588:	00c12703          	lw	a4,12(sp)
   1158c:	04700793          	li	a5,71
   11590:	00e7c863          	blt	a5,a4,115a0 <_vfprintf_r+0x908>
   11594:	000224b7          	lui	s1,0x22
   11598:	90848493          	addi	s1,s1,-1784 # 21908 <zeroes.4377+0x50>
   1159c:	f85ff06f          	j	11520 <_vfprintf_r+0x888>
   115a0:	000224b7          	lui	s1,0x22
   115a4:	90c48493          	addi	s1,s1,-1780 # 2190c <zeroes.4377+0x54>
   115a8:	f79ff06f          	j	11520 <_vfprintf_r+0x888>
   115ac:	00c12783          	lw	a5,12(sp)
   115b0:	fdf7fb93          	andi	s7,a5,-33
   115b4:	04100793          	li	a5,65
   115b8:	06fb9063          	bne	s7,a5,11618 <_vfprintf_r+0x980>
   115bc:	00c12683          	lw	a3,12(sp)
   115c0:	03000793          	li	a5,48
   115c4:	0cf10423          	sb	a5,200(sp)
   115c8:	06100713          	li	a4,97
   115cc:	05800793          	li	a5,88
   115d0:	00e69463          	bne	a3,a4,115d8 <_vfprintf_r+0x940>
   115d4:	07800793          	li	a5,120
   115d8:	0cf104a3          	sb	a5,201(sp)
   115dc:	06300793          	li	a5,99
   115e0:	00246413          	ori	s0,s0,2
   115e4:	5167d663          	ble	s6,a5,11af0 <_vfprintf_r+0xe58>
   115e8:	001b0593          	addi	a1,s6,1
   115ec:	00098513          	mv	a0,s3
   115f0:	dbdfe0ef          	jal	ra,103ac <_malloc_r>
   115f4:	00050493          	mv	s1,a0
   115f8:	50051263          	bnez	a0,11afc <_vfprintf_r+0xe64>
   115fc:	00c95783          	lhu	a5,12(s2)
   11600:	0407e793          	ori	a5,a5,64
   11604:	00f91623          	sh	a5,12(s2)
   11608:	00c95783          	lhu	a5,12(s2)
   1160c:	0407f793          	andi	a5,a5,64
   11610:	f6078e63          	beqz	a5,10d8c <_vfprintf_r+0xf4>
   11614:	fc8ff06f          	j	10ddc <_vfprintf_r+0x144>
   11618:	fff00793          	li	a5,-1
   1161c:	4efb0463          	beq	s6,a5,11b04 <_vfprintf_r+0xe6c>
   11620:	04700793          	li	a5,71
   11624:	00012823          	sw	zero,16(sp)
   11628:	00fb9463          	bne	s7,a5,11630 <_vfprintf_r+0x998>
   1162c:	4e0b0263          	beqz	s6,11b10 <_vfprintf_r+0xe78>
   11630:	0fc12a03          	lw	s4,252(sp)
   11634:	10046793          	ori	a5,s0,256
   11638:	02f12823          	sw	a5,48(sp)
   1163c:	04012423          	sw	zero,72(sp)
   11640:	0f012e03          	lw	t3,240(sp)
   11644:	0f412d83          	lw	s11,244(sp)
   11648:	0f812c83          	lw	s9,248(sp)
   1164c:	000a5a63          	bgez	s4,11660 <_vfprintf_r+0x9c8>
   11650:	800007b7          	lui	a5,0x80000
   11654:	0147ca33          	xor	s4,a5,s4
   11658:	02d00793          	li	a5,45
   1165c:	04f12423          	sw	a5,72(sp)
   11660:	04100793          	li	a5,65
   11664:	50fb9063          	bne	s7,a5,11b64 <_vfprintf_r+0xecc>
   11668:	0b010513          	addi	a0,sp,176
   1166c:	0bc12823          	sw	t3,176(sp)
   11670:	0bb12a23          	sw	s11,180(sp)
   11674:	0b912c23          	sw	s9,184(sp)
   11678:	0b412e23          	sw	s4,188(sp)
   1167c:	3d90f0ef          	jal	ra,21254 <__trunctfdf2>
   11680:	0cc10613          	addi	a2,sp,204
   11684:	2f4060ef          	jal	ra,17978 <frexp>
   11688:	00058613          	mv	a2,a1
   1168c:	00050593          	mv	a1,a0
   11690:	0b010513          	addi	a0,sp,176
   11694:	1710f0ef          	jal	ra,21004 <__extenddftf2>
   11698:	0b012583          	lw	a1,176(sp)
   1169c:	000227b7          	lui	a5,0x22
   116a0:	8d078793          	addi	a5,a5,-1840 # 218d0 <zeroes.4377+0x18>
   116a4:	08b12823          	sw	a1,144(sp)
   116a8:	0b412583          	lw	a1,180(sp)
   116ac:	0007a603          	lw	a2,0(a5)
   116b0:	0047a683          	lw	a3,4(a5)
   116b4:	08b12a23          	sw	a1,148(sp)
   116b8:	0b812583          	lw	a1,184(sp)
   116bc:	0087a703          	lw	a4,8(a5)
   116c0:	00c7a783          	lw	a5,12(a5)
   116c4:	08b12c23          	sw	a1,152(sp)
   116c8:	0bc12583          	lw	a1,188(sp)
   116cc:	08c12023          	sw	a2,128(sp)
   116d0:	0a010513          	addi	a0,sp,160
   116d4:	08b12e23          	sw	a1,156(sp)
   116d8:	08010613          	addi	a2,sp,128
   116dc:	09010593          	addi	a1,sp,144
   116e0:	08d12223          	sw	a3,132(sp)
   116e4:	08e12423          	sw	a4,136(sp)
   116e8:	08f12623          	sw	a5,140(sp)
   116ec:	5010c0ef          	jal	ra,1e3ec <__multf3>
   116f0:	0a012383          	lw	t2,160(sp)
   116f4:	0a412803          	lw	a6,164(sp)
   116f8:	0a812d83          	lw	s11,168(sp)
   116fc:	0ac12c83          	lw	s9,172(sp)
   11700:	0a010593          	addi	a1,sp,160
   11704:	0b010513          	addi	a0,sp,176
   11708:	0a712823          	sw	t2,176(sp)
   1170c:	04712823          	sw	t2,80(sp)
   11710:	0b012a23          	sw	a6,180(sp)
   11714:	05012623          	sw	a6,76(sp)
   11718:	0bb12c23          	sw	s11,184(sp)
   1171c:	0b912e23          	sw	s9,188(sp)
   11720:	0a012023          	sw	zero,160(sp)
   11724:	0a012223          	sw	zero,164(sp)
   11728:	0a012423          	sw	zero,168(sp)
   1172c:	0a012623          	sw	zero,172(sp)
   11730:	1310c0ef          	jal	ra,1e060 <__eqtf2>
   11734:	04c12803          	lw	a6,76(sp)
   11738:	05012383          	lw	t2,80(sp)
   1173c:	00051663          	bnez	a0,11748 <_vfprintf_r+0xab0>
   11740:	00100793          	li	a5,1
   11744:	0cf12623          	sw	a5,204(sp)
   11748:	00c12703          	lw	a4,12(sp)
   1174c:	06100793          	li	a5,97
   11750:	3cf71663          	bne	a4,a5,11b1c <_vfprintf_r+0xe84>
   11754:	00022ab7          	lui	s5,0x22
   11758:	910a8a93          	addi	s5,s5,-1776 # 21910 <zeroes.4377+0x58>
   1175c:	00022737          	lui	a4,0x22
   11760:	8e070713          	addi	a4,a4,-1824 # 218e0 <zeroes.4377+0x28>
   11764:	00072783          	lw	a5,0(a4)
   11768:	fffb0e13          	addi	t3,s6,-1
   1176c:	00048c13          	mv	s8,s1
   11770:	04f12823          	sw	a5,80(sp)
   11774:	00472783          	lw	a5,4(a4)
   11778:	04f12a23          	sw	a5,84(sp)
   1177c:	00872783          	lw	a5,8(a4)
   11780:	04f12c23          	sw	a5,88(sp)
   11784:	00c72783          	lw	a5,12(a4)
   11788:	04f12e23          	sw	a5,92(sp)
   1178c:	05012783          	lw	a5,80(sp)
   11790:	0a010593          	addi	a1,sp,160
   11794:	09010613          	addi	a2,sp,144
   11798:	08f12823          	sw	a5,144(sp)
   1179c:	05412783          	lw	a5,84(sp)
   117a0:	0b010513          	addi	a0,sp,176
   117a4:	07c12423          	sw	t3,104(sp)
   117a8:	08f12a23          	sw	a5,148(sp)
   117ac:	05812783          	lw	a5,88(sp)
   117b0:	0a712023          	sw	t2,160(sp)
   117b4:	0b012223          	sw	a6,164(sp)
   117b8:	08f12c23          	sw	a5,152(sp)
   117bc:	05c12783          	lw	a5,92(sp)
   117c0:	0bb12423          	sw	s11,168(sp)
   117c4:	0b912623          	sw	s9,172(sp)
   117c8:	08f12e23          	sw	a5,156(sp)
   117cc:	4210c0ef          	jal	ra,1e3ec <__multf3>
   117d0:	0b012603          	lw	a2,176(sp)
   117d4:	0b412683          	lw	a3,180(sp)
   117d8:	0b010513          	addi	a0,sp,176
   117dc:	06c12223          	sw	a2,100(sp)
   117e0:	04d12623          	sw	a3,76(sp)
   117e4:	53c0f0ef          	jal	ra,20d20 <__fixtfsi>
   117e8:	00050593          	mv	a1,a0
   117ec:	00050a13          	mv	s4,a0
   117f0:	0b010513          	addi	a0,sp,176
   117f4:	0b812d83          	lw	s11,184(sp)
   117f8:	0bc12c83          	lw	s9,188(sp)
   117fc:	6880f0ef          	jal	ra,20e84 <__floatsitf>
   11800:	0b012703          	lw	a4,176(sp)
   11804:	06412603          	lw	a2,100(sp)
   11808:	04c12683          	lw	a3,76(sp)
   1180c:	08e12023          	sw	a4,128(sp)
   11810:	0b412703          	lw	a4,180(sp)
   11814:	08c12823          	sw	a2,144(sp)
   11818:	09010593          	addi	a1,sp,144
   1181c:	08e12223          	sw	a4,132(sp)
   11820:	0b812703          	lw	a4,184(sp)
   11824:	08010613          	addi	a2,sp,128
   11828:	0a010513          	addi	a0,sp,160
   1182c:	08e12423          	sw	a4,136(sp)
   11830:	0bc12703          	lw	a4,188(sp)
   11834:	09b12c23          	sw	s11,152(sp)
   11838:	09912e23          	sw	s9,156(sp)
   1183c:	08e12623          	sw	a4,140(sp)
   11840:	08d12a23          	sw	a3,148(sp)
   11844:	7d90d0ef          	jal	ra,1f81c <__subtf3>
   11848:	014a8733          	add	a4,s5,s4
   1184c:	00074703          	lbu	a4,0(a4)
   11850:	06812e03          	lw	t3,104(sp)
   11854:	0a812f03          	lw	t5,168(sp)
   11858:	0ac12e83          	lw	t4,172(sp)
   1185c:	001c0c13          	addi	s8,s8,1
   11860:	0a012283          	lw	t0,160(sp)
   11864:	0a412f83          	lw	t6,164(sp)
   11868:	05c12623          	sw	t3,76(sp)
   1186c:	feec0fa3          	sb	a4,-1(s8)
   11870:	fff00713          	li	a4,-1
   11874:	000f0d93          	mv	s11,t5
   11878:	000e8c93          	mv	s9,t4
   1187c:	06ee0863          	beq	t3,a4,118ec <_vfprintf_r+0xc54>
   11880:	fffe0e13          	addi	t3,t3,-1
   11884:	0a010593          	addi	a1,sp,160
   11888:	0b010513          	addi	a0,sp,176
   1188c:	07d12e23          	sw	t4,124(sp)
   11890:	07e12c23          	sw	t5,120(sp)
   11894:	07f12a23          	sw	t6,116(sp)
   11898:	06512823          	sw	t0,112(sp)
   1189c:	07c12623          	sw	t3,108(sp)
   118a0:	0a512823          	sw	t0,176(sp)
   118a4:	06512423          	sw	t0,104(sp)
   118a8:	0bf12a23          	sw	t6,180(sp)
   118ac:	07f12223          	sw	t6,100(sp)
   118b0:	0be12c23          	sw	t5,184(sp)
   118b4:	0bd12e23          	sw	t4,188(sp)
   118b8:	0a012023          	sw	zero,160(sp)
   118bc:	0a012223          	sw	zero,164(sp)
   118c0:	0a012423          	sw	zero,168(sp)
   118c4:	0a012623          	sw	zero,172(sp)
   118c8:	7980c0ef          	jal	ra,1e060 <__eqtf2>
   118cc:	06412803          	lw	a6,100(sp)
   118d0:	06812383          	lw	t2,104(sp)
   118d4:	06c12e03          	lw	t3,108(sp)
   118d8:	07012283          	lw	t0,112(sp)
   118dc:	07412f83          	lw	t6,116(sp)
   118e0:	07812f03          	lw	t5,120(sp)
   118e4:	07c12e83          	lw	t4,124(sp)
   118e8:	ea0512e3          	bnez	a0,1178c <_vfprintf_r+0xaf4>
   118ec:	00022737          	lui	a4,0x22
   118f0:	8f070713          	addi	a4,a4,-1808 # 218f0 <zeroes.4377+0x38>
   118f4:	00072603          	lw	a2,0(a4)
   118f8:	00472683          	lw	a3,4(a4)
   118fc:	00872d83          	lw	s11,8(a4)
   11900:	00c72c83          	lw	s9,12(a4)
   11904:	0a010593          	addi	a1,sp,160
   11908:	0b010513          	addi	a0,sp,176
   1190c:	0a512823          	sw	t0,176(sp)
   11910:	06512423          	sw	t0,104(sp)
   11914:	0bf12a23          	sw	t6,180(sp)
   11918:	07f12223          	sw	t6,100(sp)
   1191c:	0be12c23          	sw	t5,184(sp)
   11920:	05e12e23          	sw	t5,92(sp)
   11924:	0bd12e23          	sw	t4,188(sp)
   11928:	05d12c23          	sw	t4,88(sp)
   1192c:	0ac12023          	sw	a2,160(sp)
   11930:	04c12a23          	sw	a2,84(sp)
   11934:	0ad12223          	sw	a3,164(sp)
   11938:	04d12823          	sw	a3,80(sp)
   1193c:	0bb12423          	sw	s11,168(sp)
   11940:	0b912623          	sw	s9,172(sp)
   11944:	7e80c0ef          	jal	ra,1e12c <__getf2>
   11948:	04a04a63          	bgtz	a0,1199c <_vfprintf_r+0xd04>
   1194c:	06812283          	lw	t0,104(sp)
   11950:	06412f83          	lw	t6,100(sp)
   11954:	05c12f03          	lw	t5,92(sp)
   11958:	05812e83          	lw	t4,88(sp)
   1195c:	05412603          	lw	a2,84(sp)
   11960:	05012683          	lw	a3,80(sp)
   11964:	0a010593          	addi	a1,sp,160
   11968:	0b010513          	addi	a0,sp,176
   1196c:	0a512823          	sw	t0,176(sp)
   11970:	0bf12a23          	sw	t6,180(sp)
   11974:	0be12c23          	sw	t5,184(sp)
   11978:	0bd12e23          	sw	t4,188(sp)
   1197c:	0ac12023          	sw	a2,160(sp)
   11980:	0ad12223          	sw	a3,164(sp)
   11984:	0bb12423          	sw	s11,168(sp)
   11988:	0b912623          	sw	s9,172(sp)
   1198c:	6d40c0ef          	jal	ra,1e060 <__eqtf2>
   11990:	1c051063          	bnez	a0,11b50 <_vfprintf_r+0xeb8>
   11994:	001a7a13          	andi	s4,s4,1
   11998:	1a0a0c63          	beqz	s4,11b50 <_vfprintf_r+0xeb8>
   1199c:	00fac603          	lbu	a2,15(s5)
   119a0:	0d812e23          	sw	s8,220(sp)
   119a4:	03000593          	li	a1,48
   119a8:	0dc12683          	lw	a3,220(sp)
   119ac:	fff68713          	addi	a4,a3,-1
   119b0:	0ce12e23          	sw	a4,220(sp)
   119b4:	fff6c703          	lbu	a4,-1(a3)
   119b8:	16c70863          	beq	a4,a2,11b28 <_vfprintf_r+0xe90>
   119bc:	03900613          	li	a2,57
   119c0:	16c71863          	bne	a4,a2,11b30 <_vfprintf_r+0xe98>
   119c4:	00aac703          	lbu	a4,10(s5)
   119c8:	fee68fa3          	sb	a4,-1(a3)
   119cc:	000c0a13          	mv	s4,s8
   119d0:	04700713          	li	a4,71
   119d4:	409a0a33          	sub	s4,s4,s1
   119d8:	0cc12c83          	lw	s9,204(sp)
   119dc:	2aeb9a63          	bne	s7,a4,11c90 <_vfprintf_r+0xff8>
   119e0:	ffd00713          	li	a4,-3
   119e4:	00ecc463          	blt	s9,a4,119ec <_vfprintf_r+0xd54>
   119e8:	339b5863          	ble	s9,s6,11d18 <_vfprintf_r+0x1080>
   119ec:	00c12783          	lw	a5,12(sp)
   119f0:	ffe78793          	addi	a5,a5,-2
   119f4:	00f12623          	sw	a5,12(sp)
   119f8:	00c12783          	lw	a5,12(sp)
   119fc:	fffc8a93          	addi	s5,s9,-1
   11a00:	0d512623          	sw	s5,204(sp)
   11a04:	fdf7f693          	andi	a3,a5,-33
   11a08:	04100593          	li	a1,65
   11a0c:	00c14703          	lbu	a4,12(sp)
   11a10:	00000613          	li	a2,0
   11a14:	00b69863          	bne	a3,a1,11a24 <_vfprintf_r+0xd8c>
   11a18:	00f70713          	addi	a4,a4,15
   11a1c:	0ff77713          	andi	a4,a4,255
   11a20:	00100613          	li	a2,1
   11a24:	0ce10a23          	sb	a4,212(sp)
   11a28:	02b00793          	li	a5,43
   11a2c:	000ad863          	bgez	s5,11a3c <_vfprintf_r+0xda4>
   11a30:	00100a93          	li	s5,1
   11a34:	419a8ab3          	sub	s5,s5,s9
   11a38:	02d00793          	li	a5,45
   11a3c:	0cf10aa3          	sb	a5,213(sp)
   11a40:	00900793          	li	a5,9
   11a44:	2957dc63          	ble	s5,a5,11cdc <_vfprintf_r+0x1044>
   11a48:	0e310b93          	addi	s7,sp,227
   11a4c:	000b8c93          	mv	s9,s7
   11a50:	00900d93          	li	s11,9
   11a54:	00a00593          	li	a1,10
   11a58:	000a8513          	mv	a0,s5
   11a5c:	3f90f0ef          	jal	ra,21654 <__modsi3>
   11a60:	03050513          	addi	a0,a0,48
   11a64:	feab8fa3          	sb	a0,-1(s7)
   11a68:	00a00593          	li	a1,10
   11a6c:	000a8513          	mv	a0,s5
   11a70:	3610f0ef          	jal	ra,215d0 <__divsi3>
   11a74:	fffb8c13          	addi	s8,s7,-1
   11a78:	00050a93          	mv	s5,a0
   11a7c:	24adc263          	blt	s11,a0,11cc0 <_vfprintf_r+0x1028>
   11a80:	03050a93          	addi	s5,a0,48
   11a84:	ffeb8b93          	addi	s7,s7,-2
   11a88:	ff5c0fa3          	sb	s5,-1(s8)
   11a8c:	0d610793          	addi	a5,sp,214
   11a90:	239bec63          	bltu	s7,s9,11cc8 <_vfprintf_r+0x1030>
   11a94:	0d410713          	addi	a4,sp,212
   11a98:	40e787b3          	sub	a5,a5,a4
   11a9c:	04f12023          	sw	a5,64(sp)
   11aa0:	01478b33          	add	s6,a5,s4
   11aa4:	00100793          	li	a5,1
   11aa8:	0147c663          	blt	a5,s4,11ab4 <_vfprintf_r+0xe1c>
   11aac:	00147793          	andi	a5,s0,1
   11ab0:	00078663          	beqz	a5,11abc <_vfprintf_r+0xe24>
   11ab4:	02412783          	lw	a5,36(sp)
   11ab8:	00fb0b33          	add	s6,s6,a5
   11abc:	bff47413          	andi	s0,s0,-1025
   11ac0:	10046793          	ori	a5,s0,256
   11ac4:	02f12823          	sw	a5,48(sp)
   11ac8:	00000c13          	li	s8,0
   11acc:	00000b93          	li	s7,0
   11ad0:	00000c93          	li	s9,0
   11ad4:	04812783          	lw	a5,72(sp)
   11ad8:	00078663          	beqz	a5,11ae4 <_vfprintf_r+0xe4c>
   11adc:	02d00713          	li	a4,45
   11ae0:	0ce103a3          	sb	a4,199(sp)
   11ae4:	03012403          	lw	s0,48(sp)
   11ae8:	00000a93          	li	s5,0
   11aec:	e50ff06f          	j	1113c <_vfprintf_r+0x4a4>
   11af0:	00012823          	sw	zero,16(sp)
   11af4:	14c10493          	addi	s1,sp,332
   11af8:	b39ff06f          	j	11630 <_vfprintf_r+0x998>
   11afc:	00a12823          	sw	a0,16(sp)
   11b00:	b31ff06f          	j	11630 <_vfprintf_r+0x998>
   11b04:	00012823          	sw	zero,16(sp)
   11b08:	00600b13          	li	s6,6
   11b0c:	b25ff06f          	j	11630 <_vfprintf_r+0x998>
   11b10:	01612823          	sw	s6,16(sp)
   11b14:	00100b13          	li	s6,1
   11b18:	b19ff06f          	j	11630 <_vfprintf_r+0x998>
   11b1c:	00022ab7          	lui	s5,0x22
   11b20:	924a8a93          	addi	s5,s5,-1756 # 21924 <zeroes.4377+0x6c>
   11b24:	c39ff06f          	j	1175c <_vfprintf_r+0xac4>
   11b28:	feb68fa3          	sb	a1,-1(a3)
   11b2c:	e7dff06f          	j	119a8 <_vfprintf_r+0xd10>
   11b30:	00170713          	addi	a4,a4,1
   11b34:	0ff77713          	andi	a4,a4,255
   11b38:	e91ff06f          	j	119c8 <_vfprintf_r+0xd30>
   11b3c:	001a0a13          	addi	s4,s4,1
   11b40:	feea0fa3          	sb	a4,-1(s4)
   11b44:	414c07b3          	sub	a5,s8,s4
   11b48:	fe07dae3          	bgez	a5,11b3c <_vfprintf_r+0xea4>
   11b4c:	e85ff06f          	j	119d0 <_vfprintf_r+0xd38>
   11b50:	04c12783          	lw	a5,76(sp)
   11b54:	000c0a13          	mv	s4,s8
   11b58:	03000713          	li	a4,48
   11b5c:	00fc0c33          	add	s8,s8,a5
   11b60:	fe5ff06f          	j	11b44 <_vfprintf_r+0xeac>
   11b64:	04600793          	li	a5,70
   11b68:	00fb8e63          	beq	s7,a5,11b84 <_vfprintf_r+0xeec>
   11b6c:	04500793          	li	a5,69
   11b70:	001b0a93          	addi	s5,s6,1
   11b74:	00fb8463          	beq	s7,a5,11b7c <_vfprintf_r+0xee4>
   11b78:	000b0a93          	mv	s5,s6
   11b7c:	00200613          	li	a2,2
   11b80:	00c0006f          	j	11b8c <_vfprintf_r+0xef4>
   11b84:	000b0a93          	mv	s5,s6
   11b88:	00300613          	li	a2,3
   11b8c:	0d010793          	addi	a5,sp,208
   11b90:	0dc10813          	addi	a6,sp,220
   11b94:	0cc10713          	addi	a4,sp,204
   11b98:	000a8693          	mv	a3,s5
   11b9c:	0b010593          	addi	a1,sp,176
   11ba0:	00098513          	mv	a0,s3
   11ba4:	0bc12823          	sw	t3,176(sp)
   11ba8:	05c12623          	sw	t3,76(sp)
   11bac:	0bb12a23          	sw	s11,180(sp)
   11bb0:	0b912c23          	sw	s9,184(sp)
   11bb4:	0b412e23          	sw	s4,188(sp)
   11bb8:	6ac030ef          	jal	ra,15264 <_ldtoa_r>
   11bbc:	04700793          	li	a5,71
   11bc0:	00050493          	mv	s1,a0
   11bc4:	04c12e03          	lw	t3,76(sp)
   11bc8:	00fb9663          	bne	s7,a5,11bd4 <_vfprintf_r+0xf3c>
   11bcc:	00147793          	andi	a5,s0,1
   11bd0:	0a078063          	beqz	a5,11c70 <_vfprintf_r+0xfd8>
   11bd4:	04600793          	li	a5,70
   11bd8:	01548c33          	add	s8,s1,s5
   11bdc:	04fb9e63          	bne	s7,a5,11c38 <_vfprintf_r+0xfa0>
   11be0:	0004c703          	lbu	a4,0(s1)
   11be4:	03000793          	li	a5,48
   11be8:	04f71463          	bne	a4,a5,11c30 <_vfprintf_r+0xf98>
   11bec:	0a010593          	addi	a1,sp,160
   11bf0:	0b010513          	addi	a0,sp,176
   11bf4:	0bc12823          	sw	t3,176(sp)
   11bf8:	05c12623          	sw	t3,76(sp)
   11bfc:	0bb12a23          	sw	s11,180(sp)
   11c00:	0b912c23          	sw	s9,184(sp)
   11c04:	0b412e23          	sw	s4,188(sp)
   11c08:	0a012023          	sw	zero,160(sp)
   11c0c:	0a012223          	sw	zero,164(sp)
   11c10:	0a012423          	sw	zero,168(sp)
   11c14:	0a012623          	sw	zero,172(sp)
   11c18:	4480c0ef          	jal	ra,1e060 <__eqtf2>
   11c1c:	04c12e03          	lw	t3,76(sp)
   11c20:	00050863          	beqz	a0,11c30 <_vfprintf_r+0xf98>
   11c24:	00100793          	li	a5,1
   11c28:	41578ab3          	sub	s5,a5,s5
   11c2c:	0d512623          	sw	s5,204(sp)
   11c30:	0cc12783          	lw	a5,204(sp)
   11c34:	00fc0c33          	add	s8,s8,a5
   11c38:	0a010593          	addi	a1,sp,160
   11c3c:	0b010513          	addi	a0,sp,176
   11c40:	0bc12823          	sw	t3,176(sp)
   11c44:	0bb12a23          	sw	s11,180(sp)
   11c48:	0b912c23          	sw	s9,184(sp)
   11c4c:	0b412e23          	sw	s4,188(sp)
   11c50:	0a012023          	sw	zero,160(sp)
   11c54:	0a012223          	sw	zero,164(sp)
   11c58:	0a012423          	sw	zero,168(sp)
   11c5c:	0a012623          	sw	zero,172(sp)
   11c60:	4000c0ef          	jal	ra,1e060 <__eqtf2>
   11c64:	03000713          	li	a4,48
   11c68:	00051e63          	bnez	a0,11c84 <_vfprintf_r+0xfec>
   11c6c:	0d812e23          	sw	s8,220(sp)
   11c70:	0dc12a03          	lw	s4,220(sp)
   11c74:	d5dff06f          	j	119d0 <_vfprintf_r+0xd38>
   11c78:	00178693          	addi	a3,a5,1
   11c7c:	0cd12e23          	sw	a3,220(sp)
   11c80:	00e78023          	sb	a4,0(a5)
   11c84:	0dc12783          	lw	a5,220(sp)
   11c88:	ff87e8e3          	bltu	a5,s8,11c78 <_vfprintf_r+0xfe0>
   11c8c:	fe5ff06f          	j	11c70 <_vfprintf_r+0xfd8>
   11c90:	04600713          	li	a4,70
   11c94:	d6eb92e3          	bne	s7,a4,119f8 <_vfprintf_r+0xd60>
   11c98:	07905463          	blez	s9,11d00 <_vfprintf_r+0x1068>
   11c9c:	000b1663          	bnez	s6,11ca8 <_vfprintf_r+0x1010>
   11ca0:	00147713          	andi	a4,s0,1
   11ca4:	0c070663          	beqz	a4,11d70 <_vfprintf_r+0x10d8>
   11ca8:	02412783          	lw	a5,36(sp)
   11cac:	00fc8733          	add	a4,s9,a5
   11cb0:	00eb0b33          	add	s6,s6,a4
   11cb4:	06600793          	li	a5,102
   11cb8:	00f12623          	sw	a5,12(sp)
   11cbc:	0980006f          	j	11d54 <_vfprintf_r+0x10bc>
   11cc0:	000c0b93          	mv	s7,s8
   11cc4:	d91ff06f          	j	11a54 <_vfprintf_r+0xdbc>
   11cc8:	001b8b93          	addi	s7,s7,1
   11ccc:	fffbc703          	lbu	a4,-1(s7)
   11cd0:	00178793          	addi	a5,a5,1
   11cd4:	fee78fa3          	sb	a4,-1(a5)
   11cd8:	db9ff06f          	j	11a90 <_vfprintf_r+0xdf8>
   11cdc:	0d610713          	addi	a4,sp,214
   11ce0:	00061863          	bnez	a2,11cf0 <_vfprintf_r+0x1058>
   11ce4:	03000793          	li	a5,48
   11ce8:	0cf10b23          	sb	a5,214(sp)
   11cec:	0d710713          	addi	a4,sp,215
   11cf0:	030a8a93          	addi	s5,s5,48
   11cf4:	00170793          	addi	a5,a4,1
   11cf8:	01570023          	sb	s5,0(a4)
   11cfc:	d99ff06f          	j	11a94 <_vfprintf_r+0xdfc>
   11d00:	000b1663          	bnez	s6,11d0c <_vfprintf_r+0x1074>
   11d04:	00147713          	andi	a4,s0,1
   11d08:	06070863          	beqz	a4,11d78 <_vfprintf_r+0x10e0>
   11d0c:	02412783          	lw	a5,36(sp)
   11d10:	00178713          	addi	a4,a5,1
   11d14:	f9dff06f          	j	11cb0 <_vfprintf_r+0x1018>
   11d18:	034cc063          	blt	s9,s4,11d38 <_vfprintf_r+0x10a0>
   11d1c:	00147713          	andi	a4,s0,1
   11d20:	000c8b13          	mv	s6,s9
   11d24:	00070663          	beqz	a4,11d30 <_vfprintf_r+0x1098>
   11d28:	02412783          	lw	a5,36(sp)
   11d2c:	00fc8b33          	add	s6,s9,a5
   11d30:	06700793          	li	a5,103
   11d34:	f85ff06f          	j	11cb8 <_vfprintf_r+0x1020>
   11d38:	02412783          	lw	a5,36(sp)
   11d3c:	00fa0b33          	add	s6,s4,a5
   11d40:	06700793          	li	a5,103
   11d44:	00f12623          	sw	a5,12(sp)
   11d48:	01904663          	bgtz	s9,11d54 <_vfprintf_r+0x10bc>
   11d4c:	419b0333          	sub	t1,s6,s9
   11d50:	00130b13          	addi	s6,t1,1 # 1 <main-0x10073>
   11d54:	40047b93          	andi	s7,s0,1024
   11d58:	00000c13          	li	s8,0
   11d5c:	d60b8ce3          	beqz	s7,11ad4 <_vfprintf_r+0xe3c>
   11d60:	00000b93          	li	s7,0
   11d64:	d79058e3          	blez	s9,11ad4 <_vfprintf_r+0xe3c>
   11d68:	0ff00693          	li	a3,255
   11d6c:	03c0006f          	j	11da8 <_vfprintf_r+0x1110>
   11d70:	000c8b13          	mv	s6,s9
   11d74:	f41ff06f          	j	11cb4 <_vfprintf_r+0x101c>
   11d78:	06600793          	li	a5,102
   11d7c:	00f12623          	sw	a5,12(sp)
   11d80:	00100b13          	li	s6,1
   11d84:	fd1ff06f          	j	11d54 <_vfprintf_r+0x10bc>
   11d88:	03975663          	ble	s9,a4,11db4 <_vfprintf_r+0x111c>
   11d8c:	01412783          	lw	a5,20(sp)
   11d90:	40ec8cb3          	sub	s9,s9,a4
   11d94:	0017c703          	lbu	a4,1(a5)
   11d98:	02070863          	beqz	a4,11dc8 <_vfprintf_r+0x1130>
   11d9c:	00178793          	addi	a5,a5,1
   11da0:	001b8b93          	addi	s7,s7,1
   11da4:	00f12a23          	sw	a5,20(sp)
   11da8:	01412783          	lw	a5,20(sp)
   11dac:	0007c703          	lbu	a4,0(a5)
   11db0:	fcd71ce3          	bne	a4,a3,11d88 <_vfprintf_r+0x10f0>
   11db4:	03412583          	lw	a1,52(sp)
   11db8:	018b8533          	add	a0,s7,s8
   11dbc:	7f00f0ef          	jal	ra,215ac <__mulsi3>
   11dc0:	01650b33          	add	s6,a0,s6
   11dc4:	d11ff06f          	j	11ad4 <_vfprintf_r+0xe3c>
   11dc8:	001c0c13          	addi	s8,s8,1
   11dcc:	fddff06f          	j	11da8 <_vfprintf_r+0x1110>
   11dd0:	004c0713          	addi	a4,s8,4
   11dd4:	00e12e23          	sw	a4,28(sp)
   11dd8:	02047713          	andi	a4,s0,32
   11ddc:	000c2783          	lw	a5,0(s8)
   11de0:	02070063          	beqz	a4,11e00 <_vfprintf_r+0x1168>
   11de4:	02812703          	lw	a4,40(sp)
   11de8:	00e7a023          	sw	a4,0(a5)
   11dec:	41f75713          	srai	a4,a4,0x1f
   11df0:	00e7a223          	sw	a4,4(a5)
   11df4:	01c12c03          	lw	s8,28(sp)
   11df8:	02012483          	lw	s1,32(sp)
   11dfc:	834ff06f          	j	10e30 <_vfprintf_r+0x198>
   11e00:	01047713          	andi	a4,s0,16
   11e04:	00070863          	beqz	a4,11e14 <_vfprintf_r+0x117c>
   11e08:	02812703          	lw	a4,40(sp)
   11e0c:	00e7a023          	sw	a4,0(a5)
   11e10:	fe5ff06f          	j	11df4 <_vfprintf_r+0x115c>
   11e14:	04047713          	andi	a4,s0,64
   11e18:	00070863          	beqz	a4,11e28 <_vfprintf_r+0x1190>
   11e1c:	02815703          	lhu	a4,40(sp)
   11e20:	00e79023          	sh	a4,0(a5)
   11e24:	fd1ff06f          	j	11df4 <_vfprintf_r+0x115c>
   11e28:	20047413          	andi	s0,s0,512
   11e2c:	fc040ee3          	beqz	s0,11e08 <_vfprintf_r+0x1170>
   11e30:	02814703          	lbu	a4,40(sp)
   11e34:	00e78023          	sb	a4,0(a5)
   11e38:	fbdff06f          	j	11df4 <_vfprintf_r+0x115c>
   11e3c:	01046413          	ori	s0,s0,16
   11e40:	02047793          	andi	a5,s0,32
   11e44:	04078863          	beqz	a5,11e94 <_vfprintf_r+0x11fc>
   11e48:	007c0c13          	addi	s8,s8,7
   11e4c:	ff8c7c13          	andi	s8,s8,-8
   11e50:	008c0793          	addi	a5,s8,8
   11e54:	000c2c83          	lw	s9,0(s8)
   11e58:	004c2c03          	lw	s8,4(s8)
   11e5c:	00f12e23          	sw	a5,28(sp)
   11e60:	bff47413          	andi	s0,s0,-1025
   11e64:	00000793          	li	a5,0
   11e68:	0c0103a3          	sb	zero,199(sp)
   11e6c:	fff00713          	li	a4,-1
   11e70:	1aeb0263          	beq	s6,a4,12014 <_vfprintf_r+0x137c>
   11e74:	00040713          	mv	a4,s0
   11e78:	018ce6b3          	or	a3,s9,s8
   11e7c:	f7f47413          	andi	s0,s0,-129
   11e80:	18069a63          	bnez	a3,12014 <_vfprintf_r+0x137c>
   11e84:	2e0b0c63          	beqz	s6,1217c <_vfprintf_r+0x14e4>
   11e88:	00100713          	li	a4,1
   11e8c:	18e79863          	bne	a5,a4,1201c <_vfprintf_r+0x1384>
   11e90:	d94ff06f          	j	11424 <_vfprintf_r+0x78c>
   11e94:	004c0793          	addi	a5,s8,4
   11e98:	00f12e23          	sw	a5,28(sp)
   11e9c:	01047793          	andi	a5,s0,16
   11ea0:	00078663          	beqz	a5,11eac <_vfprintf_r+0x1214>
   11ea4:	000c2c83          	lw	s9,0(s8)
   11ea8:	0100006f          	j	11eb8 <_vfprintf_r+0x1220>
   11eac:	04047793          	andi	a5,s0,64
   11eb0:	00078863          	beqz	a5,11ec0 <_vfprintf_r+0x1228>
   11eb4:	000c5c83          	lhu	s9,0(s8)
   11eb8:	00000c13          	li	s8,0
   11ebc:	fa5ff06f          	j	11e60 <_vfprintf_r+0x11c8>
   11ec0:	20047793          	andi	a5,s0,512
   11ec4:	fe0780e3          	beqz	a5,11ea4 <_vfprintf_r+0x120c>
   11ec8:	000c4c83          	lbu	s9,0(s8)
   11ecc:	fedff06f          	j	11eb8 <_vfprintf_r+0x1220>
   11ed0:	004c0793          	addi	a5,s8,4
   11ed4:	00f12e23          	sw	a5,28(sp)
   11ed8:	ffff87b7          	lui	a5,0xffff8
   11edc:	8307c793          	xori	a5,a5,-2000
   11ee0:	0cf11423          	sh	a5,200(sp)
   11ee4:	000227b7          	lui	a5,0x22
   11ee8:	91078793          	addi	a5,a5,-1776 # 21910 <zeroes.4377+0x58>
   11eec:	07800713          	li	a4,120
   11ef0:	000c2c83          	lw	s9,0(s8)
   11ef4:	04f12223          	sw	a5,68(sp)
   11ef8:	00000c13          	li	s8,0
   11efc:	00246413          	ori	s0,s0,2
   11f00:	00200793          	li	a5,2
   11f04:	00e12623          	sw	a4,12(sp)
   11f08:	f61ff06f          	j	11e68 <_vfprintf_r+0x11d0>
   11f0c:	004c0793          	addi	a5,s8,4
   11f10:	00f12e23          	sw	a5,28(sp)
   11f14:	0c0103a3          	sb	zero,199(sp)
   11f18:	fff00793          	li	a5,-1
   11f1c:	000c2483          	lw	s1,0(s8)
   11f20:	02fb0463          	beq	s6,a5,11f48 <_vfprintf_r+0x12b0>
   11f24:	000b0613          	mv	a2,s6
   11f28:	00000593          	li	a1,0
   11f2c:	00048513          	mv	a0,s1
   11f30:	2f4040ef          	jal	ra,16224 <memchr>
   11f34:	00a12823          	sw	a0,16(sp)
   11f38:	de050a63          	beqz	a0,1152c <_vfprintf_r+0x894>
   11f3c:	40950b33          	sub	s6,a0,s1
   11f40:	00012823          	sw	zero,16(sp)
   11f44:	de8ff06f          	j	1152c <_vfprintf_r+0x894>
   11f48:	00048513          	mv	a0,s1
   11f4c:	d31fe0ef          	jal	ra,10c7c <strlen>
   11f50:	00050b13          	mv	s6,a0
   11f54:	fedff06f          	j	11f40 <_vfprintf_r+0x12a8>
   11f58:	01046413          	ori	s0,s0,16
   11f5c:	02047793          	andi	a5,s0,32
   11f60:	02078263          	beqz	a5,11f84 <_vfprintf_r+0x12ec>
   11f64:	007c0c13          	addi	s8,s8,7
   11f68:	ff8c7c13          	andi	s8,s8,-8
   11f6c:	008c0793          	addi	a5,s8,8
   11f70:	000c2c83          	lw	s9,0(s8)
   11f74:	004c2c03          	lw	s8,4(s8)
   11f78:	00f12e23          	sw	a5,28(sp)
   11f7c:	00100793          	li	a5,1
   11f80:	ee9ff06f          	j	11e68 <_vfprintf_r+0x11d0>
   11f84:	004c0793          	addi	a5,s8,4
   11f88:	00f12e23          	sw	a5,28(sp)
   11f8c:	01047793          	andi	a5,s0,16
   11f90:	00078663          	beqz	a5,11f9c <_vfprintf_r+0x1304>
   11f94:	000c2c83          	lw	s9,0(s8)
   11f98:	0100006f          	j	11fa8 <_vfprintf_r+0x1310>
   11f9c:	04047793          	andi	a5,s0,64
   11fa0:	00078863          	beqz	a5,11fb0 <_vfprintf_r+0x1318>
   11fa4:	000c5c83          	lhu	s9,0(s8)
   11fa8:	00000c13          	li	s8,0
   11fac:	fd1ff06f          	j	11f7c <_vfprintf_r+0x12e4>
   11fb0:	20047793          	andi	a5,s0,512
   11fb4:	fe0780e3          	beqz	a5,11f94 <_vfprintf_r+0x12fc>
   11fb8:	000c4c83          	lbu	s9,0(s8)
   11fbc:	fedff06f          	j	11fa8 <_vfprintf_r+0x1310>
   11fc0:	000227b7          	lui	a5,0x22
   11fc4:	91078793          	addi	a5,a5,-1776 # 21910 <zeroes.4377+0x58>
   11fc8:	f4dfe06f          	j	10f14 <_vfprintf_r+0x27c>
   11fcc:	004c0793          	addi	a5,s8,4
   11fd0:	00f12e23          	sw	a5,28(sp)
   11fd4:	01047793          	andi	a5,s0,16
   11fd8:	00078663          	beqz	a5,11fe4 <_vfprintf_r+0x134c>
   11fdc:	000c2c83          	lw	s9,0(s8)
   11fe0:	0100006f          	j	11ff0 <_vfprintf_r+0x1358>
   11fe4:	04047793          	andi	a5,s0,64
   11fe8:	00078863          	beqz	a5,11ff8 <_vfprintf_r+0x1360>
   11fec:	000c5c83          	lhu	s9,0(s8)
   11ff0:	00000c13          	li	s8,0
   11ff4:	f49fe06f          	j	10f3c <_vfprintf_r+0x2a4>
   11ff8:	20047793          	andi	a5,s0,512
   11ffc:	fe0780e3          	beqz	a5,11fdc <_vfprintf_r+0x1344>
   12000:	000c4c83          	lbu	s9,0(s8)
   12004:	fedff06f          	j	11ff0 <_vfprintf_r+0x1358>
   12008:	00040713          	mv	a4,s0
   1200c:	00100793          	li	a5,1
   12010:	e69ff06f          	j	11e78 <_vfprintf_r+0x11e0>
   12014:	00100713          	li	a4,1
   12018:	c0e78063          	beq	a5,a4,11418 <_vfprintf_r+0x780>
   1201c:	00200713          	li	a4,2
   12020:	12e78263          	beq	a5,a4,12144 <_vfprintf_r+0x14ac>
   12024:	1b010793          	addi	a5,sp,432
   12028:	01dc1693          	slli	a3,s8,0x1d
   1202c:	007cf713          	andi	a4,s9,7
   12030:	003cdc93          	srli	s9,s9,0x3
   12034:	03070713          	addi	a4,a4,48
   12038:	0196ecb3          	or	s9,a3,s9
   1203c:	003c5c13          	srli	s8,s8,0x3
   12040:	fee78fa3          	sb	a4,-1(a5)
   12044:	018ce6b3          	or	a3,s9,s8
   12048:	fff78493          	addi	s1,a5,-1
   1204c:	02069e63          	bnez	a3,12088 <_vfprintf_r+0x13f0>
   12050:	00147693          	andi	a3,s0,1
   12054:	00068a63          	beqz	a3,12068 <_vfprintf_r+0x13d0>
   12058:	03000693          	li	a3,48
   1205c:	00d70663          	beq	a4,a3,12068 <_vfprintf_r+0x13d0>
   12060:	fed48fa3          	sb	a3,-1(s1)
   12064:	ffe78493          	addi	s1,a5,-2
   12068:	1b010793          	addi	a5,sp,432
   1206c:	000b0a93          	mv	s5,s6
   12070:	00012823          	sw	zero,16(sp)
   12074:	40978b33          	sub	s6,a5,s1
   12078:	00000c13          	li	s8,0
   1207c:	00000b93          	li	s7,0
   12080:	00000c93          	li	s9,0
   12084:	8b8ff06f          	j	1113c <_vfprintf_r+0x4a4>
   12088:	00048793          	mv	a5,s1
   1208c:	f9dff06f          	j	12028 <_vfprintf_r+0x1390>
   12090:	00000a13          	li	s4,0
   12094:	1b010d93          	addi	s11,sp,432
   12098:	40047a93          	andi	s5,s0,1024
   1209c:	00900b93          	li	s7,9
   120a0:	00a00613          	li	a2,10
   120a4:	00000693          	li	a3,0
   120a8:	000c8513          	mv	a0,s9
   120ac:	000c0593          	mv	a1,s8
   120b0:	3b90a0ef          	jal	ra,1cc68 <__umoddi3>
   120b4:	03050513          	addi	a0,a0,48
   120b8:	fead8fa3          	sb	a0,-1(s11)
   120bc:	fffd8493          	addi	s1,s11,-1
   120c0:	001a0a13          	addi	s4,s4,1
   120c4:	040a8a63          	beqz	s5,12118 <_vfprintf_r+0x1480>
   120c8:	01412783          	lw	a5,20(sp)
   120cc:	0007c783          	lbu	a5,0(a5)
   120d0:	04fa1463          	bne	s4,a5,12118 <_vfprintf_r+0x1480>
   120d4:	0ff00793          	li	a5,255
   120d8:	04fa0063          	beq	s4,a5,12118 <_vfprintf_r+0x1480>
   120dc:	000c1463          	bnez	s8,120e4 <_vfprintf_r+0x144c>
   120e0:	039bfc63          	bleu	s9,s7,12118 <_vfprintf_r+0x1480>
   120e4:	03412783          	lw	a5,52(sp)
   120e8:	03c12583          	lw	a1,60(sp)
   120ec:	00000a13          	li	s4,0
   120f0:	40f484b3          	sub	s1,s1,a5
   120f4:	00078613          	mv	a2,a5
   120f8:	00048513          	mv	a0,s1
   120fc:	4d9050ef          	jal	ra,17dd4 <strncpy>
   12100:	01412783          	lw	a5,20(sp)
   12104:	0017c783          	lbu	a5,1(a5)
   12108:	00078863          	beqz	a5,12118 <_vfprintf_r+0x1480>
   1210c:	01412783          	lw	a5,20(sp)
   12110:	00178793          	addi	a5,a5,1
   12114:	00f12a23          	sw	a5,20(sp)
   12118:	000c8513          	mv	a0,s9
   1211c:	000c0593          	mv	a1,s8
   12120:	00a00613          	li	a2,10
   12124:	00000693          	li	a3,0
   12128:	5640a0ef          	jal	ra,1c68c <__udivdi3>
   1212c:	00058c13          	mv	s8,a1
   12130:	00a5e5b3          	or	a1,a1,a0
   12134:	00050c93          	mv	s9,a0
   12138:	f20588e3          	beqz	a1,12068 <_vfprintf_r+0x13d0>
   1213c:	00048d93          	mv	s11,s1
   12140:	f61ff06f          	j	120a0 <_vfprintf_r+0x1408>
   12144:	1b010493          	addi	s1,sp,432
   12148:	04412703          	lw	a4,68(sp)
   1214c:	00fcf793          	andi	a5,s9,15
   12150:	fff48493          	addi	s1,s1,-1
   12154:	00f707b3          	add	a5,a4,a5
   12158:	0007c783          	lbu	a5,0(a5)
   1215c:	004cdc93          	srli	s9,s9,0x4
   12160:	00f48023          	sb	a5,0(s1)
   12164:	01cc1793          	slli	a5,s8,0x1c
   12168:	0197ecb3          	or	s9,a5,s9
   1216c:	004c5c13          	srli	s8,s8,0x4
   12170:	018ce7b3          	or	a5,s9,s8
   12174:	fc079ae3          	bnez	a5,12148 <_vfprintf_r+0x14b0>
   12178:	ef1ff06f          	j	12068 <_vfprintf_r+0x13d0>
   1217c:	1b010493          	addi	s1,sp,432
   12180:	ee0794e3          	bnez	a5,12068 <_vfprintf_r+0x13d0>
   12184:	00177713          	andi	a4,a4,1
   12188:	ee0700e3          	beqz	a4,12068 <_vfprintf_r+0x13d0>
   1218c:	03000793          	li	a5,48
   12190:	1af107a3          	sb	a5,431(sp)
   12194:	a98ff06f          	j	1142c <_vfprintf_r+0x794>
   12198:	00c12783          	lw	a5,12(sp)
   1219c:	2e078ce3          	beqz	a5,12c94 <_vfprintf_r+0x1ffc>
   121a0:	00c14783          	lbu	a5,12(sp)
   121a4:	0c0103a3          	sb	zero,199(sp)
   121a8:	01812e23          	sw	s8,28(sp)
   121ac:	14f10623          	sb	a5,332(sp)
   121b0:	f71fe06f          	j	11120 <_vfprintf_r+0x488>
   121b4:	01060613          	addi	a2,a2,16
   121b8:	01dd2223          	sw	t4,4(s10)
   121bc:	0ec12623          	sw	a2,236(sp)
   121c0:	0ed12423          	sw	a3,232(sp)
   121c4:	02df5e63          	ble	a3,t5,12200 <_vfprintf_r+0x1568>
   121c8:	0e410613          	addi	a2,sp,228
   121cc:	00090593          	mv	a1,s2
   121d0:	00098513          	mv	a0,s3
   121d4:	05e12c23          	sw	t5,88(sp)
   121d8:	05c12a23          	sw	t3,84(sp)
   121dc:	05d12823          	sw	t4,80(sp)
   121e0:	04e12623          	sw	a4,76(sp)
   121e4:	3f9070ef          	jal	ra,19ddc <__sprint_r>
   121e8:	240514e3          	bnez	a0,12c30 <_vfprintf_r+0x1f98>
   121ec:	05812f03          	lw	t5,88(sp)
   121f0:	05412e03          	lw	t3,84(sp)
   121f4:	05012e83          	lw	t4,80(sp)
   121f8:	04c12703          	lw	a4,76(sp)
   121fc:	10c10593          	addi	a1,sp,268
   12200:	ff070713          	addi	a4,a4,-16
   12204:	00058d13          	mv	s10,a1
   12208:	f95fe06f          	j	1119c <_vfprintf_r+0x504>
   1220c:	01812583          	lw	a1,24(sp)
   12210:	01068693          	addi	a3,a3,16
   12214:	00fd2223          	sw	a5,4(s10)
   12218:	00bd2023          	sw	a1,0(s10)
   1221c:	0ed12623          	sw	a3,236(sp)
   12220:	0ee12423          	sw	a4,232(sp)
   12224:	02ee5663          	ble	a4,t3,12250 <_vfprintf_r+0x15b8>
   12228:	0e410613          	addi	a2,sp,228
   1222c:	00090593          	mv	a1,s2
   12230:	00098513          	mv	a0,s3
   12234:	05c12623          	sw	t3,76(sp)
   12238:	04f12423          	sw	a5,72(sp)
   1223c:	3a1070ef          	jal	ra,19ddc <__sprint_r>
   12240:	1e0518e3          	bnez	a0,12c30 <_vfprintf_r+0x1f98>
   12244:	04c12e03          	lw	t3,76(sp)
   12248:	04812783          	lw	a5,72(sp)
   1224c:	10c10613          	addi	a2,sp,268
   12250:	ff0d8d93          	addi	s11,s11,-16
   12254:	00060d13          	mv	s10,a2
   12258:	868ff06f          	j	112c0 <_vfprintf_r+0x628>
   1225c:	01068693          	addi	a3,a3,16
   12260:	01bd2223          	sw	s11,4(s10)
   12264:	0ed12623          	sw	a3,236(sp)
   12268:	0ee12423          	sw	a4,232(sp)
   1226c:	02e85263          	ble	a4,a6,12290 <_vfprintf_r+0x15f8>
   12270:	0e410613          	addi	a2,sp,228
   12274:	00090593          	mv	a1,s2
   12278:	00098513          	mv	a0,s3
   1227c:	05012423          	sw	a6,72(sp)
   12280:	35d070ef          	jal	ra,19ddc <__sprint_r>
   12284:	1a0516e3          	bnez	a0,12c30 <_vfprintf_r+0x1f98>
   12288:	04812803          	lw	a6,72(sp)
   1228c:	10c10613          	addi	a2,sp,268
   12290:	ff0a8a93          	addi	s5,s5,-16
   12294:	00060d13          	mv	s10,a2
   12298:	88cff06f          	j	11324 <_vfprintf_r+0x68c>
   1229c:	00c12783          	lw	a5,12(sp)
   122a0:	06500713          	li	a4,101
   122a4:	72f75463          	ble	a5,a4,129cc <_vfprintf_r+0x1d34>
   122a8:	0f012703          	lw	a4,240(sp)
   122ac:	0a010593          	addi	a1,sp,160
   122b0:	0b010513          	addi	a0,sp,176
   122b4:	0ae12823          	sw	a4,176(sp)
   122b8:	0f412703          	lw	a4,244(sp)
   122bc:	0a012023          	sw	zero,160(sp)
   122c0:	0a012223          	sw	zero,164(sp)
   122c4:	0ae12a23          	sw	a4,180(sp)
   122c8:	0f812703          	lw	a4,248(sp)
   122cc:	0a012423          	sw	zero,168(sp)
   122d0:	0a012623          	sw	zero,172(sp)
   122d4:	0ae12c23          	sw	a4,184(sp)
   122d8:	0fc12703          	lw	a4,252(sp)
   122dc:	0ae12e23          	sw	a4,188(sp)
   122e0:	5810b0ef          	jal	ra,1e060 <__eqtf2>
   122e4:	12051a63          	bnez	a0,12418 <_vfprintf_r+0x1780>
   122e8:	000227b7          	lui	a5,0x22
   122ec:	93878793          	addi	a5,a5,-1736 # 21938 <zeroes.4377+0x80>
   122f0:	00fd2023          	sw	a5,0(s10)
   122f4:	00100793          	li	a5,1
   122f8:	00fd2223          	sw	a5,4(s10)
   122fc:	0e812783          	lw	a5,232(sp)
   12300:	001d8d93          	addi	s11,s11,1
   12304:	0fb12623          	sw	s11,236(sp)
   12308:	00178793          	addi	a5,a5,1
   1230c:	0ef12423          	sw	a5,232(sp)
   12310:	00700713          	li	a4,7
   12314:	008d0d13          	addi	s10,s10,8
   12318:	00f75e63          	ble	a5,a4,12334 <_vfprintf_r+0x169c>
   1231c:	0e410613          	addi	a2,sp,228
   12320:	00090593          	mv	a1,s2
   12324:	00098513          	mv	a0,s3
   12328:	2b5070ef          	jal	ra,19ddc <__sprint_r>
   1232c:	100512e3          	bnez	a0,12c30 <_vfprintf_r+0x1f98>
   12330:	10c10d13          	addi	s10,sp,268
   12334:	0cc12783          	lw	a5,204(sp)
   12338:	0147c663          	blt	a5,s4,12344 <_vfprintf_r+0x16ac>
   1233c:	00147793          	andi	a5,s0,1
   12340:	22078263          	beqz	a5,12564 <_vfprintf_r+0x18cc>
   12344:	03812783          	lw	a5,56(sp)
   12348:	02412703          	lw	a4,36(sp)
   1234c:	008d0d13          	addi	s10,s10,8
   12350:	fefd2c23          	sw	a5,-8(s10)
   12354:	02412783          	lw	a5,36(sp)
   12358:	fefd2e23          	sw	a5,-4(s10)
   1235c:	0ec12783          	lw	a5,236(sp)
   12360:	00e787b3          	add	a5,a5,a4
   12364:	0ef12623          	sw	a5,236(sp)
   12368:	0e812783          	lw	a5,232(sp)
   1236c:	00700713          	li	a4,7
   12370:	00178793          	addi	a5,a5,1
   12374:	0ef12423          	sw	a5,232(sp)
   12378:	00f75e63          	ble	a5,a4,12394 <_vfprintf_r+0x16fc>
   1237c:	0e410613          	addi	a2,sp,228
   12380:	00090593          	mv	a1,s2
   12384:	00098513          	mv	a0,s3
   12388:	255070ef          	jal	ra,19ddc <__sprint_r>
   1238c:	0a0512e3          	bnez	a0,12c30 <_vfprintf_r+0x1f98>
   12390:	10c10d13          	addi	s10,sp,268
   12394:	fffa0493          	addi	s1,s4,-1
   12398:	1c905663          	blez	s1,12564 <_vfprintf_r+0x18cc>
   1239c:	01000a93          	li	s5,16
   123a0:	00700b93          	li	s7,7
   123a4:	01812603          	lw	a2,24(sp)
   123a8:	0e812783          	lw	a5,232(sp)
   123ac:	0ec12703          	lw	a4,236(sp)
   123b0:	00cd2023          	sw	a2,0(s10)
   123b4:	00178793          	addi	a5,a5,1
   123b8:	008d0693          	addi	a3,s10,8
   123bc:	029ac263          	blt	s5,s1,123e0 <_vfprintf_r+0x1748>
   123c0:	009d2223          	sw	s1,4(s10)
   123c4:	00e484b3          	add	s1,s1,a4
   123c8:	0e912623          	sw	s1,236(sp)
   123cc:	0ef12423          	sw	a5,232(sp)
   123d0:	00700713          	li	a4,7
   123d4:	00068d13          	mv	s10,a3
   123d8:	18f75663          	ble	a5,a4,12564 <_vfprintf_r+0x18cc>
   123dc:	fd5fe06f          	j	113b0 <_vfprintf_r+0x718>
   123e0:	01070713          	addi	a4,a4,16
   123e4:	015d2223          	sw	s5,4(s10)
   123e8:	0ee12623          	sw	a4,236(sp)
   123ec:	0ef12423          	sw	a5,232(sp)
   123f0:	00fbde63          	ble	a5,s7,1240c <_vfprintf_r+0x1774>
   123f4:	0e410613          	addi	a2,sp,228
   123f8:	00090593          	mv	a1,s2
   123fc:	00098513          	mv	a0,s3
   12400:	1dd070ef          	jal	ra,19ddc <__sprint_r>
   12404:	020516e3          	bnez	a0,12c30 <_vfprintf_r+0x1f98>
   12408:	10c10693          	addi	a3,sp,268
   1240c:	ff048493          	addi	s1,s1,-16
   12410:	00068d13          	mv	s10,a3
   12414:	f91ff06f          	j	123a4 <_vfprintf_r+0x170c>
   12418:	0cc12703          	lw	a4,204(sp)
   1241c:	1ce04a63          	bgtz	a4,125f0 <_vfprintf_r+0x1958>
   12420:	000227b7          	lui	a5,0x22
   12424:	93878793          	addi	a5,a5,-1736 # 21938 <zeroes.4377+0x80>
   12428:	00fd2023          	sw	a5,0(s10)
   1242c:	00100793          	li	a5,1
   12430:	00fd2223          	sw	a5,4(s10)
   12434:	0e812783          	lw	a5,232(sp)
   12438:	001d8d93          	addi	s11,s11,1
   1243c:	0fb12623          	sw	s11,236(sp)
   12440:	00178793          	addi	a5,a5,1
   12444:	0ef12423          	sw	a5,232(sp)
   12448:	00700713          	li	a4,7
   1244c:	008d0d13          	addi	s10,s10,8
   12450:	00f75e63          	ble	a5,a4,1246c <_vfprintf_r+0x17d4>
   12454:	0e410613          	addi	a2,sp,228
   12458:	00090593          	mv	a1,s2
   1245c:	00098513          	mv	a0,s3
   12460:	17d070ef          	jal	ra,19ddc <__sprint_r>
   12464:	7c051663          	bnez	a0,12c30 <_vfprintf_r+0x1f98>
   12468:	10c10d13          	addi	s10,sp,268
   1246c:	0cc12783          	lw	a5,204(sp)
   12470:	00079863          	bnez	a5,12480 <_vfprintf_r+0x17e8>
   12474:	000a1663          	bnez	s4,12480 <_vfprintf_r+0x17e8>
   12478:	00147793          	andi	a5,s0,1
   1247c:	0e078463          	beqz	a5,12564 <_vfprintf_r+0x18cc>
   12480:	03812783          	lw	a5,56(sp)
   12484:	02412703          	lw	a4,36(sp)
   12488:	008d0893          	addi	a7,s10,8
   1248c:	00fd2023          	sw	a5,0(s10)
   12490:	02412783          	lw	a5,36(sp)
   12494:	00fd2223          	sw	a5,4(s10)
   12498:	0ec12783          	lw	a5,236(sp)
   1249c:	00e787b3          	add	a5,a5,a4
   124a0:	0ef12623          	sw	a5,236(sp)
   124a4:	0e812783          	lw	a5,232(sp)
   124a8:	00700713          	li	a4,7
   124ac:	00178793          	addi	a5,a5,1
   124b0:	0ef12423          	sw	a5,232(sp)
   124b4:	00f75e63          	ble	a5,a4,124d0 <_vfprintf_r+0x1838>
   124b8:	0e410613          	addi	a2,sp,228
   124bc:	00090593          	mv	a1,s2
   124c0:	00098513          	mv	a0,s3
   124c4:	119070ef          	jal	ra,19ddc <__sprint_r>
   124c8:	76051463          	bnez	a0,12c30 <_vfprintf_r+0x1f98>
   124cc:	10c10893          	addi	a7,sp,268
   124d0:	0cc12a83          	lw	s5,204(sp)
   124d4:	060ad063          	bgez	s5,12534 <_vfprintf_r+0x189c>
   124d8:	41500ab3          	neg	s5,s5
   124dc:	00088713          	mv	a4,a7
   124e0:	01000b93          	li	s7,16
   124e4:	00700c13          	li	s8,7
   124e8:	01812603          	lw	a2,24(sp)
   124ec:	0e812783          	lw	a5,232(sp)
   124f0:	0ec12683          	lw	a3,236(sp)
   124f4:	00c72023          	sw	a2,0(a4)
   124f8:	00178793          	addi	a5,a5,1
   124fc:	00888893          	addi	a7,a7,8
   12500:	0b5bcc63          	blt	s7,s5,125b8 <_vfprintf_r+0x1920>
   12504:	01572223          	sw	s5,4(a4)
   12508:	00da8ab3          	add	s5,s5,a3
   1250c:	0f512623          	sw	s5,236(sp)
   12510:	0ef12423          	sw	a5,232(sp)
   12514:	00700713          	li	a4,7
   12518:	00f75e63          	ble	a5,a4,12534 <_vfprintf_r+0x189c>
   1251c:	0e410613          	addi	a2,sp,228
   12520:	00090593          	mv	a1,s2
   12524:	00098513          	mv	a0,s3
   12528:	0b5070ef          	jal	ra,19ddc <__sprint_r>
   1252c:	70051263          	bnez	a0,12c30 <_vfprintf_r+0x1f98>
   12530:	10c10893          	addi	a7,sp,268
   12534:	0ec12783          	lw	a5,236(sp)
   12538:	0098a023          	sw	s1,0(a7)
   1253c:	0148a223          	sw	s4,4(a7)
   12540:	014787b3          	add	a5,a5,s4
   12544:	0ef12623          	sw	a5,236(sp)
   12548:	0e812783          	lw	a5,232(sp)
   1254c:	00700713          	li	a4,7
   12550:	00888d13          	addi	s10,a7,8
   12554:	00178793          	addi	a5,a5,1
   12558:	0ef12423          	sw	a5,232(sp)
   1255c:	00f75463          	ble	a5,a4,12564 <_vfprintf_r+0x18cc>
   12560:	e51fe06f          	j	113b0 <_vfprintf_r+0x718>
   12564:	00447413          	andi	s0,s0,4
   12568:	66041463          	bnez	s0,12bd0 <_vfprintf_r+0x1f38>
   1256c:	02c12d03          	lw	s10,44(sp)
   12570:	03012783          	lw	a5,48(sp)
   12574:	00fd5463          	ble	a5,s10,1257c <_vfprintf_r+0x18e4>
   12578:	00078d13          	mv	s10,a5
   1257c:	02812783          	lw	a5,40(sp)
   12580:	01a787b3          	add	a5,a5,s10
   12584:	02f12423          	sw	a5,40(sp)
   12588:	0ec12783          	lw	a5,236(sp)
   1258c:	00078c63          	beqz	a5,125a4 <_vfprintf_r+0x190c>
   12590:	0e410613          	addi	a2,sp,228
   12594:	00090593          	mv	a1,s2
   12598:	00098513          	mv	a0,s3
   1259c:	041070ef          	jal	ra,19ddc <__sprint_r>
   125a0:	68051863          	bnez	a0,12c30 <_vfprintf_r+0x1f98>
   125a4:	01012783          	lw	a5,16(sp)
   125a8:	0e012423          	sw	zero,232(sp)
   125ac:	6c079c63          	bnez	a5,12c84 <_vfprintf_r+0x1fec>
   125b0:	10c10d13          	addi	s10,sp,268
   125b4:	841ff06f          	j	11df4 <_vfprintf_r+0x115c>
   125b8:	01068693          	addi	a3,a3,16
   125bc:	01772223          	sw	s7,4(a4)
   125c0:	0ed12623          	sw	a3,236(sp)
   125c4:	0ef12423          	sw	a5,232(sp)
   125c8:	00fc5e63          	ble	a5,s8,125e4 <_vfprintf_r+0x194c>
   125cc:	0e410613          	addi	a2,sp,228
   125d0:	00090593          	mv	a1,s2
   125d4:	00098513          	mv	a0,s3
   125d8:	005070ef          	jal	ra,19ddc <__sprint_r>
   125dc:	64051a63          	bnez	a0,12c30 <_vfprintf_r+0x1f98>
   125e0:	10c10893          	addi	a7,sp,268
   125e4:	ff0a8a93          	addi	s5,s5,-16
   125e8:	00088713          	mv	a4,a7
   125ec:	efdff06f          	j	124e8 <_vfprintf_r+0x1850>
   125f0:	000c8a93          	mv	s5,s9
   125f4:	019a5463          	ble	s9,s4,125fc <_vfprintf_r+0x1964>
   125f8:	000a0a93          	mv	s5,s4
   125fc:	05505263          	blez	s5,12640 <_vfprintf_r+0x19a8>
   12600:	0e812703          	lw	a4,232(sp)
   12604:	01ba8db3          	add	s11,s5,s11
   12608:	009d2023          	sw	s1,0(s10)
   1260c:	00170713          	addi	a4,a4,1
   12610:	015d2223          	sw	s5,4(s10)
   12614:	0fb12623          	sw	s11,236(sp)
   12618:	0ee12423          	sw	a4,232(sp)
   1261c:	00700693          	li	a3,7
   12620:	008d0d13          	addi	s10,s10,8
   12624:	00e6de63          	ble	a4,a3,12640 <_vfprintf_r+0x19a8>
   12628:	0e410613          	addi	a2,sp,228
   1262c:	00090593          	mv	a1,s2
   12630:	00098513          	mv	a0,s3
   12634:	7a8070ef          	jal	ra,19ddc <__sprint_r>
   12638:	5e051c63          	bnez	a0,12c30 <_vfprintf_r+0x1f98>
   1263c:	10c10d13          	addi	s10,sp,268
   12640:	000ad463          	bgez	s5,12648 <_vfprintf_r+0x19b0>
   12644:	00000a93          	li	s5,0
   12648:	415c8ab3          	sub	s5,s9,s5
   1264c:	05505e63          	blez	s5,126a8 <_vfprintf_r+0x1a10>
   12650:	01000b13          	li	s6,16
   12654:	00700d93          	li	s11,7
   12658:	01812783          	lw	a5,24(sp)
   1265c:	0e812703          	lw	a4,232(sp)
   12660:	0ec12683          	lw	a3,236(sp)
   12664:	00fd2023          	sw	a5,0(s10)
   12668:	00170713          	addi	a4,a4,1
   1266c:	008d0613          	addi	a2,s10,8
   12670:	195b4c63          	blt	s6,s5,12808 <_vfprintf_r+0x1b70>
   12674:	015d2223          	sw	s5,4(s10)
   12678:	00da8ab3          	add	s5,s5,a3
   1267c:	0f512623          	sw	s5,236(sp)
   12680:	0ee12423          	sw	a4,232(sp)
   12684:	00700693          	li	a3,7
   12688:	00060d13          	mv	s10,a2
   1268c:	00e6de63          	ble	a4,a3,126a8 <_vfprintf_r+0x1a10>
   12690:	0e410613          	addi	a2,sp,228
   12694:	00090593          	mv	a1,s2
   12698:	00098513          	mv	a0,s3
   1269c:	740070ef          	jal	ra,19ddc <__sprint_r>
   126a0:	58051863          	bnez	a0,12c30 <_vfprintf_r+0x1f98>
   126a4:	10c10d13          	addi	s10,sp,268
   126a8:	40047793          	andi	a5,s0,1024
   126ac:	01948ab3          	add	s5,s1,s9
   126b0:	02078063          	beqz	a5,126d0 <_vfprintf_r+0x1a38>
   126b4:	00700b13          	li	s6,7
   126b8:	01448db3          	add	s11,s1,s4
   126bc:	180b9263          	bnez	s7,12840 <_vfprintf_r+0x1ba8>
   126c0:	180c1263          	bnez	s8,12844 <_vfprintf_r+0x1bac>
   126c4:	014487b3          	add	a5,s1,s4
   126c8:	0157f463          	bleu	s5,a5,126d0 <_vfprintf_r+0x1a38>
   126cc:	00078a93          	mv	s5,a5
   126d0:	0cc12783          	lw	a5,204(sp)
   126d4:	0147c663          	blt	a5,s4,126e0 <_vfprintf_r+0x1a48>
   126d8:	00147793          	andi	a5,s0,1
   126dc:	04078a63          	beqz	a5,12730 <_vfprintf_r+0x1a98>
   126e0:	03812783          	lw	a5,56(sp)
   126e4:	02412703          	lw	a4,36(sp)
   126e8:	008d0d13          	addi	s10,s10,8
   126ec:	fefd2c23          	sw	a5,-8(s10)
   126f0:	02412783          	lw	a5,36(sp)
   126f4:	fefd2e23          	sw	a5,-4(s10)
   126f8:	0ec12783          	lw	a5,236(sp)
   126fc:	00e787b3          	add	a5,a5,a4
   12700:	0ef12623          	sw	a5,236(sp)
   12704:	0e812783          	lw	a5,232(sp)
   12708:	00700713          	li	a4,7
   1270c:	00178793          	addi	a5,a5,1
   12710:	0ef12423          	sw	a5,232(sp)
   12714:	00f75e63          	ble	a5,a4,12730 <_vfprintf_r+0x1a98>
   12718:	0e410613          	addi	a2,sp,228
   1271c:	00090593          	mv	a1,s2
   12720:	00098513          	mv	a0,s3
   12724:	6b8070ef          	jal	ra,19ddc <__sprint_r>
   12728:	50051463          	bnez	a0,12c30 <_vfprintf_r+0x1f98>
   1272c:	10c10d13          	addi	s10,sp,268
   12730:	014484b3          	add	s1,s1,s4
   12734:	415487b3          	sub	a5,s1,s5
   12738:	0cc12483          	lw	s1,204(sp)
   1273c:	409a04b3          	sub	s1,s4,s1
   12740:	0097d463          	ble	s1,a5,12748 <_vfprintf_r+0x1ab0>
   12744:	00078493          	mv	s1,a5
   12748:	04905463          	blez	s1,12790 <_vfprintf_r+0x1af8>
   1274c:	0ec12783          	lw	a5,236(sp)
   12750:	015d2023          	sw	s5,0(s10)
   12754:	009d2223          	sw	s1,4(s10)
   12758:	00f487b3          	add	a5,s1,a5
   1275c:	0ef12623          	sw	a5,236(sp)
   12760:	0e812783          	lw	a5,232(sp)
   12764:	00700713          	li	a4,7
   12768:	008d0d13          	addi	s10,s10,8
   1276c:	00178793          	addi	a5,a5,1
   12770:	0ef12423          	sw	a5,232(sp)
   12774:	00f75e63          	ble	a5,a4,12790 <_vfprintf_r+0x1af8>
   12778:	0e410613          	addi	a2,sp,228
   1277c:	00090593          	mv	a1,s2
   12780:	00098513          	mv	a0,s3
   12784:	658070ef          	jal	ra,19ddc <__sprint_r>
   12788:	4a051463          	bnez	a0,12c30 <_vfprintf_r+0x1f98>
   1278c:	10c10d13          	addi	s10,sp,268
   12790:	00048793          	mv	a5,s1
   12794:	0004d463          	bgez	s1,1279c <_vfprintf_r+0x1b04>
   12798:	00000793          	li	a5,0
   1279c:	0cc12483          	lw	s1,204(sp)
   127a0:	409a04b3          	sub	s1,s4,s1
   127a4:	40f484b3          	sub	s1,s1,a5
   127a8:	da905ee3          	blez	s1,12564 <_vfprintf_r+0x18cc>
   127ac:	01000a93          	li	s5,16
   127b0:	00700b93          	li	s7,7
   127b4:	01812603          	lw	a2,24(sp)
   127b8:	0e812783          	lw	a5,232(sp)
   127bc:	0ec12703          	lw	a4,236(sp)
   127c0:	00cd2023          	sw	a2,0(s10)
   127c4:	00178793          	addi	a5,a5,1
   127c8:	008d0693          	addi	a3,s10,8
   127cc:	be9adae3          	ble	s1,s5,123c0 <_vfprintf_r+0x1728>
   127d0:	01070713          	addi	a4,a4,16
   127d4:	015d2223          	sw	s5,4(s10)
   127d8:	0ee12623          	sw	a4,236(sp)
   127dc:	0ef12423          	sw	a5,232(sp)
   127e0:	00fbde63          	ble	a5,s7,127fc <_vfprintf_r+0x1b64>
   127e4:	0e410613          	addi	a2,sp,228
   127e8:	00090593          	mv	a1,s2
   127ec:	00098513          	mv	a0,s3
   127f0:	5ec070ef          	jal	ra,19ddc <__sprint_r>
   127f4:	42051e63          	bnez	a0,12c30 <_vfprintf_r+0x1f98>
   127f8:	10c10693          	addi	a3,sp,268
   127fc:	ff048493          	addi	s1,s1,-16
   12800:	00068d13          	mv	s10,a3
   12804:	fb1ff06f          	j	127b4 <_vfprintf_r+0x1b1c>
   12808:	01068693          	addi	a3,a3,16
   1280c:	016d2223          	sw	s6,4(s10)
   12810:	0ed12623          	sw	a3,236(sp)
   12814:	0ee12423          	sw	a4,232(sp)
   12818:	00edde63          	ble	a4,s11,12834 <_vfprintf_r+0x1b9c>
   1281c:	0e410613          	addi	a2,sp,228
   12820:	00090593          	mv	a1,s2
   12824:	00098513          	mv	a0,s3
   12828:	5b4070ef          	jal	ra,19ddc <__sprint_r>
   1282c:	40051263          	bnez	a0,12c30 <_vfprintf_r+0x1f98>
   12830:	10c10613          	addi	a2,sp,268
   12834:	ff0a8a93          	addi	s5,s5,-16
   12838:	00060d13          	mv	s10,a2
   1283c:	e1dff06f          	j	12658 <_vfprintf_r+0x19c0>
   12840:	0e0c0263          	beqz	s8,12924 <_vfprintf_r+0x1c8c>
   12844:	fffc0c13          	addi	s8,s8,-1
   12848:	03c12783          	lw	a5,60(sp)
   1284c:	03412703          	lw	a4,52(sp)
   12850:	008d0d13          	addi	s10,s10,8
   12854:	fefd2c23          	sw	a5,-8(s10)
   12858:	03412783          	lw	a5,52(sp)
   1285c:	fefd2e23          	sw	a5,-4(s10)
   12860:	0ec12783          	lw	a5,236(sp)
   12864:	00e787b3          	add	a5,a5,a4
   12868:	0ef12623          	sw	a5,236(sp)
   1286c:	0e812783          	lw	a5,232(sp)
   12870:	00178793          	addi	a5,a5,1
   12874:	0ef12423          	sw	a5,232(sp)
   12878:	00fb5e63          	ble	a5,s6,12894 <_vfprintf_r+0x1bfc>
   1287c:	0e410613          	addi	a2,sp,228
   12880:	00090593          	mv	a1,s2
   12884:	00098513          	mv	a0,s3
   12888:	554070ef          	jal	ra,19ddc <__sprint_r>
   1288c:	3a051263          	bnez	a0,12c30 <_vfprintf_r+0x1f98>
   12890:	10c10d13          	addi	s10,sp,268
   12894:	01412783          	lw	a5,20(sp)
   12898:	415d8733          	sub	a4,s11,s5
   1289c:	0007c783          	lbu	a5,0(a5)
   128a0:	00f75463          	ble	a5,a4,128a8 <_vfprintf_r+0x1c10>
   128a4:	00070793          	mv	a5,a4
   128a8:	04f05663          	blez	a5,128f4 <_vfprintf_r+0x1c5c>
   128ac:	0ec12703          	lw	a4,236(sp)
   128b0:	015d2023          	sw	s5,0(s10)
   128b4:	00fd2223          	sw	a5,4(s10)
   128b8:	00e78733          	add	a4,a5,a4
   128bc:	0ee12623          	sw	a4,236(sp)
   128c0:	0e812703          	lw	a4,232(sp)
   128c4:	008d0d13          	addi	s10,s10,8
   128c8:	00170713          	addi	a4,a4,1
   128cc:	0ee12423          	sw	a4,232(sp)
   128d0:	02eb5263          	ble	a4,s6,128f4 <_vfprintf_r+0x1c5c>
   128d4:	0e410613          	addi	a2,sp,228
   128d8:	00090593          	mv	a1,s2
   128dc:	00098513          	mv	a0,s3
   128e0:	00f12623          	sw	a5,12(sp)
   128e4:	4f8070ef          	jal	ra,19ddc <__sprint_r>
   128e8:	34051463          	bnez	a0,12c30 <_vfprintf_r+0x1f98>
   128ec:	00c12783          	lw	a5,12(sp)
   128f0:	10c10d13          	addi	s10,sp,268
   128f4:	00078713          	mv	a4,a5
   128f8:	0007d463          	bgez	a5,12900 <_vfprintf_r+0x1c68>
   128fc:	00000713          	li	a4,0
   12900:	01412783          	lw	a5,20(sp)
   12904:	01000813          	li	a6,16
   12908:	0007c783          	lbu	a5,0(a5)
   1290c:	40e787b3          	sub	a5,a5,a4
   12910:	06f04663          	bgtz	a5,1297c <_vfprintf_r+0x1ce4>
   12914:	01412783          	lw	a5,20(sp)
   12918:	0007c783          	lbu	a5,0(a5)
   1291c:	00fa8ab3          	add	s5,s5,a5
   12920:	d9dff06f          	j	126bc <_vfprintf_r+0x1a24>
   12924:	01412783          	lw	a5,20(sp)
   12928:	fffb8b93          	addi	s7,s7,-1
   1292c:	fff78793          	addi	a5,a5,-1
   12930:	00f12a23          	sw	a5,20(sp)
   12934:	f15ff06f          	j	12848 <_vfprintf_r+0x1bb0>
   12938:	01068693          	addi	a3,a3,16
   1293c:	010d2223          	sw	a6,4(s10)
   12940:	0ed12623          	sw	a3,236(sp)
   12944:	0ee12423          	sw	a4,232(sp)
   12948:	02eb5663          	ble	a4,s6,12974 <_vfprintf_r+0x1cdc>
   1294c:	0e410613          	addi	a2,sp,228
   12950:	00090593          	mv	a1,s2
   12954:	00098513          	mv	a0,s3
   12958:	05012423          	sw	a6,72(sp)
   1295c:	00f12623          	sw	a5,12(sp)
   12960:	47c070ef          	jal	ra,19ddc <__sprint_r>
   12964:	2c051663          	bnez	a0,12c30 <_vfprintf_r+0x1f98>
   12968:	04812803          	lw	a6,72(sp)
   1296c:	00c12783          	lw	a5,12(sp)
   12970:	10c10613          	addi	a2,sp,268
   12974:	ff078793          	addi	a5,a5,-16
   12978:	00060d13          	mv	s10,a2
   1297c:	01812583          	lw	a1,24(sp)
   12980:	0e812703          	lw	a4,232(sp)
   12984:	0ec12683          	lw	a3,236(sp)
   12988:	00bd2023          	sw	a1,0(s10)
   1298c:	00170713          	addi	a4,a4,1
   12990:	008d0613          	addi	a2,s10,8
   12994:	faf842e3          	blt	a6,a5,12938 <_vfprintf_r+0x1ca0>
   12998:	00fd2223          	sw	a5,4(s10)
   1299c:	00d787b3          	add	a5,a5,a3
   129a0:	0ef12623          	sw	a5,236(sp)
   129a4:	0ee12423          	sw	a4,232(sp)
   129a8:	00060d13          	mv	s10,a2
   129ac:	f6eb54e3          	ble	a4,s6,12914 <_vfprintf_r+0x1c7c>
   129b0:	0e410613          	addi	a2,sp,228
   129b4:	00090593          	mv	a1,s2
   129b8:	00098513          	mv	a0,s3
   129bc:	420070ef          	jal	ra,19ddc <__sprint_r>
   129c0:	26051863          	bnez	a0,12c30 <_vfprintf_r+0x1f98>
   129c4:	10c10d13          	addi	s10,sp,268
   129c8:	f4dff06f          	j	12914 <_vfprintf_r+0x1c7c>
   129cc:	0e812783          	lw	a5,232(sp)
   129d0:	00100713          	li	a4,1
   129d4:	009d2023          	sw	s1,0(s10)
   129d8:	001d8d93          	addi	s11,s11,1
   129dc:	00178793          	addi	a5,a5,1
   129e0:	008d0b93          	addi	s7,s10,8
   129e4:	01474663          	blt	a4,s4,129f0 <_vfprintf_r+0x1d58>
   129e8:	00147693          	andi	a3,s0,1
   129ec:	1c068663          	beqz	a3,12bb8 <_vfprintf_r+0x1f20>
   129f0:	00100713          	li	a4,1
   129f4:	00ed2223          	sw	a4,4(s10)
   129f8:	0fb12623          	sw	s11,236(sp)
   129fc:	0ef12423          	sw	a5,232(sp)
   12a00:	00700713          	li	a4,7
   12a04:	00f75e63          	ble	a5,a4,12a20 <_vfprintf_r+0x1d88>
   12a08:	0e410613          	addi	a2,sp,228
   12a0c:	00090593          	mv	a1,s2
   12a10:	00098513          	mv	a0,s3
   12a14:	3c8070ef          	jal	ra,19ddc <__sprint_r>
   12a18:	20051c63          	bnez	a0,12c30 <_vfprintf_r+0x1f98>
   12a1c:	10c10b93          	addi	s7,sp,268
   12a20:	03812783          	lw	a5,56(sp)
   12a24:	02412703          	lw	a4,36(sp)
   12a28:	008b8b93          	addi	s7,s7,8
   12a2c:	fefbac23          	sw	a5,-8(s7)
   12a30:	02412783          	lw	a5,36(sp)
   12a34:	fefbae23          	sw	a5,-4(s7)
   12a38:	0ec12783          	lw	a5,236(sp)
   12a3c:	00e787b3          	add	a5,a5,a4
   12a40:	0ef12623          	sw	a5,236(sp)
   12a44:	0e812783          	lw	a5,232(sp)
   12a48:	00700713          	li	a4,7
   12a4c:	00178793          	addi	a5,a5,1
   12a50:	0ef12423          	sw	a5,232(sp)
   12a54:	00f75e63          	ble	a5,a4,12a70 <_vfprintf_r+0x1dd8>
   12a58:	0e410613          	addi	a2,sp,228
   12a5c:	00090593          	mv	a1,s2
   12a60:	00098513          	mv	a0,s3
   12a64:	378070ef          	jal	ra,19ddc <__sprint_r>
   12a68:	1c051463          	bnez	a0,12c30 <_vfprintf_r+0x1f98>
   12a6c:	10c10b93          	addi	s7,sp,268
   12a70:	0f012783          	lw	a5,240(sp)
   12a74:	0a010593          	addi	a1,sp,160
   12a78:	0b010513          	addi	a0,sp,176
   12a7c:	0af12823          	sw	a5,176(sp)
   12a80:	0f412783          	lw	a5,244(sp)
   12a84:	fffa0a93          	addi	s5,s4,-1
   12a88:	0a012023          	sw	zero,160(sp)
   12a8c:	0af12a23          	sw	a5,180(sp)
   12a90:	0f812783          	lw	a5,248(sp)
   12a94:	0a012223          	sw	zero,164(sp)
   12a98:	0a012423          	sw	zero,168(sp)
   12a9c:	0af12c23          	sw	a5,184(sp)
   12aa0:	0fc12783          	lw	a5,252(sp)
   12aa4:	0a012623          	sw	zero,172(sp)
   12aa8:	0af12e23          	sw	a5,188(sp)
   12aac:	5b40b0ef          	jal	ra,1e060 <__eqtf2>
   12ab0:	08050663          	beqz	a0,12b3c <_vfprintf_r+0x1ea4>
   12ab4:	0ec12783          	lw	a5,236(sp)
   12ab8:	0e812703          	lw	a4,232(sp)
   12abc:	00148493          	addi	s1,s1,1
   12ac0:	fff78793          	addi	a5,a5,-1
   12ac4:	014787b3          	add	a5,a5,s4
   12ac8:	00170713          	addi	a4,a4,1
   12acc:	009ba023          	sw	s1,0(s7)
   12ad0:	015ba223          	sw	s5,4(s7)
   12ad4:	0ef12623          	sw	a5,236(sp)
   12ad8:	0ee12423          	sw	a4,232(sp)
   12adc:	00700793          	li	a5,7
   12ae0:	008b8b93          	addi	s7,s7,8
   12ae4:	00e7de63          	ble	a4,a5,12b00 <_vfprintf_r+0x1e68>
   12ae8:	0e410613          	addi	a2,sp,228
   12aec:	00090593          	mv	a1,s2
   12af0:	00098513          	mv	a0,s3
   12af4:	2e8070ef          	jal	ra,19ddc <__sprint_r>
   12af8:	12051c63          	bnez	a0,12c30 <_vfprintf_r+0x1f98>
   12afc:	10c10b93          	addi	s7,sp,268
   12b00:	0d410793          	addi	a5,sp,212
   12b04:	00fba023          	sw	a5,0(s7)
   12b08:	04012783          	lw	a5,64(sp)
   12b0c:	04012703          	lw	a4,64(sp)
   12b10:	008b8d13          	addi	s10,s7,8
   12b14:	00fba223          	sw	a5,4(s7)
   12b18:	0ec12783          	lw	a5,236(sp)
   12b1c:	00e787b3          	add	a5,a5,a4
   12b20:	0ef12623          	sw	a5,236(sp)
   12b24:	0e812783          	lw	a5,232(sp)
   12b28:	00700713          	li	a4,7
   12b2c:	00178793          	addi	a5,a5,1
   12b30:	0ef12423          	sw	a5,232(sp)
   12b34:	a2f758e3          	ble	a5,a4,12564 <_vfprintf_r+0x18cc>
   12b38:	879fe06f          	j	113b0 <_vfprintf_r+0x718>
   12b3c:	fd5052e3          	blez	s5,12b00 <_vfprintf_r+0x1e68>
   12b40:	01000493          	li	s1,16
   12b44:	00700c13          	li	s8,7
   12b48:	01812603          	lw	a2,24(sp)
   12b4c:	0e812703          	lw	a4,232(sp)
   12b50:	0ec12783          	lw	a5,236(sp)
   12b54:	00cba023          	sw	a2,0(s7)
   12b58:	00170713          	addi	a4,a4,1
   12b5c:	008b8693          	addi	a3,s7,8
   12b60:	0354c063          	blt	s1,s5,12b80 <_vfprintf_r+0x1ee8>
   12b64:	00fa87b3          	add	a5,s5,a5
   12b68:	015ba223          	sw	s5,4(s7)
   12b6c:	0ef12623          	sw	a5,236(sp)
   12b70:	0ee12423          	sw	a4,232(sp)
   12b74:	00700793          	li	a5,7
   12b78:	00068b93          	mv	s7,a3
   12b7c:	f69ff06f          	j	12ae4 <_vfprintf_r+0x1e4c>
   12b80:	01078793          	addi	a5,a5,16
   12b84:	009ba223          	sw	s1,4(s7)
   12b88:	0ef12623          	sw	a5,236(sp)
   12b8c:	0ee12423          	sw	a4,232(sp)
   12b90:	00ec5e63          	ble	a4,s8,12bac <_vfprintf_r+0x1f14>
   12b94:	0e410613          	addi	a2,sp,228
   12b98:	00090593          	mv	a1,s2
   12b9c:	00098513          	mv	a0,s3
   12ba0:	23c070ef          	jal	ra,19ddc <__sprint_r>
   12ba4:	08051663          	bnez	a0,12c30 <_vfprintf_r+0x1f98>
   12ba8:	10c10693          	addi	a3,sp,268
   12bac:	ff0a8a93          	addi	s5,s5,-16
   12bb0:	00068b93          	mv	s7,a3
   12bb4:	f95ff06f          	j	12b48 <_vfprintf_r+0x1eb0>
   12bb8:	00ed2223          	sw	a4,4(s10)
   12bbc:	0fb12623          	sw	s11,236(sp)
   12bc0:	0ef12423          	sw	a5,232(sp)
   12bc4:	00700713          	li	a4,7
   12bc8:	f2f75ce3          	ble	a5,a4,12b00 <_vfprintf_r+0x1e68>
   12bcc:	f1dff06f          	j	12ae8 <_vfprintf_r+0x1e50>
   12bd0:	02c12783          	lw	a5,44(sp)
   12bd4:	03012703          	lw	a4,48(sp)
   12bd8:	40e78433          	sub	s0,a5,a4
   12bdc:	988058e3          	blez	s0,1256c <_vfprintf_r+0x18d4>
   12be0:	000224b7          	lui	s1,0x22
   12be4:	01000a93          	li	s5,16
   12be8:	8a848493          	addi	s1,s1,-1880 # 218a8 <blanks.4376>
   12bec:	00700b93          	li	s7,7
   12bf0:	0e812783          	lw	a5,232(sp)
   12bf4:	009d2023          	sw	s1,0(s10)
   12bf8:	0ec12703          	lw	a4,236(sp)
   12bfc:	00178793          	addi	a5,a5,1
   12c00:	048ac663          	blt	s5,s0,12c4c <_vfprintf_r+0x1fb4>
   12c04:	008d2223          	sw	s0,4(s10)
   12c08:	00e40433          	add	s0,s0,a4
   12c0c:	0e812623          	sw	s0,236(sp)
   12c10:	0ef12423          	sw	a5,232(sp)
   12c14:	00700713          	li	a4,7
   12c18:	94f75ae3          	ble	a5,a4,1256c <_vfprintf_r+0x18d4>
   12c1c:	0e410613          	addi	a2,sp,228
   12c20:	00090593          	mv	a1,s2
   12c24:	00098513          	mv	a0,s3
   12c28:	1b4070ef          	jal	ra,19ddc <__sprint_r>
   12c2c:	940500e3          	beqz	a0,1256c <_vfprintf_r+0x18d4>
   12c30:	01012783          	lw	a5,16(sp)
   12c34:	00079463          	bnez	a5,12c3c <_vfprintf_r+0x1fa4>
   12c38:	9d1fe06f          	j	11608 <_vfprintf_r+0x970>
   12c3c:	00078593          	mv	a1,a5
   12c40:	00098513          	mv	a0,s3
   12c44:	24d000ef          	jal	ra,13690 <_free_r>
   12c48:	9c1fe06f          	j	11608 <_vfprintf_r+0x970>
   12c4c:	01070713          	addi	a4,a4,16
   12c50:	015d2223          	sw	s5,4(s10)
   12c54:	0ee12623          	sw	a4,236(sp)
   12c58:	0ef12423          	sw	a5,232(sp)
   12c5c:	008d0d13          	addi	s10,s10,8
   12c60:	00fbde63          	ble	a5,s7,12c7c <_vfprintf_r+0x1fe4>
   12c64:	0e410613          	addi	a2,sp,228
   12c68:	00090593          	mv	a1,s2
   12c6c:	00098513          	mv	a0,s3
   12c70:	16c070ef          	jal	ra,19ddc <__sprint_r>
   12c74:	fa051ee3          	bnez	a0,12c30 <_vfprintf_r+0x1f98>
   12c78:	10c10d13          	addi	s10,sp,268
   12c7c:	ff040413          	addi	s0,s0,-16
   12c80:	f71ff06f          	j	12bf0 <_vfprintf_r+0x1f58>
   12c84:	01012583          	lw	a1,16(sp)
   12c88:	00098513          	mv	a0,s3
   12c8c:	205000ef          	jal	ra,13690 <_free_r>
   12c90:	921ff06f          	j	125b0 <_vfprintf_r+0x1918>
   12c94:	0ec12783          	lw	a5,236(sp)
   12c98:	00079463          	bnez	a5,12ca0 <_vfprintf_r+0x2008>
   12c9c:	96dfe06f          	j	11608 <_vfprintf_r+0x970>
   12ca0:	0e410613          	addi	a2,sp,228
   12ca4:	00090593          	mv	a1,s2
   12ca8:	00098513          	mv	a0,s3
   12cac:	130070ef          	jal	ra,19ddc <__sprint_r>
   12cb0:	959fe06f          	j	11608 <_vfprintf_r+0x970>

00012cb4 <vfprintf>:
   12cb4:	00060693          	mv	a3,a2
   12cb8:	00058613          	mv	a2,a1
   12cbc:	00050593          	mv	a1,a0
   12cc0:	8201a503          	lw	a0,-2016(gp) # 23f80 <_impure_ptr>
   12cc4:	fd5fd06f          	j	10c98 <_vfprintf_r>

00012cc8 <__sbprintf>:
   12cc8:	00c5d783          	lhu	a5,12(a1)
   12ccc:	b8010113          	addi	sp,sp,-1152
   12cd0:	46812c23          	sw	s0,1144(sp)
   12cd4:	ffd7f793          	andi	a5,a5,-3
   12cd8:	00f11a23          	sh	a5,20(sp)
   12cdc:	0645a783          	lw	a5,100(a1)
   12ce0:	00058413          	mv	s0,a1
   12ce4:	46912a23          	sw	s1,1140(sp)
   12ce8:	06f12623          	sw	a5,108(sp)
   12cec:	00e5d783          	lhu	a5,14(a1)
   12cf0:	47212823          	sw	s2,1136(sp)
   12cf4:	46112e23          	sw	ra,1148(sp)
   12cf8:	00f11b23          	sh	a5,22(sp)
   12cfc:	01c5a783          	lw	a5,28(a1)
   12d00:	00050913          	mv	s2,a0
   12d04:	02012023          	sw	zero,32(sp)
   12d08:	02f12223          	sw	a5,36(sp)
   12d0c:	0245a783          	lw	a5,36(a1)
   12d10:	00810593          	addi	a1,sp,8
   12d14:	02f12623          	sw	a5,44(sp)
   12d18:	07010793          	addi	a5,sp,112
   12d1c:	00f12423          	sw	a5,8(sp)
   12d20:	00f12c23          	sw	a5,24(sp)
   12d24:	40000793          	li	a5,1024
   12d28:	00f12823          	sw	a5,16(sp)
   12d2c:	00f12e23          	sw	a5,28(sp)
   12d30:	f69fd0ef          	jal	ra,10c98 <_vfprintf_r>
   12d34:	00050493          	mv	s1,a0
   12d38:	00054c63          	bltz	a0,12d50 <__sbprintf+0x88>
   12d3c:	00810593          	addi	a1,sp,8
   12d40:	00090513          	mv	a0,s2
   12d44:	504000ef          	jal	ra,13248 <_fflush_r>
   12d48:	00050463          	beqz	a0,12d50 <__sbprintf+0x88>
   12d4c:	fff00493          	li	s1,-1
   12d50:	01415783          	lhu	a5,20(sp)
   12d54:	0407f793          	andi	a5,a5,64
   12d58:	00078863          	beqz	a5,12d68 <__sbprintf+0xa0>
   12d5c:	00c45783          	lhu	a5,12(s0)
   12d60:	0407e793          	ori	a5,a5,64
   12d64:	00f41623          	sh	a5,12(s0)
   12d68:	47c12083          	lw	ra,1148(sp)
   12d6c:	47812403          	lw	s0,1144(sp)
   12d70:	00048513          	mv	a0,s1
   12d74:	47012903          	lw	s2,1136(sp)
   12d78:	47412483          	lw	s1,1140(sp)
   12d7c:	48010113          	addi	sp,sp,1152
   12d80:	00008067          	ret

00012d84 <__swsetup_r>:
   12d84:	ff010113          	addi	sp,sp,-16
   12d88:	00912223          	sw	s1,4(sp)
   12d8c:	00050493          	mv	s1,a0
   12d90:	8201a503          	lw	a0,-2016(gp) # 23f80 <_impure_ptr>
   12d94:	00812423          	sw	s0,8(sp)
   12d98:	00112623          	sw	ra,12(sp)
   12d9c:	00058413          	mv	s0,a1
   12da0:	00050863          	beqz	a0,12db0 <__swsetup_r+0x2c>
   12da4:	03852783          	lw	a5,56(a0)
   12da8:	00079463          	bnez	a5,12db0 <__swsetup_r+0x2c>
   12dac:	638000ef          	jal	ra,133e4 <__sinit>
   12db0:	00c41703          	lh	a4,12(s0)
   12db4:	01071793          	slli	a5,a4,0x10
   12db8:	0107d793          	srli	a5,a5,0x10
   12dbc:	0087f693          	andi	a3,a5,8
   12dc0:	06069e63          	bnez	a3,12e3c <__swsetup_r+0xb8>
   12dc4:	0107f693          	andi	a3,a5,16
   12dc8:	02069663          	bnez	a3,12df4 <__swsetup_r+0x70>
   12dcc:	00900793          	li	a5,9
   12dd0:	00f4a023          	sw	a5,0(s1)
   12dd4:	04076713          	ori	a4,a4,64
   12dd8:	00e41623          	sh	a4,12(s0)
   12ddc:	fff00513          	li	a0,-1
   12de0:	00c12083          	lw	ra,12(sp)
   12de4:	00812403          	lw	s0,8(sp)
   12de8:	00412483          	lw	s1,4(sp)
   12dec:	01010113          	addi	sp,sp,16
   12df0:	00008067          	ret
   12df4:	0047f793          	andi	a5,a5,4
   12df8:	02078c63          	beqz	a5,12e30 <__swsetup_r+0xac>
   12dfc:	03042583          	lw	a1,48(s0)
   12e00:	00058c63          	beqz	a1,12e18 <__swsetup_r+0x94>
   12e04:	04040793          	addi	a5,s0,64
   12e08:	00f58663          	beq	a1,a5,12e14 <__swsetup_r+0x90>
   12e0c:	00048513          	mv	a0,s1
   12e10:	081000ef          	jal	ra,13690 <_free_r>
   12e14:	02042823          	sw	zero,48(s0)
   12e18:	00c45783          	lhu	a5,12(s0)
   12e1c:	00042223          	sw	zero,4(s0)
   12e20:	fdb7f793          	andi	a5,a5,-37
   12e24:	00f41623          	sh	a5,12(s0)
   12e28:	01042783          	lw	a5,16(s0)
   12e2c:	00f42023          	sw	a5,0(s0)
   12e30:	00c45783          	lhu	a5,12(s0)
   12e34:	0087e793          	ori	a5,a5,8
   12e38:	00f41623          	sh	a5,12(s0)
   12e3c:	01042783          	lw	a5,16(s0)
   12e40:	02079063          	bnez	a5,12e60 <__swsetup_r+0xdc>
   12e44:	00c45783          	lhu	a5,12(s0)
   12e48:	20000713          	li	a4,512
   12e4c:	2807f793          	andi	a5,a5,640
   12e50:	00e78863          	beq	a5,a4,12e60 <__swsetup_r+0xdc>
   12e54:	00040593          	mv	a1,s0
   12e58:	00048513          	mv	a0,s1
   12e5c:	260030ef          	jal	ra,160bc <__smakebuf_r>
   12e60:	00c45783          	lhu	a5,12(s0)
   12e64:	0017f713          	andi	a4,a5,1
   12e68:	02070c63          	beqz	a4,12ea0 <__swsetup_r+0x11c>
   12e6c:	01442783          	lw	a5,20(s0)
   12e70:	00042423          	sw	zero,8(s0)
   12e74:	40f007b3          	neg	a5,a5
   12e78:	00f42c23          	sw	a5,24(s0)
   12e7c:	01042783          	lw	a5,16(s0)
   12e80:	00000513          	li	a0,0
   12e84:	f4079ee3          	bnez	a5,12de0 <__swsetup_r+0x5c>
   12e88:	00c41783          	lh	a5,12(s0)
   12e8c:	0807f713          	andi	a4,a5,128
   12e90:	f40708e3          	beqz	a4,12de0 <__swsetup_r+0x5c>
   12e94:	0407e793          	ori	a5,a5,64
   12e98:	00f41623          	sh	a5,12(s0)
   12e9c:	f41ff06f          	j	12ddc <__swsetup_r+0x58>
   12ea0:	0027f793          	andi	a5,a5,2
   12ea4:	00000713          	li	a4,0
   12ea8:	00079463          	bnez	a5,12eb0 <__swsetup_r+0x12c>
   12eac:	01442703          	lw	a4,20(s0)
   12eb0:	00e42423          	sw	a4,8(s0)
   12eb4:	fc9ff06f          	j	12e7c <__swsetup_r+0xf8>

00012eb8 <__register_exitproc>:
   12eb8:	81c1a703          	lw	a4,-2020(gp) # 23f7c <_global_impure_ptr>
   12ebc:	00050313          	mv	t1,a0
   12ec0:	14872783          	lw	a5,328(a4)
   12ec4:	00079663          	bnez	a5,12ed0 <__register_exitproc+0x18>
   12ec8:	14c70793          	addi	a5,a4,332
   12ecc:	14f72423          	sw	a5,328(a4)
   12ed0:	0047a703          	lw	a4,4(a5)
   12ed4:	01f00813          	li	a6,31
   12ed8:	fff00513          	li	a0,-1
   12edc:	04e84a63          	blt	a6,a4,12f30 <__register_exitproc+0x78>
   12ee0:	00271893          	slli	a7,a4,0x2
   12ee4:	02030c63          	beqz	t1,12f1c <__register_exitproc+0x64>
   12ee8:	01178533          	add	a0,a5,a7
   12eec:	08c52423          	sw	a2,136(a0)
   12ef0:	1887a803          	lw	a6,392(a5)
   12ef4:	00100613          	li	a2,1
   12ef8:	00e61633          	sll	a2,a2,a4
   12efc:	00c86833          	or	a6,a6,a2
   12f00:	1907a423          	sw	a6,392(a5)
   12f04:	10d52423          	sw	a3,264(a0)
   12f08:	00200693          	li	a3,2
   12f0c:	00d31863          	bne	t1,a3,12f1c <__register_exitproc+0x64>
   12f10:	18c7a683          	lw	a3,396(a5)
   12f14:	00c6e633          	or	a2,a3,a2
   12f18:	18c7a623          	sw	a2,396(a5)
   12f1c:	00170713          	addi	a4,a4,1
   12f20:	00e7a223          	sw	a4,4(a5)
   12f24:	011787b3          	add	a5,a5,a7
   12f28:	00b7a423          	sw	a1,8(a5)
   12f2c:	00000513          	li	a0,0
   12f30:	00008067          	ret

00012f34 <__call_exitprocs>:
   12f34:	fd010113          	addi	sp,sp,-48
   12f38:	01312e23          	sw	s3,28(sp)
   12f3c:	81c1a983          	lw	s3,-2020(gp) # 23f7c <_global_impure_ptr>
   12f40:	01412c23          	sw	s4,24(sp)
   12f44:	01512a23          	sw	s5,20(sp)
   12f48:	01612823          	sw	s6,16(sp)
   12f4c:	02112623          	sw	ra,44(sp)
   12f50:	02812423          	sw	s0,40(sp)
   12f54:	02912223          	sw	s1,36(sp)
   12f58:	03212023          	sw	s2,32(sp)
   12f5c:	01712623          	sw	s7,12(sp)
   12f60:	00050a93          	mv	s5,a0
   12f64:	00058a13          	mv	s4,a1
   12f68:	00100b13          	li	s6,1
   12f6c:	1489a483          	lw	s1,328(s3)
   12f70:	00048c63          	beqz	s1,12f88 <__call_exitprocs+0x54>
   12f74:	0044a403          	lw	s0,4(s1)
   12f78:	fff40913          	addi	s2,s0,-1
   12f7c:	00241413          	slli	s0,s0,0x2
   12f80:	00848433          	add	s0,s1,s0
   12f84:	02095863          	bgez	s2,12fb4 <__call_exitprocs+0x80>
   12f88:	02c12083          	lw	ra,44(sp)
   12f8c:	02812403          	lw	s0,40(sp)
   12f90:	02412483          	lw	s1,36(sp)
   12f94:	02012903          	lw	s2,32(sp)
   12f98:	01c12983          	lw	s3,28(sp)
   12f9c:	01812a03          	lw	s4,24(sp)
   12fa0:	01412a83          	lw	s5,20(sp)
   12fa4:	01012b03          	lw	s6,16(sp)
   12fa8:	00c12b83          	lw	s7,12(sp)
   12fac:	03010113          	addi	sp,sp,48
   12fb0:	00008067          	ret
   12fb4:	000a0c63          	beqz	s4,12fcc <__call_exitprocs+0x98>
   12fb8:	10442783          	lw	a5,260(s0)
   12fbc:	01478863          	beq	a5,s4,12fcc <__call_exitprocs+0x98>
   12fc0:	fff90913          	addi	s2,s2,-1
   12fc4:	ffc40413          	addi	s0,s0,-4
   12fc8:	fbdff06f          	j	12f84 <__call_exitprocs+0x50>
   12fcc:	0044a703          	lw	a4,4(s1)
   12fd0:	00442783          	lw	a5,4(s0)
   12fd4:	fff70713          	addi	a4,a4,-1
   12fd8:	03271c63          	bne	a4,s2,13010 <__call_exitprocs+0xdc>
   12fdc:	0124a223          	sw	s2,4(s1)
   12fe0:	fe0780e3          	beqz	a5,12fc0 <__call_exitprocs+0x8c>
   12fe4:	1884a683          	lw	a3,392(s1)
   12fe8:	012b1733          	sll	a4,s6,s2
   12fec:	0044ab83          	lw	s7,4(s1)
   12ff0:	00d776b3          	and	a3,a4,a3
   12ff4:	02069263          	bnez	a3,13018 <__call_exitprocs+0xe4>
   12ff8:	000780e7          	jalr	a5
   12ffc:	0044a703          	lw	a4,4(s1)
   13000:	1489a783          	lw	a5,328(s3)
   13004:	f77714e3          	bne	a4,s7,12f6c <__call_exitprocs+0x38>
   13008:	faf48ce3          	beq	s1,a5,12fc0 <__call_exitprocs+0x8c>
   1300c:	f61ff06f          	j	12f6c <__call_exitprocs+0x38>
   13010:	00042223          	sw	zero,4(s0)
   13014:	fcdff06f          	j	12fe0 <__call_exitprocs+0xac>
   13018:	18c4a683          	lw	a3,396(s1)
   1301c:	08442583          	lw	a1,132(s0)
   13020:	00d77733          	and	a4,a4,a3
   13024:	00071863          	bnez	a4,13034 <__call_exitprocs+0x100>
   13028:	000a8513          	mv	a0,s5
   1302c:	000780e7          	jalr	a5
   13030:	fcdff06f          	j	12ffc <__call_exitprocs+0xc8>
   13034:	00058513          	mv	a0,a1
   13038:	000780e7          	jalr	a5
   1303c:	fc1ff06f          	j	12ffc <__call_exitprocs+0xc8>

00013040 <__sflush_r>:
   13040:	00c59783          	lh	a5,12(a1)
   13044:	fe010113          	addi	sp,sp,-32
   13048:	00812c23          	sw	s0,24(sp)
   1304c:	01079713          	slli	a4,a5,0x10
   13050:	01075713          	srli	a4,a4,0x10
   13054:	00912a23          	sw	s1,20(sp)
   13058:	00112e23          	sw	ra,28(sp)
   1305c:	01212823          	sw	s2,16(sp)
   13060:	01312623          	sw	s3,12(sp)
   13064:	00877693          	andi	a3,a4,8
   13068:	00050493          	mv	s1,a0
   1306c:	00058413          	mv	s0,a1
   13070:	16069c63          	bnez	a3,131e8 <__sflush_r+0x1a8>
   13074:	00001737          	lui	a4,0x1
   13078:	80070713          	addi	a4,a4,-2048 # 800 <main-0xf874>
   1307c:	00e7e7b3          	or	a5,a5,a4
   13080:	0045a703          	lw	a4,4(a1)
   13084:	00f59623          	sh	a5,12(a1)
   13088:	02e04663          	bgtz	a4,130b4 <__sflush_r+0x74>
   1308c:	03c5a703          	lw	a4,60(a1)
   13090:	02e04263          	bgtz	a4,130b4 <__sflush_r+0x74>
   13094:	00000513          	li	a0,0
   13098:	01c12083          	lw	ra,28(sp)
   1309c:	01812403          	lw	s0,24(sp)
   130a0:	01412483          	lw	s1,20(sp)
   130a4:	01012903          	lw	s2,16(sp)
   130a8:	00c12983          	lw	s3,12(sp)
   130ac:	02010113          	addi	sp,sp,32
   130b0:	00008067          	ret
   130b4:	02842703          	lw	a4,40(s0)
   130b8:	fc070ee3          	beqz	a4,13094 <__sflush_r+0x54>
   130bc:	0004a903          	lw	s2,0(s1)
   130c0:	01379693          	slli	a3,a5,0x13
   130c4:	0004a023          	sw	zero,0(s1)
   130c8:	01c42583          	lw	a1,28(s0)
   130cc:	0c06d863          	bgez	a3,1319c <__sflush_r+0x15c>
   130d0:	05042603          	lw	a2,80(s0)
   130d4:	00c45783          	lhu	a5,12(s0)
   130d8:	0047f793          	andi	a5,a5,4
   130dc:	00078e63          	beqz	a5,130f8 <__sflush_r+0xb8>
   130e0:	00442783          	lw	a5,4(s0)
   130e4:	40f60633          	sub	a2,a2,a5
   130e8:	03042783          	lw	a5,48(s0)
   130ec:	00078663          	beqz	a5,130f8 <__sflush_r+0xb8>
   130f0:	03c42783          	lw	a5,60(s0)
   130f4:	40f60633          	sub	a2,a2,a5
   130f8:	02842783          	lw	a5,40(s0)
   130fc:	01c42583          	lw	a1,28(s0)
   13100:	00000693          	li	a3,0
   13104:	00048513          	mv	a0,s1
   13108:	000780e7          	jalr	a5
   1310c:	fff00793          	li	a5,-1
   13110:	00c45683          	lhu	a3,12(s0)
   13114:	02f51263          	bne	a0,a5,13138 <__sflush_r+0xf8>
   13118:	0004a783          	lw	a5,0(s1)
   1311c:	01d00713          	li	a4,29
   13120:	0af76c63          	bltu	a4,a5,131d8 <__sflush_r+0x198>
   13124:	20400737          	lui	a4,0x20400
   13128:	00170713          	addi	a4,a4,1 # 20400001 <__global_pointer$+0x203db8a1>
   1312c:	00f75733          	srl	a4,a4,a5
   13130:	00177713          	andi	a4,a4,1
   13134:	0a070263          	beqz	a4,131d8 <__sflush_r+0x198>
   13138:	fffff7b7          	lui	a5,0xfffff
   1313c:	7ff78793          	addi	a5,a5,2047 # fffff7ff <__global_pointer$+0xfffdb09f>
   13140:	01042703          	lw	a4,16(s0)
   13144:	00d7f7b3          	and	a5,a5,a3
   13148:	01079793          	slli	a5,a5,0x10
   1314c:	4107d793          	srai	a5,a5,0x10
   13150:	00e42023          	sw	a4,0(s0)
   13154:	00f41623          	sh	a5,12(s0)
   13158:	00042223          	sw	zero,4(s0)
   1315c:	01379713          	slli	a4,a5,0x13
   13160:	00075c63          	bgez	a4,13178 <__sflush_r+0x138>
   13164:	fff00793          	li	a5,-1
   13168:	00f51663          	bne	a0,a5,13174 <__sflush_r+0x134>
   1316c:	0004a783          	lw	a5,0(s1)
   13170:	00079463          	bnez	a5,13178 <__sflush_r+0x138>
   13174:	04a42823          	sw	a0,80(s0)
   13178:	03042583          	lw	a1,48(s0)
   1317c:	0124a023          	sw	s2,0(s1)
   13180:	f0058ae3          	beqz	a1,13094 <__sflush_r+0x54>
   13184:	04040793          	addi	a5,s0,64
   13188:	00f58663          	beq	a1,a5,13194 <__sflush_r+0x154>
   1318c:	00048513          	mv	a0,s1
   13190:	500000ef          	jal	ra,13690 <_free_r>
   13194:	02042823          	sw	zero,48(s0)
   13198:	efdff06f          	j	13094 <__sflush_r+0x54>
   1319c:	00000613          	li	a2,0
   131a0:	00100693          	li	a3,1
   131a4:	00048513          	mv	a0,s1
   131a8:	000700e7          	jalr	a4
   131ac:	fff00793          	li	a5,-1
   131b0:	00050613          	mv	a2,a0
   131b4:	f2f510e3          	bne	a0,a5,130d4 <__sflush_r+0x94>
   131b8:	0004a783          	lw	a5,0(s1)
   131bc:	f0078ce3          	beqz	a5,130d4 <__sflush_r+0x94>
   131c0:	01d00713          	li	a4,29
   131c4:	00e78663          	beq	a5,a4,131d0 <__sflush_r+0x190>
   131c8:	01600713          	li	a4,22
   131cc:	06e79263          	bne	a5,a4,13230 <__sflush_r+0x1f0>
   131d0:	0124a023          	sw	s2,0(s1)
   131d4:	ec1ff06f          	j	13094 <__sflush_r+0x54>
   131d8:	0406e793          	ori	a5,a3,64
   131dc:	00f41623          	sh	a5,12(s0)
   131e0:	fff00513          	li	a0,-1
   131e4:	eb5ff06f          	j	13098 <__sflush_r+0x58>
   131e8:	0105a983          	lw	s3,16(a1)
   131ec:	ea0984e3          	beqz	s3,13094 <__sflush_r+0x54>
   131f0:	0005a903          	lw	s2,0(a1)
   131f4:	00377713          	andi	a4,a4,3
   131f8:	0135a023          	sw	s3,0(a1)
   131fc:	41390933          	sub	s2,s2,s3
   13200:	00000793          	li	a5,0
   13204:	00071463          	bnez	a4,1320c <__sflush_r+0x1cc>
   13208:	0145a783          	lw	a5,20(a1)
   1320c:	00f42423          	sw	a5,8(s0)
   13210:	e92052e3          	blez	s2,13094 <__sflush_r+0x54>
   13214:	02442783          	lw	a5,36(s0)
   13218:	01c42583          	lw	a1,28(s0)
   1321c:	00090693          	mv	a3,s2
   13220:	00098613          	mv	a2,s3
   13224:	00048513          	mv	a0,s1
   13228:	000780e7          	jalr	a5
   1322c:	00a04863          	bgtz	a0,1323c <__sflush_r+0x1fc>
   13230:	00c45783          	lhu	a5,12(s0)
   13234:	0407e793          	ori	a5,a5,64
   13238:	fa5ff06f          	j	131dc <__sflush_r+0x19c>
   1323c:	00a989b3          	add	s3,s3,a0
   13240:	40a90933          	sub	s2,s2,a0
   13244:	fcdff06f          	j	13210 <__sflush_r+0x1d0>

00013248 <_fflush_r>:
   13248:	fe010113          	addi	sp,sp,-32
   1324c:	00812c23          	sw	s0,24(sp)
   13250:	00112e23          	sw	ra,28(sp)
   13254:	00050413          	mv	s0,a0
   13258:	00050c63          	beqz	a0,13270 <_fflush_r+0x28>
   1325c:	03852783          	lw	a5,56(a0)
   13260:	00079863          	bnez	a5,13270 <_fflush_r+0x28>
   13264:	00b12623          	sw	a1,12(sp)
   13268:	17c000ef          	jal	ra,133e4 <__sinit>
   1326c:	00c12583          	lw	a1,12(sp)
   13270:	00c59783          	lh	a5,12(a1)
   13274:	00078c63          	beqz	a5,1328c <_fflush_r+0x44>
   13278:	00040513          	mv	a0,s0
   1327c:	01812403          	lw	s0,24(sp)
   13280:	01c12083          	lw	ra,28(sp)
   13284:	02010113          	addi	sp,sp,32
   13288:	db9ff06f          	j	13040 <__sflush_r>
   1328c:	01c12083          	lw	ra,28(sp)
   13290:	01812403          	lw	s0,24(sp)
   13294:	00000513          	li	a0,0
   13298:	02010113          	addi	sp,sp,32
   1329c:	00008067          	ret

000132a0 <fflush>:
   132a0:	00050593          	mv	a1,a0
   132a4:	00051a63          	bnez	a0,132b8 <fflush+0x18>
   132a8:	81c1a503          	lw	a0,-2020(gp) # 23f7c <_global_impure_ptr>
   132ac:	000135b7          	lui	a1,0x13
   132b0:	24858593          	addi	a1,a1,584 # 13248 <_fflush_r>
   132b4:	33d0006f          	j	13df0 <_fwalk_reent>
   132b8:	8201a503          	lw	a0,-2016(gp) # 23f80 <_impure_ptr>
   132bc:	f8dff06f          	j	13248 <_fflush_r>

000132c0 <__fp_lock>:
   132c0:	00000513          	li	a0,0
   132c4:	00008067          	ret

000132c8 <_cleanup_r>:
   132c8:	0001b5b7          	lui	a1,0x1b
   132cc:	db058593          	addi	a1,a1,-592 # 1adb0 <_fclose_r>
   132d0:	3210006f          	j	13df0 <_fwalk_reent>

000132d4 <std.isra.0>:
   132d4:	ff010113          	addi	sp,sp,-16
   132d8:	00812423          	sw	s0,8(sp)
   132dc:	00112623          	sw	ra,12(sp)
   132e0:	00050413          	mv	s0,a0
   132e4:	00b51623          	sh	a1,12(a0)
   132e8:	00c51723          	sh	a2,14(a0)
   132ec:	00052023          	sw	zero,0(a0)
   132f0:	00052223          	sw	zero,4(a0)
   132f4:	00052423          	sw	zero,8(a0)
   132f8:	06052223          	sw	zero,100(a0)
   132fc:	00052823          	sw	zero,16(a0)
   13300:	00052a23          	sw	zero,20(a0)
   13304:	00052c23          	sw	zero,24(a0)
   13308:	00800613          	li	a2,8
   1330c:	00000593          	li	a1,0
   13310:	05c50513          	addi	a0,a0,92
   13314:	edcfd0ef          	jal	ra,109f0 <memset>
   13318:	000187b7          	lui	a5,0x18
   1331c:	b0078793          	addi	a5,a5,-1280 # 17b00 <__sread>
   13320:	02f42023          	sw	a5,32(s0)
   13324:	000187b7          	lui	a5,0x18
   13328:	b5878793          	addi	a5,a5,-1192 # 17b58 <__swrite>
   1332c:	02f42223          	sw	a5,36(s0)
   13330:	000187b7          	lui	a5,0x18
   13334:	bdc78793          	addi	a5,a5,-1060 # 17bdc <__sseek>
   13338:	02f42423          	sw	a5,40(s0)
   1333c:	000187b7          	lui	a5,0x18
   13340:	c3478793          	addi	a5,a5,-972 # 17c34 <__sclose>
   13344:	00842e23          	sw	s0,28(s0)
   13348:	02f42623          	sw	a5,44(s0)
   1334c:	00c12083          	lw	ra,12(sp)
   13350:	00812403          	lw	s0,8(sp)
   13354:	01010113          	addi	sp,sp,16
   13358:	00008067          	ret

0001335c <__fp_unlock>:
   1335c:	00000513          	li	a0,0
   13360:	00008067          	ret

00013364 <__sfmoreglue>:
   13364:	ff010113          	addi	sp,sp,-16
   13368:	01212023          	sw	s2,0(sp)
   1336c:	00058913          	mv	s2,a1
   13370:	00812423          	sw	s0,8(sp)
   13374:	06800593          	li	a1,104
   13378:	00050413          	mv	s0,a0
   1337c:	fff90513          	addi	a0,s2,-1
   13380:	00112623          	sw	ra,12(sp)
   13384:	00912223          	sw	s1,4(sp)
   13388:	2240e0ef          	jal	ra,215ac <__mulsi3>
   1338c:	07450593          	addi	a1,a0,116
   13390:	00050493          	mv	s1,a0
   13394:	00040513          	mv	a0,s0
   13398:	814fd0ef          	jal	ra,103ac <_malloc_r>
   1339c:	00050413          	mv	s0,a0
   133a0:	02050063          	beqz	a0,133c0 <__sfmoreglue+0x5c>
   133a4:	00052023          	sw	zero,0(a0)
   133a8:	01252223          	sw	s2,4(a0)
   133ac:	00c50513          	addi	a0,a0,12
   133b0:	00a42423          	sw	a0,8(s0)
   133b4:	06848613          	addi	a2,s1,104
   133b8:	00000593          	li	a1,0
   133bc:	e34fd0ef          	jal	ra,109f0 <memset>
   133c0:	00040513          	mv	a0,s0
   133c4:	00c12083          	lw	ra,12(sp)
   133c8:	00812403          	lw	s0,8(sp)
   133cc:	00412483          	lw	s1,4(sp)
   133d0:	00012903          	lw	s2,0(sp)
   133d4:	01010113          	addi	sp,sp,16
   133d8:	00008067          	ret

000133dc <_cleanup>:
   133dc:	81c1a503          	lw	a0,-2020(gp) # 23f7c <_global_impure_ptr>
   133e0:	ee9ff06f          	j	132c8 <_cleanup_r>

000133e4 <__sinit>:
   133e4:	03852783          	lw	a5,56(a0)
   133e8:	06079e63          	bnez	a5,13464 <__sinit+0x80>
   133ec:	ff010113          	addi	sp,sp,-16
   133f0:	000137b7          	lui	a5,0x13
   133f4:	00112623          	sw	ra,12(sp)
   133f8:	00812423          	sw	s0,8(sp)
   133fc:	2c878793          	addi	a5,a5,712 # 132c8 <_cleanup_r>
   13400:	02f52e23          	sw	a5,60(a0)
   13404:	00300793          	li	a5,3
   13408:	2ef52223          	sw	a5,740(a0)
   1340c:	2ec50793          	addi	a5,a0,748
   13410:	00050413          	mv	s0,a0
   13414:	2ef52423          	sw	a5,744(a0)
   13418:	2e052023          	sw	zero,736(a0)
   1341c:	00452503          	lw	a0,4(a0)
   13420:	00000613          	li	a2,0
   13424:	00400593          	li	a1,4
   13428:	eadff0ef          	jal	ra,132d4 <std.isra.0>
   1342c:	00842503          	lw	a0,8(s0)
   13430:	00100613          	li	a2,1
   13434:	00900593          	li	a1,9
   13438:	e9dff0ef          	jal	ra,132d4 <std.isra.0>
   1343c:	00c42503          	lw	a0,12(s0)
   13440:	00200613          	li	a2,2
   13444:	01200593          	li	a1,18
   13448:	e8dff0ef          	jal	ra,132d4 <std.isra.0>
   1344c:	00100793          	li	a5,1
   13450:	02f42c23          	sw	a5,56(s0)
   13454:	00c12083          	lw	ra,12(sp)
   13458:	00812403          	lw	s0,8(sp)
   1345c:	01010113          	addi	sp,sp,16
   13460:	00008067          	ret
   13464:	00008067          	ret

00013468 <__sfp>:
   13468:	ff010113          	addi	sp,sp,-16
   1346c:	00912223          	sw	s1,4(sp)
   13470:	81c1a483          	lw	s1,-2020(gp) # 23f7c <_global_impure_ptr>
   13474:	01212023          	sw	s2,0(sp)
   13478:	00112623          	sw	ra,12(sp)
   1347c:	0384a783          	lw	a5,56(s1)
   13480:	00812423          	sw	s0,8(sp)
   13484:	00050913          	mv	s2,a0
   13488:	00079663          	bnez	a5,13494 <__sfp+0x2c>
   1348c:	00048513          	mv	a0,s1
   13490:	f55ff0ef          	jal	ra,133e4 <__sinit>
   13494:	2e048493          	addi	s1,s1,736
   13498:	0084a403          	lw	s0,8(s1)
   1349c:	0044a783          	lw	a5,4(s1)
   134a0:	fff78793          	addi	a5,a5,-1
   134a4:	0007da63          	bgez	a5,134b8 <__sfp+0x50>
   134a8:	0004a783          	lw	a5,0(s1)
   134ac:	00078e63          	beqz	a5,134c8 <__sfp+0x60>
   134b0:	0004a483          	lw	s1,0(s1)
   134b4:	fe5ff06f          	j	13498 <__sfp+0x30>
   134b8:	00c41703          	lh	a4,12(s0)
   134bc:	04070463          	beqz	a4,13504 <__sfp+0x9c>
   134c0:	06840413          	addi	s0,s0,104
   134c4:	fddff06f          	j	134a0 <__sfp+0x38>
   134c8:	00400593          	li	a1,4
   134cc:	00090513          	mv	a0,s2
   134d0:	e95ff0ef          	jal	ra,13364 <__sfmoreglue>
   134d4:	00a4a023          	sw	a0,0(s1)
   134d8:	fc051ce3          	bnez	a0,134b0 <__sfp+0x48>
   134dc:	00c00793          	li	a5,12
   134e0:	00f92023          	sw	a5,0(s2)
   134e4:	00000413          	li	s0,0
   134e8:	00040513          	mv	a0,s0
   134ec:	00c12083          	lw	ra,12(sp)
   134f0:	00812403          	lw	s0,8(sp)
   134f4:	00412483          	lw	s1,4(sp)
   134f8:	00012903          	lw	s2,0(sp)
   134fc:	01010113          	addi	sp,sp,16
   13500:	00008067          	ret
   13504:	ffff07b7          	lui	a5,0xffff0
   13508:	00178793          	addi	a5,a5,1 # ffff0001 <__global_pointer$+0xfffcb8a1>
   1350c:	06042223          	sw	zero,100(s0)
   13510:	00042023          	sw	zero,0(s0)
   13514:	00042223          	sw	zero,4(s0)
   13518:	00042423          	sw	zero,8(s0)
   1351c:	00f42623          	sw	a5,12(s0)
   13520:	00042823          	sw	zero,16(s0)
   13524:	00042a23          	sw	zero,20(s0)
   13528:	00042c23          	sw	zero,24(s0)
   1352c:	00800613          	li	a2,8
   13530:	00000593          	li	a1,0
   13534:	05c40513          	addi	a0,s0,92
   13538:	cb8fd0ef          	jal	ra,109f0 <memset>
   1353c:	02042823          	sw	zero,48(s0)
   13540:	02042a23          	sw	zero,52(s0)
   13544:	04042223          	sw	zero,68(s0)
   13548:	04042423          	sw	zero,72(s0)
   1354c:	f9dff06f          	j	134e8 <__sfp+0x80>

00013550 <__sfp_lock_acquire>:
   13550:	00008067          	ret

00013554 <__sfp_lock_release>:
   13554:	00008067          	ret

00013558 <__sinit_lock_acquire>:
   13558:	00008067          	ret

0001355c <__sinit_lock_release>:
   1355c:	00008067          	ret

00013560 <__fp_lock_all>:
   13560:	8201a503          	lw	a0,-2016(gp) # 23f80 <_impure_ptr>
   13564:	000135b7          	lui	a1,0x13
   13568:	2c058593          	addi	a1,a1,704 # 132c0 <__fp_lock>
   1356c:	7e40006f          	j	13d50 <_fwalk>

00013570 <__fp_unlock_all>:
   13570:	8201a503          	lw	a0,-2016(gp) # 23f80 <_impure_ptr>
   13574:	000135b7          	lui	a1,0x13
   13578:	35c58593          	addi	a1,a1,860 # 1335c <__fp_unlock>
   1357c:	7d40006f          	j	13d50 <_fwalk>

00013580 <_malloc_trim_r>:
   13580:	fd010113          	addi	sp,sp,-48
   13584:	03212023          	sw	s2,32(sp)
   13588:	00024937          	lui	s2,0x24
   1358c:	02812423          	sw	s0,40(sp)
   13590:	02912223          	sw	s1,36(sp)
   13594:	01312e23          	sw	s3,28(sp)
   13598:	00b12623          	sw	a1,12(sp)
   1359c:	02112623          	sw	ra,44(sp)
   135a0:	00050993          	mv	s3,a0
   135a4:	9e890913          	addi	s2,s2,-1560 # 239e8 <__malloc_av_>
   135a8:	d24fd0ef          	jal	ra,10acc <__malloc_lock>
   135ac:	00892783          	lw	a5,8(s2)
   135b0:	00c12583          	lw	a1,12(sp)
   135b4:	0047a483          	lw	s1,4(a5)
   135b8:	000017b7          	lui	a5,0x1
   135bc:	fef78413          	addi	s0,a5,-17 # fef <main-0xf085>
   135c0:	ffc4f493          	andi	s1,s1,-4
   135c4:	40b40433          	sub	s0,s0,a1
   135c8:	00940433          	add	s0,s0,s1
   135cc:	00c45413          	srli	s0,s0,0xc
   135d0:	fff40413          	addi	s0,s0,-1
   135d4:	00c41413          	slli	s0,s0,0xc
   135d8:	02f45663          	ble	a5,s0,13604 <_malloc_trim_r+0x84>
   135dc:	00098513          	mv	a0,s3
   135e0:	cf0fd0ef          	jal	ra,10ad0 <__malloc_unlock>
   135e4:	00000513          	li	a0,0
   135e8:	02c12083          	lw	ra,44(sp)
   135ec:	02812403          	lw	s0,40(sp)
   135f0:	02412483          	lw	s1,36(sp)
   135f4:	02012903          	lw	s2,32(sp)
   135f8:	01c12983          	lw	s3,28(sp)
   135fc:	03010113          	addi	sp,sp,48
   13600:	00008067          	ret
   13604:	00000593          	li	a1,0
   13608:	00098513          	mv	a0,s3
   1360c:	e28fd0ef          	jal	ra,10c34 <_sbrk_r>
   13610:	00892783          	lw	a5,8(s2)
   13614:	009787b3          	add	a5,a5,s1
   13618:	fcf512e3          	bne	a0,a5,135dc <_malloc_trim_r+0x5c>
   1361c:	408005b3          	neg	a1,s0
   13620:	00098513          	mv	a0,s3
   13624:	e10fd0ef          	jal	ra,10c34 <_sbrk_r>
   13628:	fff00793          	li	a5,-1
   1362c:	02f51c63          	bne	a0,a5,13664 <_malloc_trim_r+0xe4>
   13630:	00000593          	li	a1,0
   13634:	00098513          	mv	a0,s3
   13638:	dfcfd0ef          	jal	ra,10c34 <_sbrk_r>
   1363c:	00892703          	lw	a4,8(s2)
   13640:	00f00693          	li	a3,15
   13644:	40e507b3          	sub	a5,a0,a4
   13648:	f8f6dae3          	ble	a5,a3,135dc <_malloc_trim_r+0x5c>
   1364c:	8241a683          	lw	a3,-2012(gp) # 23f84 <__malloc_sbrk_base>
   13650:	0017e793          	ori	a5,a5,1
   13654:	00f72223          	sw	a5,4(a4)
   13658:	40d50533          	sub	a0,a0,a3
   1365c:	86a1a223          	sw	a0,-1948(gp) # 23fc4 <__malloc_current_mallinfo>
   13660:	f7dff06f          	j	135dc <_malloc_trim_r+0x5c>
   13664:	00892783          	lw	a5,8(s2)
   13668:	408484b3          	sub	s1,s1,s0
   1366c:	0014e493          	ori	s1,s1,1
   13670:	0097a223          	sw	s1,4(a5)
   13674:	8641a783          	lw	a5,-1948(gp) # 23fc4 <__malloc_current_mallinfo>
   13678:	00098513          	mv	a0,s3
   1367c:	40878433          	sub	s0,a5,s0
   13680:	8681a223          	sw	s0,-1948(gp) # 23fc4 <__malloc_current_mallinfo>
   13684:	c4cfd0ef          	jal	ra,10ad0 <__malloc_unlock>
   13688:	00100513          	li	a0,1
   1368c:	f5dff06f          	j	135e8 <_malloc_trim_r+0x68>

00013690 <_free_r>:
   13690:	24058c63          	beqz	a1,138e8 <_free_r+0x258>
   13694:	ff010113          	addi	sp,sp,-16
   13698:	00812423          	sw	s0,8(sp)
   1369c:	00912223          	sw	s1,4(sp)
   136a0:	00050413          	mv	s0,a0
   136a4:	00058493          	mv	s1,a1
   136a8:	00112623          	sw	ra,12(sp)
   136ac:	c20fd0ef          	jal	ra,10acc <__malloc_lock>
   136b0:	ffc4a503          	lw	a0,-4(s1)
   136b4:	00024637          	lui	a2,0x24
   136b8:	ff848693          	addi	a3,s1,-8
   136bc:	ffe57793          	andi	a5,a0,-2
   136c0:	9e860813          	addi	a6,a2,-1560 # 239e8 <__malloc_av_>
   136c4:	00f685b3          	add	a1,a3,a5
   136c8:	0045a703          	lw	a4,4(a1)
   136cc:	00882803          	lw	a6,8(a6)
   136d0:	9e860613          	addi	a2,a2,-1560
   136d4:	ffc77713          	andi	a4,a4,-4
   136d8:	00157513          	andi	a0,a0,1
   136dc:	06b81063          	bne	a6,a1,1373c <_free_r+0xac>
   136e0:	00e787b3          	add	a5,a5,a4
   136e4:	02051063          	bnez	a0,13704 <_free_r+0x74>
   136e8:	ff84a703          	lw	a4,-8(s1)
   136ec:	40e686b3          	sub	a3,a3,a4
   136f0:	0086a583          	lw	a1,8(a3)
   136f4:	00e787b3          	add	a5,a5,a4
   136f8:	00c6a703          	lw	a4,12(a3)
   136fc:	00e5a623          	sw	a4,12(a1)
   13700:	00b72423          	sw	a1,8(a4)
   13704:	0017e713          	ori	a4,a5,1
   13708:	00e6a223          	sw	a4,4(a3)
   1370c:	8281a703          	lw	a4,-2008(gp) # 23f88 <__malloc_trim_threshold>
   13710:	00d62423          	sw	a3,8(a2)
   13714:	00e7e863          	bltu	a5,a4,13724 <_free_r+0x94>
   13718:	8341a583          	lw	a1,-1996(gp) # 23f94 <__malloc_top_pad>
   1371c:	00040513          	mv	a0,s0
   13720:	e61ff0ef          	jal	ra,13580 <_malloc_trim_r>
   13724:	00040513          	mv	a0,s0
   13728:	00812403          	lw	s0,8(sp)
   1372c:	00c12083          	lw	ra,12(sp)
   13730:	00412483          	lw	s1,4(sp)
   13734:	01010113          	addi	sp,sp,16
   13738:	b98fd06f          	j	10ad0 <__malloc_unlock>
   1373c:	00e5a223          	sw	a4,4(a1)
   13740:	00000813          	li	a6,0
   13744:	02051663          	bnez	a0,13770 <_free_r+0xe0>
   13748:	ff84a503          	lw	a0,-8(s1)
   1374c:	000248b7          	lui	a7,0x24
   13750:	9f088893          	addi	a7,a7,-1552 # 239f0 <__malloc_av_+0x8>
   13754:	40a686b3          	sub	a3,a3,a0
   13758:	00a787b3          	add	a5,a5,a0
   1375c:	0086a503          	lw	a0,8(a3)
   13760:	0b150663          	beq	a0,a7,1380c <_free_r+0x17c>
   13764:	00c6a883          	lw	a7,12(a3)
   13768:	01152623          	sw	a7,12(a0)
   1376c:	00a8a423          	sw	a0,8(a7)
   13770:	00e58533          	add	a0,a1,a4
   13774:	00452503          	lw	a0,4(a0)
   13778:	00157513          	andi	a0,a0,1
   1377c:	02051863          	bnez	a0,137ac <_free_r+0x11c>
   13780:	00e787b3          	add	a5,a5,a4
   13784:	0085a703          	lw	a4,8(a1)
   13788:	08081663          	bnez	a6,13814 <_free_r+0x184>
   1378c:	00024537          	lui	a0,0x24
   13790:	9f050513          	addi	a0,a0,-1552 # 239f0 <__malloc_av_+0x8>
   13794:	08a71063          	bne	a4,a0,13814 <_free_r+0x184>
   13798:	00d62a23          	sw	a3,20(a2)
   1379c:	00d62823          	sw	a3,16(a2)
   137a0:	00e6a623          	sw	a4,12(a3)
   137a4:	00e6a423          	sw	a4,8(a3)
   137a8:	00100813          	li	a6,1
   137ac:	0017e713          	ori	a4,a5,1
   137b0:	00e6a223          	sw	a4,4(a3)
   137b4:	00f68733          	add	a4,a3,a5
   137b8:	00f72023          	sw	a5,0(a4)
   137bc:	f60814e3          	bnez	a6,13724 <_free_r+0x94>
   137c0:	1ff00713          	li	a4,511
   137c4:	06f76063          	bltu	a4,a5,13824 <_free_r+0x194>
   137c8:	0037d793          	srli	a5,a5,0x3
   137cc:	4027d593          	srai	a1,a5,0x2
   137d0:	00100713          	li	a4,1
   137d4:	00b71733          	sll	a4,a4,a1
   137d8:	00462583          	lw	a1,4(a2)
   137dc:	00178793          	addi	a5,a5,1
   137e0:	00379793          	slli	a5,a5,0x3
   137e4:	00f607b3          	add	a5,a2,a5
   137e8:	00b76733          	or	a4,a4,a1
   137ec:	00e62223          	sw	a4,4(a2)
   137f0:	0007a703          	lw	a4,0(a5)
   137f4:	ff878613          	addi	a2,a5,-8
   137f8:	00c6a623          	sw	a2,12(a3)
   137fc:	00e6a423          	sw	a4,8(a3)
   13800:	00d7a023          	sw	a3,0(a5)
   13804:	00d72623          	sw	a3,12(a4)
   13808:	f1dff06f          	j	13724 <_free_r+0x94>
   1380c:	00100813          	li	a6,1
   13810:	f61ff06f          	j	13770 <_free_r+0xe0>
   13814:	00c5a583          	lw	a1,12(a1)
   13818:	00b72623          	sw	a1,12(a4)
   1381c:	00e5a423          	sw	a4,8(a1)
   13820:	f8dff06f          	j	137ac <_free_r+0x11c>
   13824:	0097d593          	srli	a1,a5,0x9
   13828:	00400713          	li	a4,4
   1382c:	04b76863          	bltu	a4,a1,1387c <_free_r+0x1ec>
   13830:	0067d713          	srli	a4,a5,0x6
   13834:	03870713          	addi	a4,a4,56
   13838:	00170593          	addi	a1,a4,1
   1383c:	00359593          	slli	a1,a1,0x3
   13840:	00b605b3          	add	a1,a2,a1
   13844:	ff858513          	addi	a0,a1,-8
   13848:	0005a583          	lw	a1,0(a1)
   1384c:	08b51463          	bne	a0,a1,138d4 <_free_r+0x244>
   13850:	00100793          	li	a5,1
   13854:	40275713          	srai	a4,a4,0x2
   13858:	00e79733          	sll	a4,a5,a4
   1385c:	00462783          	lw	a5,4(a2)
   13860:	00f76733          	or	a4,a4,a5
   13864:	00e62223          	sw	a4,4(a2)
   13868:	00a6a623          	sw	a0,12(a3)
   1386c:	00b6a423          	sw	a1,8(a3)
   13870:	00d52423          	sw	a3,8(a0)
   13874:	00d5a623          	sw	a3,12(a1)
   13878:	eadff06f          	j	13724 <_free_r+0x94>
   1387c:	01400713          	li	a4,20
   13880:	00b76663          	bltu	a4,a1,1388c <_free_r+0x1fc>
   13884:	05b58713          	addi	a4,a1,91
   13888:	fb1ff06f          	j	13838 <_free_r+0x1a8>
   1388c:	05400713          	li	a4,84
   13890:	00b76863          	bltu	a4,a1,138a0 <_free_r+0x210>
   13894:	00c7d713          	srli	a4,a5,0xc
   13898:	06e70713          	addi	a4,a4,110
   1389c:	f9dff06f          	j	13838 <_free_r+0x1a8>
   138a0:	15400713          	li	a4,340
   138a4:	00b76863          	bltu	a4,a1,138b4 <_free_r+0x224>
   138a8:	00f7d713          	srli	a4,a5,0xf
   138ac:	07770713          	addi	a4,a4,119
   138b0:	f89ff06f          	j	13838 <_free_r+0x1a8>
   138b4:	55400513          	li	a0,1364
   138b8:	07e00713          	li	a4,126
   138bc:	f6b56ee3          	bltu	a0,a1,13838 <_free_r+0x1a8>
   138c0:	0127d713          	srli	a4,a5,0x12
   138c4:	07c70713          	addi	a4,a4,124
   138c8:	f71ff06f          	j	13838 <_free_r+0x1a8>
   138cc:	0085a583          	lw	a1,8(a1)
   138d0:	00b50863          	beq	a0,a1,138e0 <_free_r+0x250>
   138d4:	0045a703          	lw	a4,4(a1)
   138d8:	ffc77713          	andi	a4,a4,-4
   138dc:	fee7e8e3          	bltu	a5,a4,138cc <_free_r+0x23c>
   138e0:	00c5a503          	lw	a0,12(a1)
   138e4:	f85ff06f          	j	13868 <_free_r+0x1d8>
   138e8:	00008067          	ret

000138ec <__sfvwrite_r>:
   138ec:	00862783          	lw	a5,8(a2)
   138f0:	00079863          	bnez	a5,13900 <__sfvwrite_r+0x14>
   138f4:	00000793          	li	a5,0
   138f8:	00078513          	mv	a0,a5
   138fc:	00008067          	ret
   13900:	00c5d783          	lhu	a5,12(a1)
   13904:	fc010113          	addi	sp,sp,-64
   13908:	02812c23          	sw	s0,56(sp)
   1390c:	03212823          	sw	s2,48(sp)
   13910:	03612023          	sw	s6,32(sp)
   13914:	02112e23          	sw	ra,60(sp)
   13918:	02912a23          	sw	s1,52(sp)
   1391c:	03312623          	sw	s3,44(sp)
   13920:	03412423          	sw	s4,40(sp)
   13924:	03512223          	sw	s5,36(sp)
   13928:	01712e23          	sw	s7,28(sp)
   1392c:	01812c23          	sw	s8,24(sp)
   13930:	01912a23          	sw	s9,20(sp)
   13934:	01a12823          	sw	s10,16(sp)
   13938:	01b12623          	sw	s11,12(sp)
   1393c:	0087f793          	andi	a5,a5,8
   13940:	00060b13          	mv	s6,a2
   13944:	00058413          	mv	s0,a1
   13948:	00050913          	mv	s2,a0
   1394c:	0e078263          	beqz	a5,13a30 <__sfvwrite_r+0x144>
   13950:	0105a783          	lw	a5,16(a1)
   13954:	0c078e63          	beqz	a5,13a30 <__sfvwrite_r+0x144>
   13958:	00c45783          	lhu	a5,12(s0)
   1395c:	000b2a03          	lw	s4,0(s6)
   13960:	0027f713          	andi	a4,a5,2
   13964:	16071a63          	bnez	a4,13ad8 <__sfvwrite_r+0x1ec>
   13968:	0017f793          	andi	a5,a5,1
   1396c:	00000b93          	li	s7,0
   13970:	20078a63          	beqz	a5,13b84 <__sfvwrite_r+0x298>
   13974:	00000513          	li	a0,0
   13978:	00000a93          	li	s5,0
   1397c:	00000993          	li	s3,0
   13980:	36098663          	beqz	s3,13cec <__sfvwrite_r+0x400>
   13984:	02051263          	bnez	a0,139a8 <__sfvwrite_r+0xbc>
   13988:	00098613          	mv	a2,s3
   1398c:	00a00593          	li	a1,10
   13990:	000a8513          	mv	a0,s5
   13994:	091020ef          	jal	ra,16224 <memchr>
   13998:	00198b93          	addi	s7,s3,1
   1399c:	00050663          	beqz	a0,139a8 <__sfvwrite_r+0xbc>
   139a0:	00150513          	addi	a0,a0,1
   139a4:	41550bb3          	sub	s7,a0,s5
   139a8:	000b8c13          	mv	s8,s7
   139ac:	0179f463          	bleu	s7,s3,139b4 <__sfvwrite_r+0xc8>
   139b0:	00098c13          	mv	s8,s3
   139b4:	00042503          	lw	a0,0(s0)
   139b8:	01042783          	lw	a5,16(s0)
   139bc:	01442683          	lw	a3,20(s0)
   139c0:	34a7f063          	bleu	a0,a5,13d00 <__sfvwrite_r+0x414>
   139c4:	00842483          	lw	s1,8(s0)
   139c8:	009684b3          	add	s1,a3,s1
   139cc:	3384da63          	ble	s8,s1,13d00 <__sfvwrite_r+0x414>
   139d0:	000a8593          	mv	a1,s5
   139d4:	00048613          	mv	a2,s1
   139d8:	159020ef          	jal	ra,16330 <memmove>
   139dc:	00042783          	lw	a5,0(s0)
   139e0:	00040593          	mv	a1,s0
   139e4:	00090513          	mv	a0,s2
   139e8:	009787b3          	add	a5,a5,s1
   139ec:	00f42023          	sw	a5,0(s0)
   139f0:	859ff0ef          	jal	ra,13248 <_fflush_r>
   139f4:	16051e63          	bnez	a0,13b70 <__sfvwrite_r+0x284>
   139f8:	409b8bb3          	sub	s7,s7,s1
   139fc:	00100513          	li	a0,1
   13a00:	000b9a63          	bnez	s7,13a14 <__sfvwrite_r+0x128>
   13a04:	00040593          	mv	a1,s0
   13a08:	00090513          	mv	a0,s2
   13a0c:	83dff0ef          	jal	ra,13248 <_fflush_r>
   13a10:	16051063          	bnez	a0,13b70 <__sfvwrite_r+0x284>
   13a14:	008b2783          	lw	a5,8(s6)
   13a18:	009a8ab3          	add	s5,s5,s1
   13a1c:	409989b3          	sub	s3,s3,s1
   13a20:	409784b3          	sub	s1,a5,s1
   13a24:	009b2423          	sw	s1,8(s6)
   13a28:	f4049ce3          	bnez	s1,13980 <__sfvwrite_r+0x94>
   13a2c:	0680006f          	j	13a94 <__sfvwrite_r+0x1a8>
   13a30:	00040593          	mv	a1,s0
   13a34:	00090513          	mv	a0,s2
   13a38:	b4cff0ef          	jal	ra,12d84 <__swsetup_r>
   13a3c:	fff00793          	li	a5,-1
   13a40:	f0050ce3          	beqz	a0,13958 <__sfvwrite_r+0x6c>
   13a44:	0540006f          	j	13a98 <__sfvwrite_r+0x1ac>
   13a48:	000a2983          	lw	s3,0(s4)
   13a4c:	004a2483          	lw	s1,4(s4)
   13a50:	008a0a13          	addi	s4,s4,8
   13a54:	fe048ae3          	beqz	s1,13a48 <__sfvwrite_r+0x15c>
   13a58:	00048693          	mv	a3,s1
   13a5c:	009af463          	bleu	s1,s5,13a64 <__sfvwrite_r+0x178>
   13a60:	000a8693          	mv	a3,s5
   13a64:	02442783          	lw	a5,36(s0)
   13a68:	01c42583          	lw	a1,28(s0)
   13a6c:	00098613          	mv	a2,s3
   13a70:	00090513          	mv	a0,s2
   13a74:	000780e7          	jalr	a5
   13a78:	0ea05c63          	blez	a0,13b70 <__sfvwrite_r+0x284>
   13a7c:	008b2783          	lw	a5,8(s6)
   13a80:	00a989b3          	add	s3,s3,a0
   13a84:	40a484b3          	sub	s1,s1,a0
   13a88:	40a78533          	sub	a0,a5,a0
   13a8c:	00ab2423          	sw	a0,8(s6)
   13a90:	fc0512e3          	bnez	a0,13a54 <__sfvwrite_r+0x168>
   13a94:	00000793          	li	a5,0
   13a98:	03c12083          	lw	ra,60(sp)
   13a9c:	03812403          	lw	s0,56(sp)
   13aa0:	03412483          	lw	s1,52(sp)
   13aa4:	03012903          	lw	s2,48(sp)
   13aa8:	02c12983          	lw	s3,44(sp)
   13aac:	02812a03          	lw	s4,40(sp)
   13ab0:	02412a83          	lw	s5,36(sp)
   13ab4:	02012b03          	lw	s6,32(sp)
   13ab8:	01c12b83          	lw	s7,28(sp)
   13abc:	01812c03          	lw	s8,24(sp)
   13ac0:	01412c83          	lw	s9,20(sp)
   13ac4:	01012d03          	lw	s10,16(sp)
   13ac8:	00c12d83          	lw	s11,12(sp)
   13acc:	00078513          	mv	a0,a5
   13ad0:	04010113          	addi	sp,sp,64
   13ad4:	00008067          	ret
   13ad8:	80000ab7          	lui	s5,0x80000
   13adc:	00000993          	li	s3,0
   13ae0:	00000493          	li	s1,0
   13ae4:	c00aca93          	xori	s5,s5,-1024
   13ae8:	f6dff06f          	j	13a54 <__sfvwrite_r+0x168>
   13aec:	000a2b83          	lw	s7,0(s4)
   13af0:	004a2483          	lw	s1,4(s4)
   13af4:	008a0a13          	addi	s4,s4,8
   13af8:	fe048ae3          	beqz	s1,13aec <__sfvwrite_r+0x200>
   13afc:	00c45983          	lhu	s3,12(s0)
   13b00:	00842d83          	lw	s11,8(s0)
   13b04:	00042503          	lw	a0,0(s0)
   13b08:	2009f793          	andi	a5,s3,512
   13b0c:	14078463          	beqz	a5,13c54 <__sfvwrite_r+0x368>
   13b10:	0db4e063          	bltu	s1,s11,13bd0 <__sfvwrite_r+0x2e4>
   13b14:	4809f793          	andi	a5,s3,1152
   13b18:	0a078c63          	beqz	a5,13bd0 <__sfvwrite_r+0x2e4>
   13b1c:	01042d83          	lw	s11,16(s0)
   13b20:	00300593          	li	a1,3
   13b24:	41b50d33          	sub	s10,a0,s11
   13b28:	01442503          	lw	a0,20(s0)
   13b2c:	2810d0ef          	jal	ra,215ac <__mulsi3>
   13b30:	01f55a93          	srli	s5,a0,0x1f
   13b34:	00aa8ab3          	add	s5,s5,a0
   13b38:	001d0793          	addi	a5,s10,1
   13b3c:	401ada93          	srai	s5,s5,0x1
   13b40:	009787b3          	add	a5,a5,s1
   13b44:	00faf463          	bleu	a5,s5,13b4c <__sfvwrite_r+0x260>
   13b48:	00078a93          	mv	s5,a5
   13b4c:	4009f993          	andi	s3,s3,1024
   13b50:	0c098863          	beqz	s3,13c20 <__sfvwrite_r+0x334>
   13b54:	000a8593          	mv	a1,s5
   13b58:	00090513          	mv	a0,s2
   13b5c:	851fc0ef          	jal	ra,103ac <_malloc_r>
   13b60:	00050993          	mv	s3,a0
   13b64:	02051a63          	bnez	a0,13b98 <__sfvwrite_r+0x2ac>
   13b68:	00c00793          	li	a5,12
   13b6c:	00f92023          	sw	a5,0(s2)
   13b70:	00c45783          	lhu	a5,12(s0)
   13b74:	0407e793          	ori	a5,a5,64
   13b78:	00f41623          	sh	a5,12(s0)
   13b7c:	fff00793          	li	a5,-1
   13b80:	f19ff06f          	j	13a98 <__sfvwrite_r+0x1ac>
   13b84:	80000c37          	lui	s8,0x80000
   13b88:	ffec4c93          	xori	s9,s8,-2
   13b8c:	00000493          	li	s1,0
   13b90:	fffc4c13          	not	s8,s8
   13b94:	f65ff06f          	j	13af8 <__sfvwrite_r+0x20c>
   13b98:	01042583          	lw	a1,16(s0)
   13b9c:	000d0613          	mv	a2,s10
   13ba0:	6a8020ef          	jal	ra,16248 <memcpy>
   13ba4:	00c45783          	lhu	a5,12(s0)
   13ba8:	b7f7f793          	andi	a5,a5,-1153
   13bac:	0807e793          	ori	a5,a5,128
   13bb0:	00f41623          	sh	a5,12(s0)
   13bb4:	01342823          	sw	s3,16(s0)
   13bb8:	01542a23          	sw	s5,20(s0)
   13bbc:	01a989b3          	add	s3,s3,s10
   13bc0:	41aa8ab3          	sub	s5,s5,s10
   13bc4:	01342023          	sw	s3,0(s0)
   13bc8:	00048d93          	mv	s11,s1
   13bcc:	01542423          	sw	s5,8(s0)
   13bd0:	00048993          	mv	s3,s1
   13bd4:	01b4f463          	bleu	s11,s1,13bdc <__sfvwrite_r+0x2f0>
   13bd8:	00048d93          	mv	s11,s1
   13bdc:	00042503          	lw	a0,0(s0)
   13be0:	000d8613          	mv	a2,s11
   13be4:	000b8593          	mv	a1,s7
   13be8:	748020ef          	jal	ra,16330 <memmove>
   13bec:	00842783          	lw	a5,8(s0)
   13bf0:	41b787b3          	sub	a5,a5,s11
   13bf4:	00f42423          	sw	a5,8(s0)
   13bf8:	00042783          	lw	a5,0(s0)
   13bfc:	01b78db3          	add	s11,a5,s11
   13c00:	01b42023          	sw	s11,0(s0)
   13c04:	008b2783          	lw	a5,8(s6)
   13c08:	013b8bb3          	add	s7,s7,s3
   13c0c:	413484b3          	sub	s1,s1,s3
   13c10:	413789b3          	sub	s3,a5,s3
   13c14:	013b2423          	sw	s3,8(s6)
   13c18:	ee0990e3          	bnez	s3,13af8 <__sfvwrite_r+0x20c>
   13c1c:	e79ff06f          	j	13a94 <__sfvwrite_r+0x1a8>
   13c20:	000a8613          	mv	a2,s5
   13c24:	000d8593          	mv	a1,s11
   13c28:	00090513          	mv	a0,s2
   13c2c:	6a8030ef          	jal	ra,172d4 <_realloc_r>
   13c30:	00050993          	mv	s3,a0
   13c34:	f80510e3          	bnez	a0,13bb4 <__sfvwrite_r+0x2c8>
   13c38:	01042583          	lw	a1,16(s0)
   13c3c:	00090513          	mv	a0,s2
   13c40:	a51ff0ef          	jal	ra,13690 <_free_r>
   13c44:	00c45783          	lhu	a5,12(s0)
   13c48:	f7f7f793          	andi	a5,a5,-129
   13c4c:	00f41623          	sh	a5,12(s0)
   13c50:	f19ff06f          	j	13b68 <__sfvwrite_r+0x27c>
   13c54:	01042783          	lw	a5,16(s0)
   13c58:	00a7e663          	bltu	a5,a0,13c64 <__sfvwrite_r+0x378>
   13c5c:	01442983          	lw	s3,20(s0)
   13c60:	0534f663          	bleu	s3,s1,13cac <__sfvwrite_r+0x3c0>
   13c64:	000d8993          	mv	s3,s11
   13c68:	01b4f463          	bleu	s11,s1,13c70 <__sfvwrite_r+0x384>
   13c6c:	00048993          	mv	s3,s1
   13c70:	00098613          	mv	a2,s3
   13c74:	000b8593          	mv	a1,s7
   13c78:	6b8020ef          	jal	ra,16330 <memmove>
   13c7c:	00842783          	lw	a5,8(s0)
   13c80:	00042703          	lw	a4,0(s0)
   13c84:	413787b3          	sub	a5,a5,s3
   13c88:	01370733          	add	a4,a4,s3
   13c8c:	00f42423          	sw	a5,8(s0)
   13c90:	00e42023          	sw	a4,0(s0)
   13c94:	f60798e3          	bnez	a5,13c04 <__sfvwrite_r+0x318>
   13c98:	00040593          	mv	a1,s0
   13c9c:	00090513          	mv	a0,s2
   13ca0:	da8ff0ef          	jal	ra,13248 <_fflush_r>
   13ca4:	f60500e3          	beqz	a0,13c04 <__sfvwrite_r+0x318>
   13ca8:	ec9ff06f          	j	13b70 <__sfvwrite_r+0x284>
   13cac:	000c0513          	mv	a0,s8
   13cb0:	009ce463          	bltu	s9,s1,13cb8 <__sfvwrite_r+0x3cc>
   13cb4:	00048513          	mv	a0,s1
   13cb8:	00098593          	mv	a1,s3
   13cbc:	1150d0ef          	jal	ra,215d0 <__divsi3>
   13cc0:	00098593          	mv	a1,s3
   13cc4:	0e90d0ef          	jal	ra,215ac <__mulsi3>
   13cc8:	02442783          	lw	a5,36(s0)
   13ccc:	01c42583          	lw	a1,28(s0)
   13cd0:	00050693          	mv	a3,a0
   13cd4:	000b8613          	mv	a2,s7
   13cd8:	00090513          	mv	a0,s2
   13cdc:	000780e7          	jalr	a5
   13ce0:	00050993          	mv	s3,a0
   13ce4:	f2a040e3          	bgtz	a0,13c04 <__sfvwrite_r+0x318>
   13ce8:	e89ff06f          	j	13b70 <__sfvwrite_r+0x284>
   13cec:	000a2a83          	lw	s5,0(s4)
   13cf0:	004a2983          	lw	s3,4(s4)
   13cf4:	00000513          	li	a0,0
   13cf8:	008a0a13          	addi	s4,s4,8
   13cfc:	c85ff06f          	j	13980 <__sfvwrite_r+0x94>
   13d00:	02dc4263          	blt	s8,a3,13d24 <__sfvwrite_r+0x438>
   13d04:	02442783          	lw	a5,36(s0)
   13d08:	01c42583          	lw	a1,28(s0)
   13d0c:	000a8613          	mv	a2,s5
   13d10:	00090513          	mv	a0,s2
   13d14:	000780e7          	jalr	a5
   13d18:	00050493          	mv	s1,a0
   13d1c:	cca04ee3          	bgtz	a0,139f8 <__sfvwrite_r+0x10c>
   13d20:	e51ff06f          	j	13b70 <__sfvwrite_r+0x284>
   13d24:	000c0613          	mv	a2,s8
   13d28:	000a8593          	mv	a1,s5
   13d2c:	604020ef          	jal	ra,16330 <memmove>
   13d30:	00842783          	lw	a5,8(s0)
   13d34:	000c0493          	mv	s1,s8
   13d38:	418787b3          	sub	a5,a5,s8
   13d3c:	00f42423          	sw	a5,8(s0)
   13d40:	00042783          	lw	a5,0(s0)
   13d44:	018787b3          	add	a5,a5,s8
   13d48:	00f42023          	sw	a5,0(s0)
   13d4c:	cadff06f          	j	139f8 <__sfvwrite_r+0x10c>

00013d50 <_fwalk>:
   13d50:	fd010113          	addi	sp,sp,-48
   13d54:	02812423          	sw	s0,40(sp)
   13d58:	03212023          	sw	s2,32(sp)
   13d5c:	01412c23          	sw	s4,24(sp)
   13d60:	01512a23          	sw	s5,20(sp)
   13d64:	02112623          	sw	ra,44(sp)
   13d68:	02912223          	sw	s1,36(sp)
   13d6c:	01312e23          	sw	s3,28(sp)
   13d70:	2e050413          	addi	s0,a0,736
   13d74:	00000913          	li	s2,0
   13d78:	00100a13          	li	s4,1
   13d7c:	fff00a93          	li	s5,-1
   13d80:	02041663          	bnez	s0,13dac <_fwalk+0x5c>
   13d84:	02c12083          	lw	ra,44(sp)
   13d88:	02812403          	lw	s0,40(sp)
   13d8c:	00090513          	mv	a0,s2
   13d90:	02412483          	lw	s1,36(sp)
   13d94:	02012903          	lw	s2,32(sp)
   13d98:	01c12983          	lw	s3,28(sp)
   13d9c:	01812a03          	lw	s4,24(sp)
   13da0:	01412a83          	lw	s5,20(sp)
   13da4:	03010113          	addi	sp,sp,48
   13da8:	00008067          	ret
   13dac:	00842483          	lw	s1,8(s0)
   13db0:	00442983          	lw	s3,4(s0)
   13db4:	fff98993          	addi	s3,s3,-1
   13db8:	0009d663          	bgez	s3,13dc4 <_fwalk+0x74>
   13dbc:	00042403          	lw	s0,0(s0)
   13dc0:	fc1ff06f          	j	13d80 <_fwalk+0x30>
   13dc4:	00c4d783          	lhu	a5,12(s1)
   13dc8:	02fa7063          	bleu	a5,s4,13de8 <_fwalk+0x98>
   13dcc:	00e49783          	lh	a5,14(s1)
   13dd0:	01578c63          	beq	a5,s5,13de8 <_fwalk+0x98>
   13dd4:	00048513          	mv	a0,s1
   13dd8:	00b12623          	sw	a1,12(sp)
   13ddc:	000580e7          	jalr	a1
   13de0:	00c12583          	lw	a1,12(sp)
   13de4:	00a96933          	or	s2,s2,a0
   13de8:	06848493          	addi	s1,s1,104
   13dec:	fc9ff06f          	j	13db4 <_fwalk+0x64>

00013df0 <_fwalk_reent>:
   13df0:	fd010113          	addi	sp,sp,-48
   13df4:	02812423          	sw	s0,40(sp)
   13df8:	03212023          	sw	s2,32(sp)
   13dfc:	01412c23          	sw	s4,24(sp)
   13e00:	01512a23          	sw	s5,20(sp)
   13e04:	01612823          	sw	s6,16(sp)
   13e08:	01712623          	sw	s7,12(sp)
   13e0c:	02112623          	sw	ra,44(sp)
   13e10:	02912223          	sw	s1,36(sp)
   13e14:	01312e23          	sw	s3,28(sp)
   13e18:	00050a13          	mv	s4,a0
   13e1c:	00058a93          	mv	s5,a1
   13e20:	2e050413          	addi	s0,a0,736
   13e24:	00000913          	li	s2,0
   13e28:	00100b13          	li	s6,1
   13e2c:	fff00b93          	li	s7,-1
   13e30:	02041a63          	bnez	s0,13e64 <_fwalk_reent+0x74>
   13e34:	02c12083          	lw	ra,44(sp)
   13e38:	02812403          	lw	s0,40(sp)
   13e3c:	00090513          	mv	a0,s2
   13e40:	02412483          	lw	s1,36(sp)
   13e44:	02012903          	lw	s2,32(sp)
   13e48:	01c12983          	lw	s3,28(sp)
   13e4c:	01812a03          	lw	s4,24(sp)
   13e50:	01412a83          	lw	s5,20(sp)
   13e54:	01012b03          	lw	s6,16(sp)
   13e58:	00c12b83          	lw	s7,12(sp)
   13e5c:	03010113          	addi	sp,sp,48
   13e60:	00008067          	ret
   13e64:	00842483          	lw	s1,8(s0)
   13e68:	00442983          	lw	s3,4(s0)
   13e6c:	fff98993          	addi	s3,s3,-1
   13e70:	0009d663          	bgez	s3,13e7c <_fwalk_reent+0x8c>
   13e74:	00042403          	lw	s0,0(s0)
   13e78:	fb9ff06f          	j	13e30 <_fwalk_reent+0x40>
   13e7c:	00c4d783          	lhu	a5,12(s1)
   13e80:	00fb7e63          	bleu	a5,s6,13e9c <_fwalk_reent+0xac>
   13e84:	00e49783          	lh	a5,14(s1)
   13e88:	01778a63          	beq	a5,s7,13e9c <_fwalk_reent+0xac>
   13e8c:	00048593          	mv	a1,s1
   13e90:	000a0513          	mv	a0,s4
   13e94:	000a80e7          	jalr	s5
   13e98:	00a96933          	or	s2,s2,a0
   13e9c:	06848493          	addi	s1,s1,104
   13ea0:	fcdff06f          	j	13e6c <_fwalk_reent+0x7c>

00013ea4 <eclear>:
   13ea4:	01450793          	addi	a5,a0,20
   13ea8:	00250513          	addi	a0,a0,2
   13eac:	fe051f23          	sh	zero,-2(a0)
   13eb0:	fef51ce3          	bne	a0,a5,13ea8 <eclear+0x4>
   13eb4:	00008067          	ret

00013eb8 <emov>:
   13eb8:	01450793          	addi	a5,a0,20
   13ebc:	00250513          	addi	a0,a0,2
   13ec0:	ffe55703          	lhu	a4,-2(a0)
   13ec4:	00258593          	addi	a1,a1,2
   13ec8:	fee59f23          	sh	a4,-2(a1)
   13ecc:	fea798e3          	bne	a5,a0,13ebc <emov+0x4>
   13ed0:	00008067          	ret

00013ed4 <ecleaz>:
   13ed4:	01a50793          	addi	a5,a0,26
   13ed8:	00250513          	addi	a0,a0,2
   13edc:	fe051f23          	sh	zero,-2(a0)
   13ee0:	fef51ce3          	bne	a0,a5,13ed8 <ecleaz+0x4>
   13ee4:	00008067          	ret

00013ee8 <emovz>:
   13ee8:	01850713          	addi	a4,a0,24
   13eec:	00058793          	mv	a5,a1
   13ef0:	00250513          	addi	a0,a0,2
   13ef4:	ffe55683          	lhu	a3,-2(a0)
   13ef8:	00278793          	addi	a5,a5,2
   13efc:	fed79f23          	sh	a3,-2(a5)
   13f00:	fea718e3          	bne	a4,a0,13ef0 <emovz+0x8>
   13f04:	00059c23          	sh	zero,24(a1)
   13f08:	00008067          	ret

00013f0c <ecmpm>:
   13f0c:	00450793          	addi	a5,a0,4
   13f10:	00458593          	addi	a1,a1,4
   13f14:	01a50513          	addi	a0,a0,26
   13f18:	00278793          	addi	a5,a5,2
   13f1c:	00258593          	addi	a1,a1,2
   13f20:	ffe7d683          	lhu	a3,-2(a5)
   13f24:	ffe5d703          	lhu	a4,-2(a1)
   13f28:	00e69863          	bne	a3,a4,13f38 <ecmpm+0x2c>
   13f2c:	fef516e3          	bne	a0,a5,13f18 <ecmpm+0xc>
   13f30:	00000513          	li	a0,0
   13f34:	00008067          	ret
   13f38:	00100513          	li	a0,1
   13f3c:	00d76463          	bltu	a4,a3,13f44 <ecmpm+0x38>
   13f40:	fff00513          	li	a0,-1
   13f44:	00008067          	ret

00013f48 <eshdn1>:
   13f48:	00450693          	addi	a3,a0,4
   13f4c:	00000793          	li	a5,0
   13f50:	01a50513          	addi	a0,a0,26
   13f54:	ffff8637          	lui	a2,0xffff8
   13f58:	0006d703          	lhu	a4,0(a3)
   13f5c:	00177593          	andi	a1,a4,1
   13f60:	00058463          	beqz	a1,13f68 <eshdn1+0x20>
   13f64:	0017e793          	ori	a5,a5,1
   13f68:	0027f593          	andi	a1,a5,2
   13f6c:	00175713          	srli	a4,a4,0x1
   13f70:	02059063          	bnez	a1,13f90 <eshdn1+0x48>
   13f74:	00179793          	slli	a5,a5,0x1
   13f78:	00e69023          	sh	a4,0(a3)
   13f7c:	01079793          	slli	a5,a5,0x10
   13f80:	00268693          	addi	a3,a3,2
   13f84:	0107d793          	srli	a5,a5,0x10
   13f88:	fcd518e3          	bne	a0,a3,13f58 <eshdn1+0x10>
   13f8c:	00008067          	ret
   13f90:	00c76733          	or	a4,a4,a2
   13f94:	fe1ff06f          	j	13f74 <eshdn1+0x2c>

00013f98 <eshup1>:
   13f98:	01650693          	addi	a3,a0,22
   13f9c:	00000713          	li	a4,0
   13fa0:	0026d783          	lhu	a5,2(a3)
   13fa4:	01079613          	slli	a2,a5,0x10
   13fa8:	41065613          	srai	a2,a2,0x10
   13fac:	00065463          	bgez	a2,13fb4 <eshup1+0x1c>
   13fb0:	00176713          	ori	a4,a4,1
   13fb4:	00179793          	slli	a5,a5,0x1
   13fb8:	01079793          	slli	a5,a5,0x10
   13fbc:	00277613          	andi	a2,a4,2
   13fc0:	0107d793          	srli	a5,a5,0x10
   13fc4:	02061063          	bnez	a2,13fe4 <eshup1+0x4c>
   13fc8:	00171713          	slli	a4,a4,0x1
   13fcc:	00f69123          	sh	a5,2(a3)
   13fd0:	01071713          	slli	a4,a4,0x10
   13fd4:	ffe68693          	addi	a3,a3,-2
   13fd8:	01075713          	srli	a4,a4,0x10
   13fdc:	fcd512e3          	bne	a0,a3,13fa0 <eshup1+0x8>
   13fe0:	00008067          	ret
   13fe4:	0017e793          	ori	a5,a5,1
   13fe8:	fe1ff06f          	j	13fc8 <eshup1+0x30>

00013fec <eshdn8>:
   13fec:	00450793          	addi	a5,a0,4
   13ff0:	00000713          	li	a4,0
   13ff4:	01a50513          	addi	a0,a0,26
   13ff8:	0007d683          	lhu	a3,0(a5)
   13ffc:	00278793          	addi	a5,a5,2
   14000:	0086d613          	srli	a2,a3,0x8
   14004:	00c76733          	or	a4,a4,a2
   14008:	fee79f23          	sh	a4,-2(a5)
   1400c:	00869713          	slli	a4,a3,0x8
   14010:	01071713          	slli	a4,a4,0x10
   14014:	01075713          	srli	a4,a4,0x10
   14018:	fef510e3          	bne	a0,a5,13ff8 <eshdn8+0xc>
   1401c:	00008067          	ret

00014020 <eshup8>:
   14020:	01650793          	addi	a5,a0,22
   14024:	00000713          	li	a4,0
   14028:	0027d683          	lhu	a3,2(a5)
   1402c:	ffe78793          	addi	a5,a5,-2
   14030:	00869613          	slli	a2,a3,0x8
   14034:	00c76733          	or	a4,a4,a2
   14038:	00e79223          	sh	a4,4(a5)
   1403c:	0086d713          	srli	a4,a3,0x8
   14040:	fef514e3          	bne	a0,a5,14028 <eshup8+0x8>
   14044:	00008067          	ret

00014048 <eshup6>:
   14048:	00450793          	addi	a5,a0,4
   1404c:	01850713          	addi	a4,a0,24
   14050:	00278793          	addi	a5,a5,2
   14054:	0007d683          	lhu	a3,0(a5)
   14058:	fed79f23          	sh	a3,-2(a5)
   1405c:	fef71ae3          	bne	a4,a5,14050 <eshup6+0x8>
   14060:	00051c23          	sh	zero,24(a0)
   14064:	00008067          	ret

00014068 <eshdn6>:
   14068:	01850793          	addi	a5,a0,24
   1406c:	01a50713          	addi	a4,a0,26
   14070:	00450693          	addi	a3,a0,4
   14074:	ffe78793          	addi	a5,a5,-2
   14078:	0007d603          	lhu	a2,0(a5)
   1407c:	ffe70713          	addi	a4,a4,-2
   14080:	00c71023          	sh	a2,0(a4)
   14084:	fef698e3          	bne	a3,a5,14074 <eshdn6+0xc>
   14088:	00051223          	sh	zero,4(a0)
   1408c:	00008067          	ret

00014090 <eaddm>:
   14090:	01858593          	addi	a1,a1,24
   14094:	01650713          	addi	a4,a0,22
   14098:	00000693          	li	a3,0
   1409c:	00275783          	lhu	a5,2(a4)
   140a0:	0005d603          	lhu	a2,0(a1)
   140a4:	ffe70713          	addi	a4,a4,-2
   140a8:	ffe58593          	addi	a1,a1,-2
   140ac:	00c787b3          	add	a5,a5,a2
   140b0:	00d787b3          	add	a5,a5,a3
   140b4:	00f59123          	sh	a5,2(a1)
   140b8:	0107d793          	srli	a5,a5,0x10
   140bc:	0017f693          	andi	a3,a5,1
   140c0:	fce51ee3          	bne	a0,a4,1409c <eaddm+0xc>
   140c4:	00008067          	ret

000140c8 <esubm>:
   140c8:	01858593          	addi	a1,a1,24
   140cc:	01650713          	addi	a4,a0,22
   140d0:	00000693          	li	a3,0
   140d4:	0005d783          	lhu	a5,0(a1)
   140d8:	00275603          	lhu	a2,2(a4)
   140dc:	ffe70713          	addi	a4,a4,-2
   140e0:	ffe58593          	addi	a1,a1,-2
   140e4:	40c787b3          	sub	a5,a5,a2
   140e8:	40d787b3          	sub	a5,a5,a3
   140ec:	00f59123          	sh	a5,2(a1)
   140f0:	0107d793          	srli	a5,a5,0x10
   140f4:	0017f693          	andi	a3,a5,1
   140f8:	fce51ee3          	bne	a0,a4,140d4 <esubm+0xc>
   140fc:	00008067          	ret

00014100 <m16m>:
   14100:	fb010113          	addi	sp,sp,-80
   14104:	03312e23          	sw	s3,60(sp)
   14108:	000109b7          	lui	s3,0x10
   1410c:	04812423          	sw	s0,72(sp)
   14110:	04912223          	sw	s1,68(sp)
   14114:	05212023          	sw	s2,64(sp)
   14118:	03412c23          	sw	s4,56(sp)
   1411c:	04112623          	sw	ra,76(sp)
   14120:	00050a13          	mv	s4,a0
   14124:	02011523          	sh	zero,42(sp)
   14128:	02011623          	sh	zero,44(sp)
   1412c:	01858493          	addi	s1,a1,24
   14130:	00458913          	addi	s2,a1,4
   14134:	02c10413          	addi	s0,sp,44
   14138:	fff98993          	addi	s3,s3,-1 # ffff <main-0x75>
   1413c:	0004d503          	lhu	a0,0(s1)
   14140:	ffe40413          	addi	s0,s0,-2
   14144:	ffe48493          	addi	s1,s1,-2
   14148:	04051863          	bnez	a0,14198 <m16m+0x98>
   1414c:	fe041f23          	sh	zero,-2(s0)
   14150:	fe9916e3          	bne	s2,s1,1413c <m16m+0x3c>
   14154:	00400793          	li	a5,4
   14158:	01a00713          	li	a4,26
   1415c:	01410593          	addi	a1,sp,20
   14160:	00f585b3          	add	a1,a1,a5
   14164:	0005d583          	lhu	a1,0(a1)
   14168:	00f606b3          	add	a3,a2,a5
   1416c:	00278793          	addi	a5,a5,2
   14170:	00b69023          	sh	a1,0(a3)
   14174:	fee794e3          	bne	a5,a4,1415c <m16m+0x5c>
   14178:	04c12083          	lw	ra,76(sp)
   1417c:	04812403          	lw	s0,72(sp)
   14180:	04412483          	lw	s1,68(sp)
   14184:	04012903          	lw	s2,64(sp)
   14188:	03c12983          	lw	s3,60(sp)
   1418c:	03812a03          	lw	s4,56(sp)
   14190:	05010113          	addi	sp,sp,80
   14194:	00008067          	ret
   14198:	000a0593          	mv	a1,s4
   1419c:	00c12623          	sw	a2,12(sp)
   141a0:	40c0d0ef          	jal	ra,215ac <__mulsi3>
   141a4:	00245703          	lhu	a4,2(s0)
   141a8:	013577b3          	and	a5,a0,s3
   141ac:	01055513          	srli	a0,a0,0x10
   141b0:	00e787b3          	add	a5,a5,a4
   141b4:	00045703          	lhu	a4,0(s0)
   141b8:	00f41123          	sh	a5,2(s0)
   141bc:	0107d793          	srli	a5,a5,0x10
   141c0:	00e50533          	add	a0,a0,a4
   141c4:	00f50533          	add	a0,a0,a5
   141c8:	00a41023          	sh	a0,0(s0)
   141cc:	01055513          	srli	a0,a0,0x10
   141d0:	fea41f23          	sh	a0,-2(s0)
   141d4:	00c12603          	lw	a2,12(sp)
   141d8:	f79ff06f          	j	14150 <m16m+0x50>

000141dc <eisnan>:
   141dc:	01255783          	lhu	a5,18(a0)
   141e0:	fff7c793          	not	a5,a5
   141e4:	01179713          	slli	a4,a5,0x11
   141e8:	00071c63          	bnez	a4,14200 <eisnan+0x24>
   141ec:	01250793          	addi	a5,a0,18
   141f0:	00250513          	addi	a0,a0,2
   141f4:	ffe55703          	lhu	a4,-2(a0)
   141f8:	00071863          	bnez	a4,14208 <eisnan+0x2c>
   141fc:	fea79ae3          	bne	a5,a0,141f0 <eisnan+0x14>
   14200:	00000513          	li	a0,0
   14204:	00008067          	ret
   14208:	00100513          	li	a0,1
   1420c:	00008067          	ret

00014210 <eisneg>:
   14210:	ff010113          	addi	sp,sp,-16
   14214:	00812423          	sw	s0,8(sp)
   14218:	00112623          	sw	ra,12(sp)
   1421c:	00050413          	mv	s0,a0
   14220:	fbdff0ef          	jal	ra,141dc <eisnan>
   14224:	00051e63          	bnez	a0,14240 <eisneg+0x30>
   14228:	01241503          	lh	a0,18(s0)
   1422c:	01f55513          	srli	a0,a0,0x1f
   14230:	00c12083          	lw	ra,12(sp)
   14234:	00812403          	lw	s0,8(sp)
   14238:	01010113          	addi	sp,sp,16
   1423c:	00008067          	ret
   14240:	00000513          	li	a0,0
   14244:	fedff06f          	j	14230 <eisneg+0x20>

00014248 <emovi>:
   14248:	01251783          	lh	a5,18(a0)
   1424c:	ff010113          	addi	sp,sp,-16
   14250:	00112623          	sw	ra,12(sp)
   14254:	00812423          	sw	s0,8(sp)
   14258:	00912223          	sw	s1,4(sp)
   1425c:	01212023          	sw	s2,0(sp)
   14260:	0607d863          	bgez	a5,142d0 <emovi+0x88>
   14264:	fff00793          	li	a5,-1
   14268:	00f59023          	sh	a5,0(a1)
   1426c:	01255703          	lhu	a4,18(a0)
   14270:	000087b7          	lui	a5,0x8
   14274:	fff78793          	addi	a5,a5,-1 # 7fff <main-0x8075>
   14278:	00e7f733          	and	a4,a5,a4
   1427c:	00e59123          	sh	a4,2(a1)
   14280:	01050913          	addi	s2,a0,16
   14284:	06f71663          	bne	a4,a5,142f0 <emovi+0xa8>
   14288:	00058413          	mv	s0,a1
   1428c:	00050493          	mv	s1,a0
   14290:	f4dff0ef          	jal	ra,141dc <eisnan>
   14294:	04050263          	beqz	a0,142d8 <emovi+0x90>
   14298:	00640793          	addi	a5,s0,6
   1429c:	00041223          	sh	zero,4(s0)
   142a0:	ffc48513          	addi	a0,s1,-4
   142a4:	ffe90913          	addi	s2,s2,-2
   142a8:	00295703          	lhu	a4,2(s2)
   142ac:	00278793          	addi	a5,a5,2
   142b0:	fee79f23          	sh	a4,-2(a5)
   142b4:	fea918e3          	bne	s2,a0,142a4 <emovi+0x5c>
   142b8:	00c12083          	lw	ra,12(sp)
   142bc:	00812403          	lw	s0,8(sp)
   142c0:	00412483          	lw	s1,4(sp)
   142c4:	00012903          	lw	s2,0(sp)
   142c8:	01010113          	addi	sp,sp,16
   142cc:	00008067          	ret
   142d0:	00059023          	sh	zero,0(a1)
   142d4:	f99ff06f          	j	1426c <emovi+0x24>
   142d8:	00440793          	addi	a5,s0,4
   142dc:	01a40593          	addi	a1,s0,26
   142e0:	00278793          	addi	a5,a5,2
   142e4:	fe079f23          	sh	zero,-2(a5)
   142e8:	feb79ce3          	bne	a5,a1,142e0 <emovi+0x98>
   142ec:	fcdff06f          	j	142b8 <emovi+0x70>
   142f0:	00658793          	addi	a5,a1,6
   142f4:	00059223          	sh	zero,4(a1)
   142f8:	ffe50513          	addi	a0,a0,-2
   142fc:	ffe90913          	addi	s2,s2,-2
   14300:	00295703          	lhu	a4,2(s2)
   14304:	00278793          	addi	a5,a5,2
   14308:	fee79f23          	sh	a4,-2(a5)
   1430c:	fea918e3          	bne	s2,a0,142fc <emovi+0xb4>
   14310:	00059c23          	sh	zero,24(a1)
   14314:	fa5ff06f          	j	142b8 <emovi+0x70>

00014318 <ecmp>:
   14318:	fb010113          	addi	sp,sp,-80
   1431c:	04912223          	sw	s1,68(sp)
   14320:	05212023          	sw	s2,64(sp)
   14324:	04112623          	sw	ra,76(sp)
   14328:	04812423          	sw	s0,72(sp)
   1432c:	00050913          	mv	s2,a0
   14330:	00058493          	mv	s1,a1
   14334:	ea9ff0ef          	jal	ra,141dc <eisnan>
   14338:	0e051063          	bnez	a0,14418 <ecmp+0x100>
   1433c:	00048513          	mv	a0,s1
   14340:	e9dff0ef          	jal	ra,141dc <eisnan>
   14344:	00050413          	mv	s0,a0
   14348:	0c051863          	bnez	a0,14418 <ecmp+0x100>
   1434c:	00810593          	addi	a1,sp,8
   14350:	00090513          	mv	a0,s2
   14354:	ef5ff0ef          	jal	ra,14248 <emovi>
   14358:	02410593          	addi	a1,sp,36
   1435c:	00048513          	mv	a0,s1
   14360:	ee9ff0ef          	jal	ra,14248 <emovi>
   14364:	00815703          	lhu	a4,8(sp)
   14368:	02415783          	lhu	a5,36(sp)
   1436c:	06e78063          	beq	a5,a4,143cc <ecmp+0xb4>
   14370:	00200793          	li	a5,2
   14374:	01800693          	li	a3,24
   14378:	00810613          	addi	a2,sp,8
   1437c:	00f60633          	add	a2,a2,a5
   14380:	00065603          	lhu	a2,0(a2) # ffff8000 <__global_pointer$+0xfffd38a0>
   14384:	02061c63          	bnez	a2,143bc <ecmp+0xa4>
   14388:	02410613          	addi	a2,sp,36
   1438c:	00f60633          	add	a2,a2,a5
   14390:	00065603          	lhu	a2,0(a2)
   14394:	02061463          	bnez	a2,143bc <ecmp+0xa4>
   14398:	00278793          	addi	a5,a5,2
   1439c:	fcd79ee3          	bne	a5,a3,14378 <ecmp+0x60>
   143a0:	00040513          	mv	a0,s0
   143a4:	04c12083          	lw	ra,76(sp)
   143a8:	04812403          	lw	s0,72(sp)
   143ac:	04412483          	lw	s1,68(sp)
   143b0:	04012903          	lw	s2,64(sp)
   143b4:	05010113          	addi	sp,sp,80
   143b8:	00008067          	ret
   143bc:	00100413          	li	s0,1
   143c0:	fe0700e3          	beqz	a4,143a0 <ecmp+0x88>
   143c4:	fff00413          	li	s0,-1
   143c8:	fd9ff06f          	j	143a0 <ecmp+0x88>
   143cc:	00100613          	li	a2,1
   143d0:	00078463          	beqz	a5,143d8 <ecmp+0xc0>
   143d4:	fff00613          	li	a2,-1
   143d8:	00000793          	li	a5,0
   143dc:	01800593          	li	a1,24
   143e0:	00810713          	addi	a4,sp,8
   143e4:	00f70733          	add	a4,a4,a5
   143e8:	00075683          	lhu	a3,0(a4)
   143ec:	02410713          	addi	a4,sp,36
   143f0:	00f70733          	add	a4,a4,a5
   143f4:	00075703          	lhu	a4,0(a4)
   143f8:	00e69863          	bne	a3,a4,14408 <ecmp+0xf0>
   143fc:	00278793          	addi	a5,a5,2
   14400:	feb790e3          	bne	a5,a1,143e0 <ecmp+0xc8>
   14404:	f9dff06f          	j	143a0 <ecmp+0x88>
   14408:	00060413          	mv	s0,a2
   1440c:	f8d76ae3          	bltu	a4,a3,143a0 <ecmp+0x88>
   14410:	40c00433          	neg	s0,a2
   14414:	f8dff06f          	j	143a0 <ecmp+0x88>
   14418:	ffe00413          	li	s0,-2
   1441c:	f85ff06f          	j	143a0 <ecmp+0x88>

00014420 <eisinf>:
   14420:	01255783          	lhu	a5,18(a0)
   14424:	fff7c793          	not	a5,a5
   14428:	01179713          	slli	a4,a5,0x11
   1442c:	02071063          	bnez	a4,1444c <eisinf+0x2c>
   14430:	ff010113          	addi	sp,sp,-16
   14434:	00112623          	sw	ra,12(sp)
   14438:	da5ff0ef          	jal	ra,141dc <eisnan>
   1443c:	00c12083          	lw	ra,12(sp)
   14440:	00153513          	seqz	a0,a0
   14444:	01010113          	addi	sp,sp,16
   14448:	00008067          	ret
   1444c:	00000513          	li	a0,0
   14450:	00008067          	ret

00014454 <einfin.isra.2>:
   14454:	01250793          	addi	a5,a0,18
   14458:	00250513          	addi	a0,a0,2
   1445c:	fe051f23          	sh	zero,-2(a0)
   14460:	fef51ce3          	bne	a0,a5,14458 <einfin.isra.2+0x4>
   14464:	00055783          	lhu	a5,0(a0)
   14468:	00008737          	lui	a4,0x8
   1446c:	fff70713          	addi	a4,a4,-1 # 7fff <main-0x8075>
   14470:	00e7e7b3          	or	a5,a5,a4
   14474:	00f51023          	sh	a5,0(a0)
   14478:	00008067          	ret

0001447c <eshift.part.3>:
   1447c:	fe010113          	addi	sp,sp,-32
   14480:	00812c23          	sw	s0,24(sp)
   14484:	01212823          	sw	s2,16(sp)
   14488:	00112e23          	sw	ra,28(sp)
   1448c:	00912a23          	sw	s1,20(sp)
   14490:	01312623          	sw	s3,12(sp)
   14494:	01412423          	sw	s4,8(sp)
   14498:	01512223          	sw	s5,4(sp)
   1449c:	00050913          	mv	s2,a0
   144a0:	00058413          	mv	s0,a1
   144a4:	1005d263          	bgez	a1,145a8 <eshift.part.3+0x12c>
   144a8:	40b00a33          	neg	s4,a1
   144ac:	000a0993          	mv	s3,s4
   144b0:	00000493          	li	s1,0
   144b4:	00f00a93          	li	s5,15
   144b8:	033ace63          	blt	s5,s3,144f4 <eshift.part.3+0x78>
   144bc:	004a5513          	srli	a0,s4,0x4
   144c0:	ff000593          	li	a1,-16
   144c4:	0e80d0ef          	jal	ra,215ac <__mulsi3>
   144c8:	40850433          	sub	s0,a0,s0
   144cc:	00040993          	mv	s3,s0
   144d0:	00700a13          	li	s4,7
   144d4:	033a4c63          	blt	s4,s3,1450c <eshift.part.3+0x90>
   144d8:	00345513          	srli	a0,s0,0x3
   144dc:	ff800593          	li	a1,-8
   144e0:	0cc0d0ef          	jal	ra,215ac <__mulsi3>
   144e4:	00850433          	add	s0,a0,s0
   144e8:	02041e63          	bnez	s0,14524 <eshift.part.3+0xa8>
   144ec:	00903533          	snez	a0,s1
   144f0:	0940006f          	j	14584 <eshift.part.3+0x108>
   144f4:	01895783          	lhu	a5,24(s2)
   144f8:	00090513          	mv	a0,s2
   144fc:	ff098993          	addi	s3,s3,-16
   14500:	00f4e4b3          	or	s1,s1,a5
   14504:	b65ff0ef          	jal	ra,14068 <eshdn6>
   14508:	fb1ff06f          	j	144b8 <eshift.part.3+0x3c>
   1450c:	01894783          	lbu	a5,24(s2)
   14510:	00090513          	mv	a0,s2
   14514:	ff898993          	addi	s3,s3,-8
   14518:	0097e4b3          	or	s1,a5,s1
   1451c:	ad1ff0ef          	jal	ra,13fec <eshdn8>
   14520:	fb5ff06f          	j	144d4 <eshift.part.3+0x58>
   14524:	01895783          	lhu	a5,24(s2)
   14528:	00090513          	mv	a0,s2
   1452c:	fff40413          	addi	s0,s0,-1
   14530:	0017f793          	andi	a5,a5,1
   14534:	0097e4b3          	or	s1,a5,s1
   14538:	a11ff0ef          	jal	ra,13f48 <eshdn1>
   1453c:	fadff06f          	j	144e8 <eshift.part.3+0x6c>
   14540:	00090513          	mv	a0,s2
   14544:	b05ff0ef          	jal	ra,14048 <eshup6>
   14548:	ff048493          	addi	s1,s1,-16
   1454c:	fe99cae3          	blt	s3,s1,14540 <eshift.part.3+0xc4>
   14550:	00445513          	srli	a0,s0,0x4
   14554:	ff000593          	li	a1,-16
   14558:	0540d0ef          	jal	ra,215ac <__mulsi3>
   1455c:	00a40433          	add	s0,s0,a0
   14560:	00040493          	mv	s1,s0
   14564:	00700993          	li	s3,7
   14568:	0499c663          	blt	s3,s1,145b4 <eshift.part.3+0x138>
   1456c:	00345513          	srli	a0,s0,0x3
   14570:	ff800593          	li	a1,-8
   14574:	0380d0ef          	jal	ra,215ac <__mulsi3>
   14578:	00a40433          	add	s0,s0,a0
   1457c:	04041463          	bnez	s0,145c4 <eshift.part.3+0x148>
   14580:	00000513          	li	a0,0
   14584:	01c12083          	lw	ra,28(sp)
   14588:	01812403          	lw	s0,24(sp)
   1458c:	01412483          	lw	s1,20(sp)
   14590:	01012903          	lw	s2,16(sp)
   14594:	00c12983          	lw	s3,12(sp)
   14598:	00812a03          	lw	s4,8(sp)
   1459c:	00412a83          	lw	s5,4(sp)
   145a0:	02010113          	addi	sp,sp,32
   145a4:	00008067          	ret
   145a8:	00058493          	mv	s1,a1
   145ac:	00f00993          	li	s3,15
   145b0:	f9dff06f          	j	1454c <eshift.part.3+0xd0>
   145b4:	00090513          	mv	a0,s2
   145b8:	a69ff0ef          	jal	ra,14020 <eshup8>
   145bc:	ff848493          	addi	s1,s1,-8
   145c0:	fa9ff06f          	j	14568 <eshift.part.3+0xec>
   145c4:	00090513          	mv	a0,s2
   145c8:	9d1ff0ef          	jal	ra,13f98 <eshup1>
   145cc:	fff40413          	addi	s0,s0,-1
   145d0:	fadff06f          	j	1457c <eshift.part.3+0x100>

000145d4 <enormlz>:
   145d4:	00455783          	lhu	a5,4(a0)
   145d8:	ff010113          	addi	sp,sp,-16
   145dc:	00912223          	sw	s1,4(sp)
   145e0:	00112623          	sw	ra,12(sp)
   145e4:	00812423          	sw	s0,8(sp)
   145e8:	01212023          	sw	s2,0(sp)
   145ec:	00050493          	mv	s1,a0
   145f0:	08079263          	bnez	a5,14674 <enormlz+0xa0>
   145f4:	00651783          	lh	a5,6(a0)
   145f8:	00000413          	li	s0,0
   145fc:	0a000913          	li	s2,160
   14600:	0207d863          	bgez	a5,14630 <enormlz+0x5c>
   14604:	00040513          	mv	a0,s0
   14608:	00c12083          	lw	ra,12(sp)
   1460c:	00812403          	lw	s0,8(sp)
   14610:	00412483          	lw	s1,4(sp)
   14614:	00012903          	lw	s2,0(sp)
   14618:	01010113          	addi	sp,sp,16
   1461c:	00008067          	ret
   14620:	00048513          	mv	a0,s1
   14624:	01040413          	addi	s0,s0,16
   14628:	a21ff0ef          	jal	ra,14048 <eshup6>
   1462c:	fd240ce3          	beq	s0,s2,14604 <enormlz+0x30>
   14630:	0064d783          	lhu	a5,6(s1)
   14634:	fe0786e3          	beqz	a5,14620 <enormlz+0x4c>
   14638:	0064d783          	lhu	a5,6(s1)
   1463c:	f007f793          	andi	a5,a5,-256
   14640:	02078263          	beqz	a5,14664 <enormlz+0x90>
   14644:	0a000913          	li	s2,160
   14648:	00649783          	lh	a5,6(s1)
   1464c:	fa07cce3          	bltz	a5,14604 <enormlz+0x30>
   14650:	00048513          	mv	a0,s1
   14654:	00140413          	addi	s0,s0,1
   14658:	941ff0ef          	jal	ra,13f98 <eshup1>
   1465c:	fe8956e3          	ble	s0,s2,14648 <enormlz+0x74>
   14660:	fa5ff06f          	j	14604 <enormlz+0x30>
   14664:	00048513          	mv	a0,s1
   14668:	9b9ff0ef          	jal	ra,14020 <eshup8>
   1466c:	00840413          	addi	s0,s0,8
   14670:	fc9ff06f          	j	14638 <enormlz+0x64>
   14674:	f007f793          	andi	a5,a5,-256
   14678:	00000413          	li	s0,0
   1467c:	00078663          	beqz	a5,14688 <enormlz+0xb4>
   14680:	96dff0ef          	jal	ra,13fec <eshdn8>
   14684:	ff800413          	li	s0,-8
   14688:	f7000913          	li	s2,-144
   1468c:	0140006f          	j	146a0 <enormlz+0xcc>
   14690:	00048513          	mv	a0,s1
   14694:	fff40413          	addi	s0,s0,-1
   14698:	8b1ff0ef          	jal	ra,13f48 <eshdn1>
   1469c:	f72444e3          	blt	s0,s2,14604 <enormlz+0x30>
   146a0:	0044d783          	lhu	a5,4(s1)
   146a4:	fe0796e3          	bnez	a5,14690 <enormlz+0xbc>
   146a8:	f5dff06f          	j	14604 <enormlz+0x30>

000146ac <enan.constprop.12>:
   146ac:	01050793          	addi	a5,a0,16
   146b0:	00250513          	addi	a0,a0,2
   146b4:	fe051f23          	sh	zero,-2(a0)
   146b8:	fef51ce3          	bne	a0,a5,146b0 <enan.constprop.12+0x4>
   146bc:	ffffc7b7          	lui	a5,0xffffc
   146c0:	00f51023          	sh	a5,0(a0)
   146c4:	000087b7          	lui	a5,0x8
   146c8:	fff78793          	addi	a5,a5,-1 # 7fff <main-0x8075>
   146cc:	00f51123          	sh	a5,2(a0)
   146d0:	00008067          	ret

000146d4 <emovo.isra.6>:
   146d4:	00050713          	mv	a4,a0
   146d8:	00075683          	lhu	a3,0(a4)
   146dc:	00058513          	mv	a0,a1
   146e0:	00275783          	lhu	a5,2(a4)
   146e4:	00068663          	beqz	a3,146f0 <emovo.isra.6+0x1c>
   146e8:	ffff86b7          	lui	a3,0xffff8
   146ec:	00d7e7b3          	or	a5,a5,a3
   146f0:	00f51923          	sh	a5,18(a0)
   146f4:	00275603          	lhu	a2,2(a4)
   146f8:	000086b7          	lui	a3,0x8
   146fc:	fff68693          	addi	a3,a3,-1 # 7fff <main-0x8075>
   14700:	00670793          	addi	a5,a4,6
   14704:	00d61e63          	bne	a2,a3,14720 <emovo.isra.6+0x4c>
   14708:	01a70713          	addi	a4,a4,26
   1470c:	0007d683          	lhu	a3,0(a5)
   14710:	02069863          	bnez	a3,14740 <emovo.isra.6+0x6c>
   14714:	00278793          	addi	a5,a5,2
   14718:	fee79ae3          	bne	a5,a4,1470c <emovo.isra.6+0x38>
   1471c:	d39ff06f          	j	14454 <einfin.isra.2>
   14720:	01050513          	addi	a0,a0,16
   14724:	01870713          	addi	a4,a4,24
   14728:	00278793          	addi	a5,a5,2
   1472c:	ffe7d683          	lhu	a3,-2(a5)
   14730:	ffe50513          	addi	a0,a0,-2
   14734:	00d51123          	sh	a3,2(a0)
   14738:	fee798e3          	bne	a5,a4,14728 <emovo.isra.6+0x54>
   1473c:	00008067          	ret
   14740:	f6dff06f          	j	146ac <enan.constprop.12>

00014744 <e113toe.isra.8>:
   14744:	fd010113          	addi	sp,sp,-48
   14748:	02912223          	sw	s1,36(sp)
   1474c:	00050493          	mv	s1,a0
   14750:	00410513          	addi	a0,sp,4
   14754:	02812423          	sw	s0,40(sp)
   14758:	02112623          	sw	ra,44(sp)
   1475c:	00058413          	mv	s0,a1
   14760:	f74ff0ef          	jal	ra,13ed4 <ecleaz>
   14764:	00e4d703          	lhu	a4,14(s1)
   14768:	01071793          	slli	a5,a4,0x10
   1476c:	4107d793          	srai	a5,a5,0x10
   14770:	0407c263          	bltz	a5,147b4 <e113toe.isra.8+0x70>
   14774:	00011223          	sh	zero,4(sp)
   14778:	000086b7          	lui	a3,0x8
   1477c:	fff68693          	addi	a3,a3,-1 # 7fff <main-0x8075>
   14780:	00d77733          	and	a4,a4,a3
   14784:	00e48793          	addi	a5,s1,14
   14788:	06d71c63          	bne	a4,a3,14800 <e113toe.isra.8+0xbc>
   1478c:	00048713          	mv	a4,s1
   14790:	00075683          	lhu	a3,0(a4)
   14794:	02068663          	beqz	a3,147c0 <e113toe.isra.8+0x7c>
   14798:	00040513          	mv	a0,s0
   1479c:	f11ff0ef          	jal	ra,146ac <enan.constprop.12>
   147a0:	02c12083          	lw	ra,44(sp)
   147a4:	02812403          	lw	s0,40(sp)
   147a8:	02412483          	lw	s1,36(sp)
   147ac:	03010113          	addi	sp,sp,48
   147b0:	00008067          	ret
   147b4:	fff00793          	li	a5,-1
   147b8:	00f11223          	sh	a5,4(sp)
   147bc:	fbdff06f          	j	14778 <e113toe.isra.8+0x34>
   147c0:	00270713          	addi	a4,a4,2
   147c4:	fce796e3          	bne	a5,a4,14790 <e113toe.isra.8+0x4c>
   147c8:	00040513          	mv	a0,s0
   147cc:	ed8ff0ef          	jal	ra,13ea4 <eclear>
   147d0:	00040513          	mv	a0,s0
   147d4:	c81ff0ef          	jal	ra,14454 <einfin.isra.2>
   147d8:	00e49783          	lh	a5,14(s1)
   147dc:	fc07d2e3          	bgez	a5,147a0 <e113toe.isra.8+0x5c>
   147e0:	00040513          	mv	a0,s0
   147e4:	9f9ff0ef          	jal	ra,141dc <eisnan>
   147e8:	fa051ce3          	bnez	a0,147a0 <e113toe.isra.8+0x5c>
   147ec:	01245783          	lhu	a5,18(s0)
   147f0:	ffff8737          	lui	a4,0xffff8
   147f4:	00e7c7b3          	xor	a5,a5,a4
   147f8:	00f41923          	sh	a5,18(s0)
   147fc:	fa5ff06f          	j	147a0 <e113toe.isra.8+0x5c>
   14800:	00e11323          	sh	a4,6(sp)
   14804:	00410693          	addi	a3,sp,4
   14808:	ffe78793          	addi	a5,a5,-2
   1480c:	0007d603          	lhu	a2,0(a5)
   14810:	00268693          	addi	a3,a3,2
   14814:	00c69223          	sh	a2,4(a3)
   14818:	fef498e3          	bne	s1,a5,14808 <e113toe.isra.8+0xc4>
   1481c:	00071c63          	bnez	a4,14834 <e113toe.isra.8+0xf0>
   14820:	00011423          	sh	zero,8(sp)
   14824:	00040593          	mv	a1,s0
   14828:	00410513          	addi	a0,sp,4
   1482c:	ea9ff0ef          	jal	ra,146d4 <emovo.isra.6>
   14830:	f71ff06f          	j	147a0 <e113toe.isra.8+0x5c>
   14834:	00100793          	li	a5,1
   14838:	fff00593          	li	a1,-1
   1483c:	00410513          	addi	a0,sp,4
   14840:	00f11423          	sh	a5,8(sp)
   14844:	c39ff0ef          	jal	ra,1447c <eshift.part.3>
   14848:	fddff06f          	j	14824 <e113toe.isra.8+0xe0>

0001484c <emdnorm>:
   1484c:	fe010113          	addi	sp,sp,-32
   14850:	00812c23          	sw	s0,24(sp)
   14854:	00912a23          	sw	s1,20(sp)
   14858:	01212823          	sw	s2,16(sp)
   1485c:	01312623          	sw	s3,12(sp)
   14860:	01412423          	sw	s4,8(sp)
   14864:	01512223          	sw	s5,4(sp)
   14868:	00068913          	mv	s2,a3
   1486c:	00078413          	mv	s0,a5
   14870:	00112e23          	sw	ra,28(sp)
   14874:	00050493          	mv	s1,a0
   14878:	00058993          	mv	s3,a1
   1487c:	00060a13          	mv	s4,a2
   14880:	00070a93          	mv	s5,a4
   14884:	d51ff0ef          	jal	ra,145d4 <enormlz>
   14888:	09000793          	li	a5,144
   1488c:	40a90933          	sub	s2,s2,a0
   14890:	04a7d463          	ble	a0,a5,148d8 <emdnorm+0x8c>
   14894:	000087b7          	lui	a5,0x8
   14898:	ffe78793          	addi	a5,a5,-2 # 7ffe <main-0x8076>
   1489c:	2d27c663          	blt	a5,s2,14b68 <emdnorm+0x31c>
   148a0:	00248793          	addi	a5,s1,2
   148a4:	01a48493          	addi	s1,s1,26
   148a8:	00278793          	addi	a5,a5,2
   148ac:	fe079f23          	sh	zero,-2(a5)
   148b0:	fe979ce3          	bne	a5,s1,148a8 <emdnorm+0x5c>
   148b4:	01c12083          	lw	ra,28(sp)
   148b8:	01812403          	lw	s0,24(sp)
   148bc:	01412483          	lw	s1,20(sp)
   148c0:	01012903          	lw	s2,16(sp)
   148c4:	00c12983          	lw	s3,12(sp)
   148c8:	00812a03          	lw	s4,8(sp)
   148cc:	00412a83          	lw	s5,4(sp)
   148d0:	02010113          	addi	sp,sp,32
   148d4:	00008067          	ret
   148d8:	00095e63          	bgez	s2,148f4 <emdnorm+0xa8>
   148dc:	f7000793          	li	a5,-144
   148e0:	12f94c63          	blt	s2,a5,14a18 <emdnorm+0x1cc>
   148e4:	00090593          	mv	a1,s2
   148e8:	00048513          	mv	a0,s1
   148ec:	b91ff0ef          	jal	ra,1447c <eshift.part.3>
   148f0:	14051063          	bnez	a0,14a30 <emdnorm+0x1e4>
   148f4:	220a8663          	beqz	s5,14b20 <emdnorm+0x2d4>
   148f8:	00442703          	lw	a4,4(s0)
   148fc:	00042783          	lw	a5,0(s0)
   14900:	06f70663          	beq	a4,a5,1496c <emdnorm+0x120>
   14904:	01a40513          	addi	a0,s0,26
   14908:	dccff0ef          	jal	ra,13ed4 <ecleaz>
   1490c:	00442783          	lw	a5,4(s0)
   14910:	03800713          	li	a4,56
   14914:	16e78e63          	beq	a5,a4,14a90 <emdnorm+0x244>
   14918:	12f74063          	blt	a4,a5,14a38 <emdnorm+0x1ec>
   1491c:	01800713          	li	a4,24
   14920:	1ae78663          	beq	a5,a4,14acc <emdnorm+0x280>
   14924:	03500713          	li	a4,53
   14928:	18e78263          	beq	a5,a4,14aac <emdnorm+0x260>
   1492c:	00c00713          	li	a4,12
   14930:	00e42423          	sw	a4,8(s0)
   14934:	80010737          	lui	a4,0x80010
   14938:	fff70713          	addi	a4,a4,-1 # 8000ffff <__global_pointer$+0x7ffeb89f>
   1493c:	00e42a23          	sw	a4,20(s0)
   14940:	00100713          	li	a4,1
   14944:	00e41c23          	sh	a4,24(s0)
   14948:	00b00713          	li	a4,11
   1494c:	00e42623          	sw	a4,12(s0)
   14950:	00c42703          	lw	a4,12(s0)
   14954:	01845683          	lhu	a3,24(s0)
   14958:	00870713          	addi	a4,a4,8
   1495c:	00171713          	slli	a4,a4,0x1
   14960:	00e40733          	add	a4,s0,a4
   14964:	00d71523          	sh	a3,10(a4)
   14968:	00f42023          	sw	a5,0(s0)
   1496c:	03204263          	bgtz	s2,14990 <emdnorm+0x144>
   14970:	00442703          	lw	a4,4(s0)
   14974:	09000793          	li	a5,144
   14978:	00f70c63          	beq	a4,a5,14990 <emdnorm+0x144>
   1497c:	0184d783          	lhu	a5,24(s1)
   14980:	00048513          	mv	a0,s1
   14984:	0017f793          	andi	a5,a5,1
   14988:	00f9e9b3          	or	s3,s3,a5
   1498c:	dbcff0ef          	jal	ra,13f48 <eshdn1>
   14990:	00842683          	lw	a3,8(s0)
   14994:	01445603          	lhu	a2,20(s0)
   14998:	00442583          	lw	a1,4(s0)
   1499c:	00169713          	slli	a4,a3,0x1
   149a0:	00e48733          	add	a4,s1,a4
   149a4:	00075783          	lhu	a5,0(a4)
   149a8:	00c7f7b3          	and	a5,a5,a2
   149ac:	08f00613          	li	a2,143
   149b0:	00b64a63          	blt	a2,a1,149c4 <emdnorm+0x178>
   149b4:	00168693          	addi	a3,a3,1
   149b8:	00070613          	mv	a2,a4
   149bc:	00c00593          	li	a1,12
   149c0:	10d5da63          	ble	a3,a1,14ad4 <emdnorm+0x288>
   149c4:	01445683          	lhu	a3,20(s0)
   149c8:	00075603          	lhu	a2,0(a4)
   149cc:	fff6c693          	not	a3,a3
   149d0:	00c6f6b3          	and	a3,a3,a2
   149d4:	00d71023          	sh	a3,0(a4)
   149d8:	01645703          	lhu	a4,22(s0)
   149dc:	00f776b3          	and	a3,a4,a5
   149e0:	10068a63          	beqz	a3,14af4 <emdnorm+0x2a8>
   149e4:	02f71263          	bne	a4,a5,14a08 <emdnorm+0x1bc>
   149e8:	10099463          	bnez	s3,14af0 <emdnorm+0x2a4>
   149ec:	00c42783          	lw	a5,12(s0)
   149f0:	01845703          	lhu	a4,24(s0)
   149f4:	00179793          	slli	a5,a5,0x1
   149f8:	00f487b3          	add	a5,s1,a5
   149fc:	0007d783          	lhu	a5,0(a5)
   14a00:	00e7f7b3          	and	a5,a5,a4
   14a04:	0e078863          	beqz	a5,14af4 <emdnorm+0x2a8>
   14a08:	00048593          	mv	a1,s1
   14a0c:	01a40513          	addi	a0,s0,26
   14a10:	e80ff0ef          	jal	ra,14090 <eaddm>
   14a14:	0e00006f          	j	14af4 <emdnorm+0x2a8>
   14a18:	00248793          	addi	a5,s1,2
   14a1c:	01a48493          	addi	s1,s1,26
   14a20:	00278793          	addi	a5,a5,2
   14a24:	fe079f23          	sh	zero,-2(a5)
   14a28:	fe979ce3          	bne	a5,s1,14a20 <emdnorm+0x1d4>
   14a2c:	e89ff06f          	j	148b4 <emdnorm+0x68>
   14a30:	00100993          	li	s3,1
   14a34:	ec1ff06f          	j	148f4 <emdnorm+0xa8>
   14a38:	04000713          	li	a4,64
   14a3c:	02e78863          	beq	a5,a4,14a6c <emdnorm+0x220>
   14a40:	07100713          	li	a4,113
   14a44:	eee794e3          	bne	a5,a4,1492c <emdnorm+0xe0>
   14a48:	40008737          	lui	a4,0x40008
   14a4c:	fff70713          	addi	a4,a4,-1 # 40007fff <__global_pointer$+0x3ffe389f>
   14a50:	00a00693          	li	a3,10
   14a54:	00e42a23          	sw	a4,20(s0)
   14a58:	00d42423          	sw	a3,8(s0)
   14a5c:	ffff8737          	lui	a4,0xffff8
   14a60:	00e41c23          	sh	a4,24(s0)
   14a64:	00d42623          	sw	a3,12(s0)
   14a68:	ee9ff06f          	j	14950 <emdnorm+0x104>
   14a6c:	00700713          	li	a4,7
   14a70:	00e42423          	sw	a4,8(s0)
   14a74:	80010737          	lui	a4,0x80010
   14a78:	fff70713          	addi	a4,a4,-1 # 8000ffff <__global_pointer$+0x7ffeb89f>
   14a7c:	00e42a23          	sw	a4,20(s0)
   14a80:	00100713          	li	a4,1
   14a84:	00e41c23          	sh	a4,24(s0)
   14a88:	00600713          	li	a4,6
   14a8c:	ec1ff06f          	j	1494c <emdnorm+0x100>
   14a90:	00600693          	li	a3,6
   14a94:	00800737          	lui	a4,0x800
   14a98:	0ff70713          	addi	a4,a4,255 # 8000ff <__global_pointer$+0x7db99f>
   14a9c:	00e42a23          	sw	a4,20(s0)
   14aa0:	00d42423          	sw	a3,8(s0)
   14aa4:	10000713          	li	a4,256
   14aa8:	fb9ff06f          	j	14a60 <emdnorm+0x214>
   14aac:	04000737          	lui	a4,0x4000
   14ab0:	7ff70713          	addi	a4,a4,2047 # 40007ff <__global_pointer$+0x3fdc09f>
   14ab4:	00600693          	li	a3,6
   14ab8:	00e42a23          	sw	a4,20(s0)
   14abc:	00001737          	lui	a4,0x1
   14ac0:	00d42423          	sw	a3,8(s0)
   14ac4:	80070713          	addi	a4,a4,-2048 # 800 <main-0xf874>
   14ac8:	f99ff06f          	j	14a60 <emdnorm+0x214>
   14acc:	00400693          	li	a3,4
   14ad0:	fc5ff06f          	j	14a94 <emdnorm+0x248>
   14ad4:	00265503          	lhu	a0,2(a2)
   14ad8:	00050463          	beqz	a0,14ae0 <emdnorm+0x294>
   14adc:	0017e793          	ori	a5,a5,1
   14ae0:	00061123          	sh	zero,2(a2)
   14ae4:	00168693          	addi	a3,a3,1
   14ae8:	00260613          	addi	a2,a2,2
   14aec:	ed5ff06f          	j	149c0 <emdnorm+0x174>
   14af0:	f00a0ce3          	beqz	s4,14a08 <emdnorm+0x1bc>
   14af4:	01204c63          	bgtz	s2,14b0c <emdnorm+0x2c0>
   14af8:	00442703          	lw	a4,4(s0)
   14afc:	09000793          	li	a5,144
   14b00:	00f70663          	beq	a4,a5,14b0c <emdnorm+0x2c0>
   14b04:	00048513          	mv	a0,s1
   14b08:	c90ff0ef          	jal	ra,13f98 <eshup1>
   14b0c:	0044d783          	lhu	a5,4(s1)
   14b10:	00078863          	beqz	a5,14b20 <emdnorm+0x2d4>
   14b14:	00048513          	mv	a0,s1
   14b18:	c30ff0ef          	jal	ra,13f48 <eshdn1>
   14b1c:	00190913          	addi	s2,s2,1
   14b20:	000087b7          	lui	a5,0x8
   14b24:	00049c23          	sh	zero,24(s1)
   14b28:	ffe78793          	addi	a5,a5,-2 # 7ffe <main-0x8076>
   14b2c:	0327d463          	ble	s2,a5,14b54 <emdnorm+0x308>
   14b30:	ffff87b7          	lui	a5,0xffff8
   14b34:	fff7c793          	not	a5,a5
   14b38:	00f49123          	sh	a5,2(s1)
   14b3c:	00448793          	addi	a5,s1,4
   14b40:	01848493          	addi	s1,s1,24
   14b44:	00079023          	sh	zero,0(a5) # ffff8000 <__global_pointer$+0xfffd38a0>
   14b48:	00278793          	addi	a5,a5,2
   14b4c:	fef49ce3          	bne	s1,a5,14b44 <emdnorm+0x2f8>
   14b50:	d65ff06f          	j	148b4 <emdnorm+0x68>
   14b54:	00095663          	bgez	s2,14b60 <emdnorm+0x314>
   14b58:	00049123          	sh	zero,2(s1)
   14b5c:	d59ff06f          	j	148b4 <emdnorm+0x68>
   14b60:	01249123          	sh	s2,2(s1)
   14b64:	d51ff06f          	j	148b4 <emdnorm+0x68>
   14b68:	d80a98e3          	bnez	s5,148f8 <emdnorm+0xac>
   14b6c:	00049c23          	sh	zero,24(s1)
   14b70:	fc1ff06f          	j	14b30 <emdnorm+0x2e4>

00014b74 <eiremain>:
   14b74:	fe010113          	addi	sp,sp,-32
   14b78:	01412423          	sw	s4,8(sp)
   14b7c:	00255a03          	lhu	s4,2(a0)
   14b80:	00812c23          	sw	s0,24(sp)
   14b84:	00058413          	mv	s0,a1
   14b88:	00112e23          	sw	ra,28(sp)
   14b8c:	00912a23          	sw	s1,20(sp)
   14b90:	01212823          	sw	s2,16(sp)
   14b94:	01512223          	sw	s5,4(sp)
   14b98:	01612023          	sw	s6,0(sp)
   14b9c:	00060913          	mv	s2,a2
   14ba0:	03460b13          	addi	s6,a2,52
   14ba4:	01312623          	sw	s3,12(sp)
   14ba8:	00050a93          	mv	s5,a0
   14bac:	a29ff0ef          	jal	ra,145d4 <enormlz>
   14bb0:	00245483          	lhu	s1,2(s0)
   14bb4:	40aa0a33          	sub	s4,s4,a0
   14bb8:	00040513          	mv	a0,s0
   14bbc:	a19ff0ef          	jal	ra,145d4 <enormlz>
   14bc0:	40a484b3          	sub	s1,s1,a0
   14bc4:	000b0513          	mv	a0,s6
   14bc8:	b0cff0ef          	jal	ra,13ed4 <ecleaz>
   14bcc:	0544d263          	ble	s4,s1,14c10 <eiremain+0x9c>
   14bd0:	00040513          	mv	a0,s0
   14bd4:	01812403          	lw	s0,24(sp)
   14bd8:	01c12083          	lw	ra,28(sp)
   14bdc:	00c12983          	lw	s3,12(sp)
   14be0:	00812a03          	lw	s4,8(sp)
   14be4:	00412a83          	lw	s5,4(sp)
   14be8:	00012b03          	lw	s6,0(sp)
   14bec:	00090793          	mv	a5,s2
   14bf0:	00048693          	mv	a3,s1
   14bf4:	01012903          	lw	s2,16(sp)
   14bf8:	01412483          	lw	s1,20(sp)
   14bfc:	00000713          	li	a4,0
   14c00:	00000613          	li	a2,0
   14c04:	00000593          	li	a1,0
   14c08:	02010113          	addi	sp,sp,32
   14c0c:	c41ff06f          	j	1484c <emdnorm>
   14c10:	00040593          	mv	a1,s0
   14c14:	000a8513          	mv	a0,s5
   14c18:	af4ff0ef          	jal	ra,13f0c <ecmpm>
   14c1c:	00000993          	li	s3,0
   14c20:	00a04a63          	bgtz	a0,14c34 <eiremain+0xc0>
   14c24:	00040593          	mv	a1,s0
   14c28:	000a8513          	mv	a0,s5
   14c2c:	c9cff0ef          	jal	ra,140c8 <esubm>
   14c30:	00100993          	li	s3,1
   14c34:	000b0513          	mv	a0,s6
   14c38:	b60ff0ef          	jal	ra,13f98 <eshup1>
   14c3c:	04c95783          	lhu	a5,76(s2)
   14c40:	00040513          	mv	a0,s0
   14c44:	fff48493          	addi	s1,s1,-1
   14c48:	00f9e9b3          	or	s3,s3,a5
   14c4c:	05391623          	sh	s3,76(s2)
   14c50:	b48ff0ef          	jal	ra,13f98 <eshup1>
   14c54:	f79ff06f          	j	14bcc <eiremain+0x58>

00014c58 <emul>:
   14c58:	f7010113          	addi	sp,sp,-144
   14c5c:	08812423          	sw	s0,136(sp)
   14c60:	08912223          	sw	s1,132(sp)
   14c64:	09212023          	sw	s2,128(sp)
   14c68:	07312e23          	sw	s3,124(sp)
   14c6c:	08112623          	sw	ra,140(sp)
   14c70:	07412c23          	sw	s4,120(sp)
   14c74:	07512a23          	sw	s5,116(sp)
   14c78:	07612823          	sw	s6,112(sp)
   14c7c:	07712623          	sw	s7,108(sp)
   14c80:	07812423          	sw	s8,104(sp)
   14c84:	07912223          	sw	s9,100(sp)
   14c88:	00050493          	mv	s1,a0
   14c8c:	00058413          	mv	s0,a1
   14c90:	00060913          	mv	s2,a2
   14c94:	00068993          	mv	s3,a3
   14c98:	d44ff0ef          	jal	ra,141dc <eisnan>
   14c9c:	04050263          	beqz	a0,14ce0 <emul+0x88>
   14ca0:	00090593          	mv	a1,s2
   14ca4:	00048513          	mv	a0,s1
   14ca8:	a10ff0ef          	jal	ra,13eb8 <emov>
   14cac:	08c12083          	lw	ra,140(sp)
   14cb0:	08812403          	lw	s0,136(sp)
   14cb4:	08412483          	lw	s1,132(sp)
   14cb8:	08012903          	lw	s2,128(sp)
   14cbc:	07c12983          	lw	s3,124(sp)
   14cc0:	07812a03          	lw	s4,120(sp)
   14cc4:	07412a83          	lw	s5,116(sp)
   14cc8:	07012b03          	lw	s6,112(sp)
   14ccc:	06c12b83          	lw	s7,108(sp)
   14cd0:	06812c03          	lw	s8,104(sp)
   14cd4:	06412c83          	lw	s9,100(sp)
   14cd8:	09010113          	addi	sp,sp,144
   14cdc:	00008067          	ret
   14ce0:	00040513          	mv	a0,s0
   14ce4:	cf8ff0ef          	jal	ra,141dc <eisnan>
   14ce8:	00050863          	beqz	a0,14cf8 <emul+0xa0>
   14cec:	00090593          	mv	a1,s2
   14cf0:	00040513          	mv	a0,s0
   14cf4:	fb5ff06f          	j	14ca8 <emul+0x50>
   14cf8:	00048513          	mv	a0,s1
   14cfc:	f24ff0ef          	jal	ra,14420 <eisinf>
   14d00:	06051463          	bnez	a0,14d68 <emul+0x110>
   14d04:	00040513          	mv	a0,s0
   14d08:	f18ff0ef          	jal	ra,14420 <eisinf>
   14d0c:	00050c63          	beqz	a0,14d24 <emul+0xcc>
   14d10:	000225b7          	lui	a1,0x22
   14d14:	93c58593          	addi	a1,a1,-1732 # 2193c <ezero>
   14d18:	00048513          	mv	a0,s1
   14d1c:	dfcff0ef          	jal	ra,14318 <ecmp>
   14d20:	04050e63          	beqz	a0,14d7c <emul+0x124>
   14d24:	00048513          	mv	a0,s1
   14d28:	ef8ff0ef          	jal	ra,14420 <eisinf>
   14d2c:	00051863          	bnez	a0,14d3c <emul+0xe4>
   14d30:	00040513          	mv	a0,s0
   14d34:	eecff0ef          	jal	ra,14420 <eisinf>
   14d38:	04050c63          	beqz	a0,14d90 <emul+0x138>
   14d3c:	00048513          	mv	a0,s1
   14d40:	cd0ff0ef          	jal	ra,14210 <eisneg>
   14d44:	00050493          	mv	s1,a0
   14d48:	00040513          	mv	a0,s0
   14d4c:	cc4ff0ef          	jal	ra,14210 <eisneg>
   14d50:	02a48c63          	beq	s1,a0,14d88 <emul+0x130>
   14d54:	ffff87b7          	lui	a5,0xffff8
   14d58:	00f91923          	sh	a5,18(s2)
   14d5c:	00090513          	mv	a0,s2
   14d60:	ef4ff0ef          	jal	ra,14454 <einfin.isra.2>
   14d64:	f49ff06f          	j	14cac <emul+0x54>
   14d68:	000225b7          	lui	a1,0x22
   14d6c:	93c58593          	addi	a1,a1,-1732 # 2193c <ezero>
   14d70:	00040513          	mv	a0,s0
   14d74:	da4ff0ef          	jal	ra,14318 <ecmp>
   14d78:	f80516e3          	bnez	a0,14d04 <emul+0xac>
   14d7c:	00090513          	mv	a0,s2
   14d80:	92dff0ef          	jal	ra,146ac <enan.constprop.12>
   14d84:	f29ff06f          	j	14cac <emul+0x54>
   14d88:	00091923          	sh	zero,18(s2)
   14d8c:	fd1ff06f          	j	14d5c <emul+0x104>
   14d90:	00048513          	mv	a0,s1
   14d94:	00c10593          	addi	a1,sp,12
   14d98:	cb0ff0ef          	jal	ra,14248 <emovi>
   14d9c:	00040513          	mv	a0,s0
   14da0:	02810593          	addi	a1,sp,40
   14da4:	ca4ff0ef          	jal	ra,14248 <emovi>
   14da8:	00e15403          	lhu	s0,14(sp)
   14dac:	02a15483          	lhu	s1,42(sp)
   14db0:	02041463          	bnez	s0,14dd8 <emul+0x180>
   14db4:	00000793          	li	a5,0
   14db8:	01600713          	li	a4,22
   14dbc:	00c10693          	addi	a3,sp,12
   14dc0:	00f686b3          	add	a3,a3,a5
   14dc4:	0026d683          	lhu	a3,2(a3)
   14dc8:	10068a63          	beqz	a3,14edc <emul+0x284>
   14dcc:	00c10513          	addi	a0,sp,12
   14dd0:	805ff0ef          	jal	ra,145d4 <enormlz>
   14dd4:	40a00433          	neg	s0,a0
   14dd8:	02a15783          	lhu	a5,42(sp)
   14ddc:	00048c13          	mv	s8,s1
   14de0:	02079263          	bnez	a5,14e04 <emul+0x1ac>
   14de4:	01600713          	li	a4,22
   14de8:	02810693          	addi	a3,sp,40
   14dec:	00f686b3          	add	a3,a3,a5
   14df0:	0026d683          	lhu	a3,2(a3)
   14df4:	0e068e63          	beqz	a3,14ef0 <emul+0x298>
   14df8:	02810513          	addi	a0,sp,40
   14dfc:	fd8ff0ef          	jal	ra,145d4 <enormlz>
   14e00:	40a48c33          	sub	s8,s1,a0
   14e04:	02815783          	lhu	a5,40(sp)
   14e08:	03498b93          	addi	s7,s3,52
   14e0c:	03898493          	addi	s1,s3,56
   14e10:	02f99a23          	sh	a5,52(s3)
   14e14:	02a15783          	lhu	a5,42(sp)
   14e18:	000b8a13          	mv	s4,s7
   14e1c:	02f99b23          	sh	a5,54(s3)
   14e20:	04e98793          	addi	a5,s3,78
   14e24:	00049023          	sh	zero,0(s1)
   14e28:	00248493          	addi	s1,s1,2
   14e2c:	fe979ce3          	bne	a5,s1,14e24 <emul+0x1cc>
   14e30:	00000a93          	li	s5,0
   14e34:	00000b13          	li	s6,0
   14e38:	fec00c93          	li	s9,-20
   14e3c:	00c10793          	addi	a5,sp,12
   14e40:	015787b3          	add	a5,a5,s5
   14e44:	0187d503          	lhu	a0,24(a5) # ffff8018 <__global_pointer$+0xfffd38b8>
   14e48:	00050e63          	beqz	a0,14e64 <emul+0x20c>
   14e4c:	02810593          	addi	a1,sp,40
   14e50:	04410613          	addi	a2,sp,68
   14e54:	aacff0ef          	jal	ra,14100 <m16m>
   14e58:	000b8593          	mv	a1,s7
   14e5c:	04410513          	addi	a0,sp,68
   14e60:	a30ff0ef          	jal	ra,14090 <eaddm>
   14e64:	04c9d783          	lhu	a5,76(s3)
   14e68:	000b8513          	mv	a0,s7
   14e6c:	ffea8a93          	addi	s5,s5,-2 # 7ffffffe <__global_pointer$+0x7ffdb89e>
   14e70:	00fb6b33          	or	s6,s6,a5
   14e74:	9f4ff0ef          	jal	ra,14068 <eshdn6>
   14e78:	fd9a92e3          	bne	s5,s9,14e3c <emul+0x1e4>
   14e7c:	02810793          	addi	a5,sp,40
   14e80:	000a5703          	lhu	a4,0(s4)
   14e84:	002a0a13          	addi	s4,s4,2
   14e88:	00278793          	addi	a5,a5,2
   14e8c:	fee79f23          	sh	a4,-2(a5)
   14e90:	fe9a18e3          	bne	s4,s1,14e80 <emul+0x228>
   14e94:	ffffc6b7          	lui	a3,0xffffc
   14e98:	01840433          	add	s0,s0,s8
   14e9c:	00268693          	addi	a3,a3,2 # ffffc002 <__global_pointer$+0xfffd78a2>
   14ea0:	00098793          	mv	a5,s3
   14ea4:	04000713          	li	a4,64
   14ea8:	00d406b3          	add	a3,s0,a3
   14eac:	00000613          	li	a2,0
   14eb0:	000b0593          	mv	a1,s6
   14eb4:	02810513          	addi	a0,sp,40
   14eb8:	995ff0ef          	jal	ra,1484c <emdnorm>
   14ebc:	00c15703          	lhu	a4,12(sp)
   14ec0:	02815783          	lhu	a5,40(sp)
   14ec4:	02f71c63          	bne	a4,a5,14efc <emul+0x2a4>
   14ec8:	02011423          	sh	zero,40(sp)
   14ecc:	00090593          	mv	a1,s2
   14ed0:	02810513          	addi	a0,sp,40
   14ed4:	801ff0ef          	jal	ra,146d4 <emovo.isra.6>
   14ed8:	dd5ff06f          	j	14cac <emul+0x54>
   14edc:	00278793          	addi	a5,a5,2
   14ee0:	ece79ee3          	bne	a5,a4,14dbc <emul+0x164>
   14ee4:	00090513          	mv	a0,s2
   14ee8:	fbdfe0ef          	jal	ra,13ea4 <eclear>
   14eec:	dc1ff06f          	j	14cac <emul+0x54>
   14ef0:	00278793          	addi	a5,a5,2
   14ef4:	eee79ae3          	bne	a5,a4,14de8 <emul+0x190>
   14ef8:	fedff06f          	j	14ee4 <emul+0x28c>
   14efc:	fff00793          	li	a5,-1
   14f00:	02f11423          	sh	a5,40(sp)
   14f04:	fc9ff06f          	j	14ecc <emul+0x274>

00014f08 <ediv>:
   14f08:	f7010113          	addi	sp,sp,-144
   14f0c:	08812423          	sw	s0,136(sp)
   14f10:	08912223          	sw	s1,132(sp)
   14f14:	09212023          	sw	s2,128(sp)
   14f18:	07512a23          	sw	s5,116(sp)
   14f1c:	08112623          	sw	ra,140(sp)
   14f20:	07312e23          	sw	s3,124(sp)
   14f24:	07412c23          	sw	s4,120(sp)
   14f28:	07612823          	sw	s6,112(sp)
   14f2c:	07712623          	sw	s7,108(sp)
   14f30:	07812423          	sw	s8,104(sp)
   14f34:	07912223          	sw	s9,100(sp)
   14f38:	07a12023          	sw	s10,96(sp)
   14f3c:	00050493          	mv	s1,a0
   14f40:	00058413          	mv	s0,a1
   14f44:	00060913          	mv	s2,a2
   14f48:	00068a93          	mv	s5,a3
   14f4c:	a90ff0ef          	jal	ra,141dc <eisnan>
   14f50:	04050463          	beqz	a0,14f98 <ediv+0x90>
   14f54:	00090593          	mv	a1,s2
   14f58:	00048513          	mv	a0,s1
   14f5c:	f5dfe0ef          	jal	ra,13eb8 <emov>
   14f60:	08c12083          	lw	ra,140(sp)
   14f64:	08812403          	lw	s0,136(sp)
   14f68:	08412483          	lw	s1,132(sp)
   14f6c:	08012903          	lw	s2,128(sp)
   14f70:	07c12983          	lw	s3,124(sp)
   14f74:	07812a03          	lw	s4,120(sp)
   14f78:	07412a83          	lw	s5,116(sp)
   14f7c:	07012b03          	lw	s6,112(sp)
   14f80:	06c12b83          	lw	s7,108(sp)
   14f84:	06812c03          	lw	s8,104(sp)
   14f88:	06412c83          	lw	s9,100(sp)
   14f8c:	06012d03          	lw	s10,96(sp)
   14f90:	09010113          	addi	sp,sp,144
   14f94:	00008067          	ret
   14f98:	00040513          	mv	a0,s0
   14f9c:	a40ff0ef          	jal	ra,141dc <eisnan>
   14fa0:	00050863          	beqz	a0,14fb0 <ediv+0xa8>
   14fa4:	00090593          	mv	a1,s2
   14fa8:	00040513          	mv	a0,s0
   14fac:	fb1ff06f          	j	14f5c <ediv+0x54>
   14fb0:	000229b7          	lui	s3,0x22
   14fb4:	93c98593          	addi	a1,s3,-1732 # 2193c <ezero>
   14fb8:	00048513          	mv	a0,s1
   14fbc:	b5cff0ef          	jal	ra,14318 <ecmp>
   14fc0:	1e050e63          	beqz	a0,151bc <ediv+0x2b4>
   14fc4:	00048513          	mv	a0,s1
   14fc8:	c58ff0ef          	jal	ra,14420 <eisinf>
   14fcc:	00050993          	mv	s3,a0
   14fd0:	00040513          	mv	a0,s0
   14fd4:	c4cff0ef          	jal	ra,14420 <eisinf>
   14fd8:	20099063          	bnez	s3,151d8 <ediv+0x2d0>
   14fdc:	20051663          	bnez	a0,151e8 <ediv+0x2e0>
   14fe0:	00048513          	mv	a0,s1
   14fe4:	00c10593          	addi	a1,sp,12
   14fe8:	a60ff0ef          	jal	ra,14248 <emovi>
   14fec:	00040513          	mv	a0,s0
   14ff0:	02810593          	addi	a1,sp,40
   14ff4:	a54ff0ef          	jal	ra,14248 <emovi>
   14ff8:	02a15483          	lhu	s1,42(sp)
   14ffc:	00e15403          	lhu	s0,14(sp)
   15000:	02049463          	bnez	s1,15028 <ediv+0x120>
   15004:	00000793          	li	a5,0
   15008:	01600713          	li	a4,22
   1500c:	02810693          	addi	a3,sp,40
   15010:	00f686b3          	add	a3,a3,a5
   15014:	0026d683          	lhu	a3,2(a3)
   15018:	1e068e63          	beqz	a3,15214 <ediv+0x30c>
   1501c:	02810513          	addi	a0,sp,40
   15020:	db4ff0ef          	jal	ra,145d4 <enormlz>
   15024:	40a004b3          	neg	s1,a0
   15028:	00e15783          	lhu	a5,14(sp)
   1502c:	00040b93          	mv	s7,s0
   15030:	02079263          	bnez	a5,15054 <ediv+0x14c>
   15034:	01600713          	li	a4,22
   15038:	00c10693          	addi	a3,sp,12
   1503c:	00f686b3          	add	a3,a3,a5
   15040:	0026d683          	lhu	a3,2(a3)
   15044:	1c068e63          	beqz	a3,15220 <ediv+0x318>
   15048:	00c10513          	addi	a0,sp,12
   1504c:	d88ff0ef          	jal	ra,145d4 <enormlz>
   15050:	40a40bb3          	sub	s7,s0,a0
   15054:	02815783          	lhu	a5,40(sp)
   15058:	02a15703          	lhu	a4,42(sp)
   1505c:	034a8993          	addi	s3,s5,52
   15060:	02fa9a23          	sh	a5,52(s5)
   15064:	038a8793          	addi	a5,s5,56
   15068:	02ea9b23          	sh	a4,54(s5)
   1506c:	00078a13          	mv	s4,a5
   15070:	04ea8713          	addi	a4,s5,78
   15074:	00278793          	addi	a5,a5,2
   15078:	fe079f23          	sh	zero,-2(a5)
   1507c:	fee79ce3          	bne	a5,a4,15074 <ediv+0x16c>
   15080:	02810513          	addi	a0,sp,40
   15084:	ec5fe0ef          	jal	ra,13f48 <eshdn1>
   15088:	01215c03          	lhu	s8,18(sp)
   1508c:	00010b37          	lui	s6,0x10
   15090:	fffb0593          	addi	a1,s6,-1 # ffff <main-0x75>
   15094:	000c0513          	mv	a0,s8
   15098:	5140c0ef          	jal	ra,215ac <__mulsi3>
   1509c:	00050d13          	mv	s10,a0
   150a0:	01a98c93          	addi	s9,s3,26
   150a4:	fffb0b13          	addi	s6,s6,-1
   150a8:	02c15503          	lhu	a0,44(sp)
   150ac:	02e15783          	lhu	a5,46(sp)
   150b0:	000b0413          	mv	s0,s6
   150b4:	01051513          	slli	a0,a0,0x10
   150b8:	00f50533          	add	a0,a0,a5
   150bc:	00ad6a63          	bltu	s10,a0,150d0 <ediv+0x1c8>
   150c0:	000c0593          	mv	a1,s8
   150c4:	5140c0ef          	jal	ra,215d8 <__udivsi3>
   150c8:	01051413          	slli	s0,a0,0x10
   150cc:	01045413          	srli	s0,s0,0x10
   150d0:	00c10593          	addi	a1,sp,12
   150d4:	00040513          	mv	a0,s0
   150d8:	04410613          	addi	a2,sp,68
   150dc:	824ff0ef          	jal	ra,14100 <m16m>
   150e0:	02810593          	addi	a1,sp,40
   150e4:	04410513          	addi	a0,sp,68
   150e8:	e25fe0ef          	jal	ra,13f0c <ecmpm>
   150ec:	02a05663          	blez	a0,15118 <ediv+0x210>
   150f0:	04410593          	addi	a1,sp,68
   150f4:	00c10513          	addi	a0,sp,12
   150f8:	fd1fe0ef          	jal	ra,140c8 <esubm>
   150fc:	02810593          	addi	a1,sp,40
   15100:	04410513          	addi	a0,sp,68
   15104:	e09fe0ef          	jal	ra,13f0c <ecmpm>
   15108:	12a04a63          	bgtz	a0,1523c <ediv+0x334>
   1510c:	fff40413          	addi	s0,s0,-1
   15110:	01041413          	slli	s0,s0,0x10
   15114:	01045413          	srli	s0,s0,0x10
   15118:	02810593          	addi	a1,sp,40
   1511c:	04410513          	addi	a0,sp,68
   15120:	fa9fe0ef          	jal	ra,140c8 <esubm>
   15124:	02810513          	addi	a0,sp,40
   15128:	008a1023          	sh	s0,0(s4)
   1512c:	002a0a13          	addi	s4,s4,2
   15130:	f19fe0ef          	jal	ra,14048 <eshup6>
   15134:	f79a1ae3          	bne	s4,s9,150a8 <ediv+0x1a0>
   15138:	00000793          	li	a5,0
   1513c:	00000593          	li	a1,0
   15140:	01600713          	li	a4,22
   15144:	02810693          	addi	a3,sp,40
   15148:	00f686b3          	add	a3,a3,a5
   1514c:	0046d683          	lhu	a3,4(a3)
   15150:	00278793          	addi	a5,a5,2
   15154:	00d5e5b3          	or	a1,a1,a3
   15158:	fee796e3          	bne	a5,a4,15144 <ediv+0x23c>
   1515c:	00b035b3          	snez	a1,a1
   15160:	02810793          	addi	a5,sp,40
   15164:	0009d703          	lhu	a4,0(s3)
   15168:	00298993          	addi	s3,s3,2
   1516c:	00278793          	addi	a5,a5,2
   15170:	fee79f23          	sh	a4,-2(a5)
   15174:	ff3a18e3          	bne	s4,s3,15164 <ediv+0x25c>
   15178:	000046b7          	lui	a3,0x4
   1517c:	417484b3          	sub	s1,s1,s7
   15180:	fff68693          	addi	a3,a3,-1 # 3fff <main-0xc075>
   15184:	000a8793          	mv	a5,s5
   15188:	04000713          	li	a4,64
   1518c:	00d486b3          	add	a3,s1,a3
   15190:	00000613          	li	a2,0
   15194:	02810513          	addi	a0,sp,40
   15198:	eb4ff0ef          	jal	ra,1484c <emdnorm>
   1519c:	00c15703          	lhu	a4,12(sp)
   151a0:	02815783          	lhu	a5,40(sp)
   151a4:	0af71a63          	bne	a4,a5,15258 <ediv+0x350>
   151a8:	02011423          	sh	zero,40(sp)
   151ac:	00090593          	mv	a1,s2
   151b0:	02810513          	addi	a0,sp,40
   151b4:	d20ff0ef          	jal	ra,146d4 <emovo.isra.6>
   151b8:	da9ff06f          	j	14f60 <ediv+0x58>
   151bc:	93c98593          	addi	a1,s3,-1732
   151c0:	00040513          	mv	a0,s0
   151c4:	954ff0ef          	jal	ra,14318 <ecmp>
   151c8:	de051ee3          	bnez	a0,14fc4 <ediv+0xbc>
   151cc:	00090513          	mv	a0,s2
   151d0:	cdcff0ef          	jal	ra,146ac <enan.constprop.12>
   151d4:	d8dff06f          	j	14f60 <ediv+0x58>
   151d8:	fe051ae3          	bnez	a0,151cc <ediv+0x2c4>
   151dc:	00090513          	mv	a0,s2
   151e0:	cc5fe0ef          	jal	ra,13ea4 <eclear>
   151e4:	d7dff06f          	j	14f60 <ediv+0x58>
   151e8:	00048513          	mv	a0,s1
   151ec:	824ff0ef          	jal	ra,14210 <eisneg>
   151f0:	00050493          	mv	s1,a0
   151f4:	00040513          	mv	a0,s0
   151f8:	818ff0ef          	jal	ra,14210 <eisneg>
   151fc:	02a48c63          	beq	s1,a0,15234 <ediv+0x32c>
   15200:	ffff87b7          	lui	a5,0xffff8
   15204:	00f91923          	sh	a5,18(s2)
   15208:	00090513          	mv	a0,s2
   1520c:	a48ff0ef          	jal	ra,14454 <einfin.isra.2>
   15210:	d51ff06f          	j	14f60 <ediv+0x58>
   15214:	00278793          	addi	a5,a5,2 # ffff8002 <__global_pointer$+0xfffd38a2>
   15218:	dee79ae3          	bne	a5,a4,1500c <ediv+0x104>
   1521c:	fc1ff06f          	j	151dc <ediv+0x2d4>
   15220:	00278793          	addi	a5,a5,2
   15224:	e0e79ae3          	bne	a5,a4,15038 <ediv+0x130>
   15228:	00c15703          	lhu	a4,12(sp)
   1522c:	02815783          	lhu	a5,40(sp)
   15230:	fcf718e3          	bne	a4,a5,15200 <ediv+0x2f8>
   15234:	00091923          	sh	zero,18(s2)
   15238:	fd1ff06f          	j	15208 <ediv+0x300>
   1523c:	ffe40413          	addi	s0,s0,-2
   15240:	01041413          	slli	s0,s0,0x10
   15244:	04410593          	addi	a1,sp,68
   15248:	00c10513          	addi	a0,sp,12
   1524c:	01045413          	srli	s0,s0,0x10
   15250:	e79fe0ef          	jal	ra,140c8 <esubm>
   15254:	ec5ff06f          	j	15118 <ediv+0x210>
   15258:	fff00793          	li	a5,-1
   1525c:	02f11423          	sh	a5,40(sp)
   15260:	f4dff06f          	j	151ac <ediv+0x2a4>

00015264 <_ldtoa_r>:
   15264:	0005ae03          	lw	t3,0(a1)
   15268:	0045a303          	lw	t1,4(a1)
   1526c:	0085a883          	lw	a7,8(a1)
   15270:	00c5a583          	lw	a1,12(a1)
   15274:	e2010113          	addi	sp,sp,-480
   15278:	1c812c23          	sw	s0,472(sp)
   1527c:	02b12623          	sw	a1,44(sp)
   15280:	00078413          	mv	s0,a5
   15284:	04052583          	lw	a1,64(a0)
   15288:	fff00793          	li	a5,-1
   1528c:	14f12823          	sw	a5,336(sp)
   15290:	09000793          	li	a5,144
   15294:	1d412423          	sw	s4,456(sp)
   15298:	1d512223          	sw	s5,452(sp)
   1529c:	1b712e23          	sw	s7,444(sp)
   152a0:	1b912a23          	sw	s9,436(sp)
   152a4:	1c112e23          	sw	ra,476(sp)
   152a8:	1c912a23          	sw	s1,468(sp)
   152ac:	1d212823          	sw	s2,464(sp)
   152b0:	1d312623          	sw	s3,460(sp)
   152b4:	1d612023          	sw	s6,448(sp)
   152b8:	1b812c23          	sw	s8,440(sp)
   152bc:	1ba12823          	sw	s10,432(sp)
   152c0:	1bb12623          	sw	s11,428(sp)
   152c4:	01012623          	sw	a6,12(sp)
   152c8:	03c12023          	sw	t3,32(sp)
   152cc:	02612223          	sw	t1,36(sp)
   152d0:	03112423          	sw	a7,40(sp)
   152d4:	14f12a23          	sw	a5,340(sp)
   152d8:	00050a13          	mv	s4,a0
   152dc:	00060b93          	mv	s7,a2
   152e0:	00068a93          	mv	s5,a3
   152e4:	00070c93          	mv	s9,a4
   152e8:	02058063          	beqz	a1,15308 <_ldtoa_r+0xa4>
   152ec:	04452783          	lw	a5,68(a0)
   152f0:	00100713          	li	a4,1
   152f4:	00f71733          	sll	a4,a4,a5
   152f8:	00f5a223          	sw	a5,4(a1)
   152fc:	00e5a423          	sw	a4,8(a1)
   15300:	12c010ef          	jal	ra,1642c <_Bfree>
   15304:	040a2023          	sw	zero,64(s4)
   15308:	02010513          	addi	a0,sp,32
   1530c:	05010593          	addi	a1,sp,80
   15310:	c34ff0ef          	jal	ra,14744 <e113toe.isra.8>
   15314:	05010513          	addi	a0,sp,80
   15318:	ef9fe0ef          	jal	ra,14210 <eisneg>
   1531c:	18050e63          	beqz	a0,154b8 <_ldtoa_r+0x254>
   15320:	00100793          	li	a5,1
   15324:	00f42023          	sw	a5,0(s0)
   15328:	00300793          	li	a5,3
   1532c:	18fb8a63          	beq	s7,a5,154c0 <_ldtoa_r+0x25c>
   15330:	01400913          	li	s2,20
   15334:	000b8a63          	beqz	s7,15348 <_ldtoa_r+0xe4>
   15338:	fffa8913          	addi	s2,s5,-1
   1533c:	02a00793          	li	a5,42
   15340:	0127d463          	ble	s2,a5,15348 <_ldtoa_r+0xe4>
   15344:	02a00913          	li	s2,42
   15348:	15412783          	lw	a5,340(sp)
   1534c:	05010513          	addi	a0,sp,80
   15350:	00f12823          	sw	a5,16(sp)
   15354:	e89fe0ef          	jal	ra,141dc <eisnan>
   15358:	00050413          	mv	s0,a0
   1535c:	16050663          	beqz	a0,154c8 <_ldtoa_r+0x264>
   15360:	000225b7          	lui	a1,0x22
   15364:	b9058593          	addi	a1,a1,-1136 # 21b90 <emtens+0x104>
   15368:	11410513          	addi	a0,sp,276
   1536c:	00002437          	lui	s0,0x2
   15370:	720020ef          	jal	ra,17a90 <sprintf>
   15374:	70f40413          	addi	s0,s0,1807 # 270f <main-0xd965>
   15378:	01012783          	lw	a5,16(sp)
   1537c:	05010513          	addi	a0,sp,80
   15380:	16812023          	sw	s0,352(sp)
   15384:	14f12a23          	sw	a5,340(sp)
   15388:	898ff0ef          	jal	ra,14420 <eisinf>
   1538c:	11410993          	addi	s3,sp,276
   15390:	00051863          	bnez	a0,153a0 <_ldtoa_r+0x13c>
   15394:	05010513          	addi	a0,sp,80
   15398:	e45fe0ef          	jal	ra,141dc <eisnan>
   1539c:	240508e3          	beqz	a0,15dec <_ldtoa_r+0xb88>
   153a0:	000027b7          	lui	a5,0x2
   153a4:	70f78793          	addi	a5,a5,1807 # 270f <main-0xd965>
   153a8:	00fca023          	sw	a5,0(s9)
   153ac:	00098793          	mv	a5,s3
   153b0:	02000613          	li	a2,32
   153b4:	02d00693          	li	a3,45
   153b8:	0007c703          	lbu	a4,0(a5)
   153bc:	28c706e3          	beq	a4,a2,15e48 <_ldtoa_r+0xbe4>
   153c0:	28d704e3          	beq	a4,a3,15e48 <_ldtoa_r+0xbe4>
   153c4:	00098413          	mv	s0,s3
   153c8:	00178793          	addi	a5,a5,1
   153cc:	fff7c703          	lbu	a4,-1(a5)
   153d0:	00140693          	addi	a3,s0,1
   153d4:	fee68fa3          	sb	a4,-1(a3)
   153d8:	26071ce3          	bnez	a4,15e50 <_ldtoa_r+0xbec>
   153dc:	00200713          	li	a4,2
   153e0:	00100793          	li	a5,1
   153e4:	00eb8863          	beq	s7,a4,153f4 <_ldtoa_r+0x190>
   153e8:	16012783          	lw	a5,352(sp)
   153ec:	0127d463          	ble	s2,a5,153f4 <_ldtoa_r+0x190>
   153f0:	00090793          	mv	a5,s2
   153f4:	03000693          	li	a3,48
   153f8:	fff44703          	lbu	a4,-1(s0)
   153fc:	00d71663          	bne	a4,a3,15408 <_ldtoa_r+0x1a4>
   15400:	41340733          	sub	a4,s0,s3
   15404:	24e7cae3          	blt	a5,a4,15e58 <_ldtoa_r+0xbf4>
   15408:	00300793          	li	a5,3
   1540c:	009a8713          	addi	a4,s5,9
   15410:	02fb9463          	bne	s7,a5,15438 <_ldtoa_r+0x1d4>
   15414:	16012783          	lw	a5,352(sp)
   15418:	00f90933          	add	s2,s2,a5
   1541c:	00095863          	bgez	s2,1542c <_ldtoa_r+0x1c8>
   15420:	10010a23          	sb	zero,276(sp)
   15424:	000ca023          	sw	zero,0(s9)
   15428:	00098413          	mv	s0,s3
   1542c:	000ca783          	lw	a5,0(s9)
   15430:	00fa8ab3          	add	s5,s5,a5
   15434:	003a8713          	addi	a4,s5,3
   15438:	040a2223          	sw	zero,68(s4)
   1543c:	00400793          	li	a5,4
   15440:	01478693          	addi	a3,a5,20
   15444:	044a2583          	lw	a1,68(s4)
   15448:	20d77ee3          	bleu	a3,a4,15e64 <_ldtoa_r+0xc00>
   1544c:	000a0513          	mv	a0,s4
   15450:	735000ef          	jal	ra,16384 <_Balloc>
   15454:	04aa2023          	sw	a0,64(s4)
   15458:	00098593          	mv	a1,s3
   1545c:	00050493          	mv	s1,a0
   15460:	159020ef          	jal	ra,17db8 <strcpy>
   15464:	00c12783          	lw	a5,12(sp)
   15468:	00078863          	beqz	a5,15478 <_ldtoa_r+0x214>
   1546c:	41340433          	sub	s0,s0,s3
   15470:	00848433          	add	s0,s1,s0
   15474:	0087a023          	sw	s0,0(a5)
   15478:	1dc12083          	lw	ra,476(sp)
   1547c:	1d812403          	lw	s0,472(sp)
   15480:	00048513          	mv	a0,s1
   15484:	1d012903          	lw	s2,464(sp)
   15488:	1d412483          	lw	s1,468(sp)
   1548c:	1cc12983          	lw	s3,460(sp)
   15490:	1c812a03          	lw	s4,456(sp)
   15494:	1c412a83          	lw	s5,452(sp)
   15498:	1c012b03          	lw	s6,448(sp)
   1549c:	1bc12b83          	lw	s7,444(sp)
   154a0:	1b812c03          	lw	s8,440(sp)
   154a4:	1b412c83          	lw	s9,436(sp)
   154a8:	1b012d03          	lw	s10,432(sp)
   154ac:	1ac12d83          	lw	s11,428(sp)
   154b0:	1e010113          	addi	sp,sp,480
   154b4:	00008067          	ret
   154b8:	00042023          	sw	zero,0(s0)
   154bc:	e6dff06f          	j	15328 <_ldtoa_r+0xc4>
   154c0:	000a8913          	mv	s2,s5
   154c4:	e79ff06f          	j	1533c <_ldtoa_r+0xd8>
   154c8:	09000793          	li	a5,144
   154cc:	06c10593          	addi	a1,sp,108
   154d0:	05010513          	addi	a0,sp,80
   154d4:	14f12a23          	sw	a5,340(sp)
   154d8:	9e1fe0ef          	jal	ra,13eb8 <emov>
   154dc:	07e15783          	lhu	a5,126(sp)
   154e0:	00012223          	sw	zero,4(sp)
   154e4:	01079713          	slli	a4,a5,0x10
   154e8:	41075713          	srai	a4,a4,0x10
   154ec:	02075063          	bgez	a4,1550c <_ldtoa_r+0x2a8>
   154f0:	00008737          	lui	a4,0x8
   154f4:	fff70713          	addi	a4,a4,-1 # 7fff <main-0x8075>
   154f8:	00e7f7b3          	and	a5,a5,a4
   154fc:	06f11f23          	sh	a5,126(sp)
   15500:	000107b7          	lui	a5,0x10
   15504:	fff78793          	addi	a5,a5,-1 # ffff <main-0x75>
